
firmware.elf:     file format elf32-littleriscv


Disassembly of section .memory:

00000000 <reset_vec>:
       0:	0800400b          	0x800400b
       4:	0600600b          	0x600600b
       8:	aee1                	j	3e0 <irq_stack>
       a:	00000013          	nop
       e:	0001                	nop

00000010 <irq_vec>:
      10:	0200a10b          	0x200a10b
      14:	0201218b          	0x201218b
      18:	000000b7          	lui	ra,0x0
      1c:	16008093          	addi	ra,ra,352 # 160 <irq_regs>
      20:	0000410b          	0x410b
      24:	0020a023          	sw	sp,0(ra)
      28:	0001410b          	0x1410b
      2c:	0020a223          	sw	sp,4(ra)
      30:	0001c10b          	0x1c10b
      34:	0020a423          	sw	sp,8(ra)
      38:	0030a623          	sw	gp,12(ra)
      3c:	0040a823          	sw	tp,16(ra)
      40:	0050aa23          	sw	t0,20(ra)
      44:	0060ac23          	sw	t1,24(ra)
      48:	0070ae23          	sw	t2,28(ra)
      4c:	0280a023          	sw	s0,32(ra)
      50:	0290a223          	sw	s1,36(ra)
      54:	02a0a423          	sw	a0,40(ra)
      58:	02b0a623          	sw	a1,44(ra)
      5c:	02c0a823          	sw	a2,48(ra)
      60:	02d0aa23          	sw	a3,52(ra)
      64:	02e0ac23          	sw	a4,56(ra)
      68:	02f0ae23          	sw	a5,60(ra)
      6c:	0500a023          	sw	a6,64(ra)
      70:	0510a223          	sw	a7,68(ra)
      74:	0520a423          	sw	s2,72(ra)
      78:	0530a623          	sw	s3,76(ra)
      7c:	0540a823          	sw	s4,80(ra)
      80:	0550aa23          	sw	s5,84(ra)
      84:	0560ac23          	sw	s6,88(ra)
      88:	0570ae23          	sw	s7,92(ra)
      8c:	0780a023          	sw	s8,96(ra)
      90:	0790a223          	sw	s9,100(ra)
      94:	07a0a423          	sw	s10,104(ra)
      98:	07b0a623          	sw	s11,108(ra)
      9c:	07c0a823          	sw	t3,112(ra)
      a0:	07d0aa23          	sw	t4,116(ra)
      a4:	07e0ac23          	sw	t5,120(ra)
      a8:	07f0ae23          	sw	t6,124(ra)
      ac:	00000137          	lui	sp,0x0
      b0:	3e010113          	addi	sp,sp,992 # 3e0 <irq_stack>
      b4:	00000537          	lui	a0,0x0
      b8:	16050513          	addi	a0,a0,352 # 160 <irq_regs>
      bc:	0000c58b          	0xc58b
      c0:	648000ef          	jal	ra,708 <irq>
      c4:	00050093          	mv	ra,a0
      c8:	0000a103          	lw	sp,0(ra)
      cc:	0201200b          	0x201200b
      d0:	0040a103          	lw	sp,4(ra)
      d4:	0201208b          	0x201208b
      d8:	0080a103          	lw	sp,8(ra)
      dc:	0201210b          	0x201210b
      e0:	00c0a183          	lw	gp,12(ra)
      e4:	0100a203          	lw	tp,16(ra)
      e8:	0140a283          	lw	t0,20(ra)
      ec:	0180a303          	lw	t1,24(ra)
      f0:	01c0a383          	lw	t2,28(ra)
      f4:	0200a403          	lw	s0,32(ra)
      f8:	0240a483          	lw	s1,36(ra)
      fc:	0280a503          	lw	a0,40(ra)
     100:	02c0a583          	lw	a1,44(ra)
     104:	0300a603          	lw	a2,48(ra)
     108:	0340a683          	lw	a3,52(ra)
     10c:	0380a703          	lw	a4,56(ra)
     110:	03c0a783          	lw	a5,60(ra)
     114:	0400a803          	lw	a6,64(ra)
     118:	0440a883          	lw	a7,68(ra)
     11c:	0480a903          	lw	s2,72(ra)
     120:	04c0a983          	lw	s3,76(ra)
     124:	0500aa03          	lw	s4,80(ra)
     128:	0540aa83          	lw	s5,84(ra)
     12c:	0580ab03          	lw	s6,88(ra)
     130:	05c0ab83          	lw	s7,92(ra)
     134:	0600ac03          	lw	s8,96(ra)
     138:	0640ac83          	lw	s9,100(ra)
     13c:	0680ad03          	lw	s10,104(ra)
     140:	06c0ad83          	lw	s11,108(ra)
     144:	0700ae03          	lw	t3,112(ra)
     148:	0740ae83          	lw	t4,116(ra)
     14c:	0780af03          	lw	t5,120(ra)
     150:	07c0af83          	lw	t6,124(ra)
     154:	0000c08b          	0xc08b
     158:	0001410b          	0x1410b
     15c:	0400000b          	0x400000b

00000160 <irq_regs>:
	...

000003e0 <irq_stack>:
     3e0:	00000093          	li	ra,0
     3e4:	00000113          	li	sp,0
     3e8:	00000193          	li	gp,0
     3ec:	00000213          	li	tp,0
     3f0:	00000293          	li	t0,0
     3f4:	00000313          	li	t1,0
     3f8:	00000393          	li	t2,0
     3fc:	00000413          	li	s0,0
     400:	00000493          	li	s1,0
     404:	00000513          	li	a0,0
     408:	00000593          	li	a1,0
     40c:	00000613          	li	a2,0
     410:	00000693          	li	a3,0
     414:	00000713          	li	a4,0
     418:	00000793          	li	a5,0
     41c:	00000813          	li	a6,0
     420:	00000893          	li	a7,0
     424:	00000913          	li	s2,0
     428:	00000993          	li	s3,0
     42c:	00000a13          	li	s4,0
     430:	00000a93          	li	s5,0
     434:	00000b13          	li	s6,0
     438:	00000b93          	li	s7,0
     43c:	00000c13          	li	s8,0
     440:	00000c93          	li	s9,0
     444:	00000d13          	li	s10,0
     448:	00000d93          	li	s11,0
     44c:	00000e13          	li	t3,0
     450:	00000e93          	li	t4,0
     454:	00000f13          	li	t5,0
     458:	00000f93          	li	t6,0
     45c:	00020137          	lui	sp,0x20
     460:	5f2000ef          	jal	ra,a52 <hello>
     464:	3e800093          	li	ra,1000
     468:	0a00e00b          	0xa00e00b
     46c:	2500406f          	j	46bc <lui>

00000470 <lui_ret>:
     470:	3e800093          	li	ra,1000
     474:	0a00e00b          	0xa00e00b
     478:	3690106f          	j	1fe0 <auipc>

0000047c <auipc_ret>:
     47c:	3e800093          	li	ra,1000
     480:	0a00e00b          	0xa00e00b
     484:	39c0306f          	j	3820 <j>

00000488 <j_ret>:
     488:	3e800093          	li	ra,1000
     48c:	0a00e00b          	0xa00e00b
     490:	44c0306f          	j	38dc <jal>

00000494 <jal_ret>:
     494:	3e800093          	li	ra,1000
     498:	0a00e00b          	0xa00e00b
     49c:	5180306f          	j	39b4 <jalr>

000004a0 <jalr_ret>:
     4a0:	3e800093          	li	ra,1000
     4a4:	0a00e00b          	0xa00e00b
     4a8:	4050106f          	j	20ac <beq>

000004ac <beq_ret>:
     4ac:	3e800093          	li	ra,1000
     4b0:	0a00e00b          	0xa00e00b
     4b4:	5690206f          	j	321c <bne>

000004b8 <bne_ret>:
     4b8:	3e800093          	li	ra,1000
     4bc:	0a00e00b          	0xa00e00b
     4c0:	6a40206f          	j	2b64 <blt>

000004c4 <blt_ret>:
     4c4:	3e800093          	li	ra,1000
     4c8:	0a00e00b          	0xa00e00b
     4cc:	7210106f          	j	23ec <bge>

000004d0 <bge_ret>:
     4d0:	3e800093          	li	ra,1000
     4d4:	0a00e00b          	0xa00e00b
     4d8:	1cd0206f          	j	2ea4 <bltu>

000004dc <bltu_ret>:
     4dc:	3e800093          	li	ra,1000
     4e0:	0a00e00b          	0xa00e00b
     4e4:	2a80206f          	j	278c <bgeu>

000004e8 <bgeu_ret>:
     4e8:	3e800093          	li	ra,1000
     4ec:	0a00e00b          	0xa00e00b
     4f0:	6480306f          	j	3b38 <lb>

000004f4 <lb_ret>:
     4f4:	3e800093          	li	ra,1000
     4f8:	0a00e00b          	0xa00e00b
     4fc:	3d50306f          	j	40d0 <lh>

00000500 <lh_ret>:
     500:	3e800093          	li	ra,1000
     504:	0a00e00b          	0xa00e00b
     508:	2940406f          	j	479c <lw>

0000050c <lw_ret>:
     50c:	3e800093          	li	ra,1000
     510:	0a00e00b          	0xa00e00b
     514:	0f10306f          	j	3e04 <lbu>

00000518 <lbu_ret>:
     518:	3e800093          	li	ra,1000
     51c:	0a00e00b          	0xa00e00b
     520:	69d0306f          	j	43bc <lhu>

00000524 <lhu_ret>:
     524:	3e800093          	li	ra,1000
     528:	0a00e00b          	0xa00e00b
     52c:	5040606f          	j	6a30 <sb>

00000530 <sb_ret>:
     530:	3e800093          	li	ra,1000
     534:	0a00e00b          	0xa00e00b
     538:	16d0606f          	j	6ea4 <sh>

0000053c <sh_ret>:
     53c:	3e800093          	li	ra,1000
     540:	0a00e00b          	0xa00e00b
     544:	7ec0906f          	j	9d30 <sw>

00000548 <sw_ret>:
     548:	3e800093          	li	ra,1000
     54c:	0a00e00b          	0xa00e00b
     550:	0080106f          	j	1558 <addi>

00000554 <addi_ret>:
     554:	3e800093          	li	ra,1000
     558:	0a00e00b          	0xa00e00b
     55c:	4d10706f          	j	822c <slti>

00000560 <slti_ret>:
     560:	3e800093          	li	ra,1000
     564:	0a00e00b          	0xa00e00b
     568:	20c0a06f          	j	a774 <xori>

0000056c <xori_ret>:
     56c:	3e800093          	li	ra,1000
     570:	0a00e00b          	0xa00e00b
     574:	7a50506f          	j	6518 <ori>

00000578 <ori_ret>:
     578:	3e800093          	li	ra,1000
     57c:	0a00e00b          	0xa00e00b
     580:	01d0106f          	j	1d9c <andi>

00000584 <andi_ret>:
     584:	3e800093          	li	ra,1000
     588:	0a00e00b          	0xa00e00b
     58c:	4500706f          	j	79dc <slli>

00000590 <slli_ret>:
     590:	3e800093          	li	ra,1000
     594:	0a00e00b          	0xa00e00b
     598:	7210806f          	j	94b8 <srli>

0000059c <srli_ret>:
     59c:	3e800093          	li	ra,1000
     5a0:	0a00e00b          	0xa00e00b
     5a4:	59c0806f          	j	8b40 <srai>

000005a8 <srai_ret>:
     5a8:	3e800093          	li	ra,1000
     5ac:	0a00e00b          	0xa00e00b
     5b0:	2490006f          	j	ff8 <add>

000005b4 <add_ret>:
     5b4:	3e800093          	li	ra,1000
     5b8:	0a00e00b          	0xa00e00b
     5bc:	2340906f          	j	97f0 <sub>

000005c0 <sub_ret>:
     5c0:	3e800093          	li	ra,1000
     5c4:	0a00e00b          	0xa00e00b
     5c8:	6290606f          	j	73f0 <sll>

000005cc <sll_ret>:
     5cc:	3e800093          	li	ra,1000
     5d0:	0a00e00b          	0xa00e00b
     5d4:	7100706f          	j	7ce4 <slt>

000005d8 <slt_ret>:
     5d8:	3e800093          	li	ra,1000
     5dc:	0a00e00b          	0xa00e00b
     5e0:	4550906f          	j	a234 <xor>

000005e4 <xor_ret>:
     5e4:	3e800093          	li	ra,1000
     5e8:	0a00e00b          	0xa00e00b
     5ec:	0910806f          	j	8e7c <srl>

000005f0 <srl_ret>:
     5f0:	3e800093          	li	ra,1000
     5f4:	0a00e00b          	0xa00e00b
     5f8:	72d0706f          	j	8524 <sra>

000005fc <sra_ret>:
     5fc:	3e800093          	li	ra,1000
     600:	0a00e00b          	0xa00e00b
     604:	1d10506f          	j	5fd4 <or>

00000608 <or_ret>:
     608:	3e800093          	li	ra,1000
     60c:	0a00e00b          	0xa00e00b
     610:	2540106f          	j	1864 <and>

00000614 <and_ret>:
     614:	3e800093          	li	ra,1000
     618:	0a00e00b          	0xa00e00b
     61c:	1d50406f          	j	4ff0 <mulh>

00000620 <mulh_ret>:
     620:	3e800093          	li	ra,1000
     624:	0a00e00b          	0xa00e00b
     628:	7150406f          	j	553c <mulhsu>

0000062c <mulhsu_ret>:
     62c:	3e800093          	li	ra,1000
     630:	0a00e00b          	0xa00e00b
     634:	4540506f          	j	5a88 <mulhu>

00000638 <mulhu_ret>:
     638:	3e800093          	li	ra,1000
     63c:	0a00e00b          	0xa00e00b
     640:	4680406f          	j	4aa8 <mul>

00000644 <mul_ret>:
     644:	3e800093          	li	ra,1000
     648:	0a00e00b          	0xa00e00b
     64c:	7150206f          	j	3560 <div>

00000650 <div_ret>:
     650:	3e800093          	li	ra,1000
     654:	0a00e00b          	0xa00e00b
     658:	0640306f          	j	36bc <divu>

0000065c <divu_ret>:
     65c:	3e800093          	li	ra,1000
     660:	0a00e00b          	0xa00e00b
     664:	1100606f          	j	6774 <rem>

00000668 <rem_ret>:
     668:	3e800093          	li	ra,1000
     66c:	0a00e00b          	0xa00e00b
     670:	2600606f          	j	68d0 <remu>

00000674 <remu_ret>:
     674:	3e800093          	li	ra,1000
     678:	0a00e00b          	0xa00e00b
     67c:	5210606f          	j	739c <simple>

00000680 <simple_ret>:
     680:	00020137          	lui	sp,0x20
     684:	deadc1b7          	lui	gp,0xdeadc
     688:	eef18193          	addi	gp,gp,-273 # deadbeef <end+0xdeacfe17>
     68c:	00018213          	mv	tp,gp
     690:	474000ef          	jal	ra,b04 <sieve>
     694:	57e000ef          	jal	ra,c12 <multest>
     698:	0cd000ef          	jal	ra,f64 <stats>
     69c:	10000537          	lui	a0,0x10000
     6a0:	04400593          	li	a1,68
     6a4:	04f00613          	li	a2,79
     6a8:	04e00693          	li	a3,78
     6ac:	04500713          	li	a4,69
     6b0:	00a00793          	li	a5,10
     6b4:	c10c                	sw	a1,0(a0)
     6b6:	c110                	sw	a2,0(a0)
     6b8:	c114                	sw	a3,0(a0)
     6ba:	c118                	sw	a4,0(a0)
     6bc:	c11c                	sw	a5,0(a0)
     6be:	20000537          	lui	a0,0x20000
     6c2:	075bd5b7          	lui	a1,0x75bd
     6c6:	d1558593          	addi	a1,a1,-747 # 75bcd15 <end+0x75b0c3d>
     6ca:	c10c                	sw	a1,0(a0)
     6cc:	9002                	ebreak

000006ce <hard_mul>:
     6ce:	02b50533          	mul	a0,a0,a1
     6d2:	8082                	ret

000006d4 <hard_mulh>:
     6d4:	02b51533          	mulh	a0,a0,a1
     6d8:	8082                	ret

000006da <hard_mulhsu>:
     6da:	02b52533          	mulhsu	a0,a0,a1
     6de:	8082                	ret

000006e0 <hard_mulhu>:
     6e0:	02b53533          	mulhu	a0,a0,a1
     6e4:	8082                	ret

000006e6 <hard_div>:
     6e6:	02b54533          	div	a0,a0,a1
     6ea:	8082                	ret

000006ec <hard_divu>:
     6ec:	02b55533          	divu	a0,a0,a1
     6f0:	8082                	ret

000006f2 <hard_rem>:
     6f2:	02b56533          	rem	a0,a0,a1
     6f6:	8082                	ret

000006f8 <hard_remu>:
     6f8:	02b57533          	remu	a0,a0,a1
     6fc:	8082                	ret
	...

00000708 <irq>:
     708:	715d                	addi	sp,sp,-80
     70a:	c2a6                	sw	s1,68(sp)
     70c:	c0ca                	sw	s2,64(sp)
     70e:	dc52                	sw	s4,56(sp)
     710:	c686                	sw	ra,76(sp)
     712:	c4a2                	sw	s0,72(sp)
     714:	de4e                	sw	s3,60(sp)
     716:	da56                	sw	s5,52(sp)
     718:	d85a                	sw	s6,48(sp)
     71a:	d65e                	sw	s7,44(sp)
     71c:	d462                	sw	s8,40(sp)
     71e:	d266                	sw	s9,36(sp)
     720:	d06a                	sw	s10,32(sp)
     722:	ce6e                	sw	s11,28(sp)
     724:	0065f493          	andi	s1,a1,6
     728:	892a                	mv	s2,a0
     72a:	8a2e                	mv	s4,a1
     72c:	c4bd                	beqz	s1,79a <irq+0x92>
     72e:	4118                	lw	a4,0(a0)
     730:	00177693          	andi	a3,a4,1
     734:	ffc70793          	addi	a5,a4,-4
     738:	c299                	beqz	a3,73e <irq+0x36>
     73a:	ffd70793          	addi	a5,a4,-3
     73e:	0007d403          	lhu	s0,0(a5)
     742:	470d                	li	a4,3
     744:	00347613          	andi	a2,s0,3
     748:	00e61663          	bne	a2,a4,754 <irq+0x4c>
     74c:	0027d783          	lhu	a5,2(a5)
     750:	07c2                	slli	a5,a5,0x10
     752:	8c5d                	or	s0,s0,a5
     754:	00347993          	andi	s3,s0,3
     758:	ffd98793          	addi	a5,s3,-3
     75c:	00f037b3          	snez	a5,a5
     760:	02d78d63          	beq	a5,a3,79a <irq+0x92>
     764:	0000c537          	lui	a0,0xc
     768:	c4850513          	addi	a0,a0,-952 # bc48 <__modsi3+0x38>
     76c:	2cb1                	jal	9c8 <print_str>
     76e:	00092503          	lw	a0,0(s2)
     772:	45a1                	li	a1,8
     774:	2c5d                	jal	a2a <print_hex>
     776:	0000c537          	lui	a0,0xc
     77a:	c8450513          	addi	a0,a0,-892 # bc84 <__modsi3+0x74>
     77e:	24a9                	jal	9c8 <print_str>
     780:	478d                	li	a5,3
     782:	45a1                	li	a1,8
     784:	00f98363          	beq	s3,a5,78a <irq+0x82>
     788:	4591                	li	a1,4
     78a:	8522                	mv	a0,s0
     78c:	2c79                	jal	a2a <print_hex>
     78e:	0000c537          	lui	a0,0xc
     792:	ccc50513          	addi	a0,a0,-820 # bccc <__modsi3+0xbc>
     796:	2c0d                	jal	9c8 <print_str>
     798:	9002                	ebreak
     79a:	010a7793          	andi	a5,s4,16
     79e:	c799                	beqz	a5,7ac <irq+0xa4>
     7a0:	6731                	lui	a4,0xc
     7a2:	db072783          	lw	a5,-592(a4) # bdb0 <ext_irq_4_count.1034>
     7a6:	0785                	addi	a5,a5,1
     7a8:	daf72823          	sw	a5,-592(a4)
     7ac:	020a7793          	andi	a5,s4,32
     7b0:	c799                	beqz	a5,7be <irq+0xb6>
     7b2:	6731                	lui	a4,0xc
     7b4:	dac72783          	lw	a5,-596(a4) # bdac <ext_irq_5_count.1035>
     7b8:	0785                	addi	a5,a5,1
     7ba:	daf72623          	sw	a5,-596(a4)
     7be:	001a7793          	andi	a5,s4,1
     7c2:	c799                	beqz	a5,7d0 <irq+0xc8>
     7c4:	6731                	lui	a4,0xc
     7c6:	da872783          	lw	a5,-600(a4) # bda8 <timer_irq_count.1036>
     7ca:	0785                	addi	a5,a5,1
     7cc:	daf72423          	sw	a5,-600(a4)
     7d0:	14048663          	beqz	s1,91c <irq+0x214>
     7d4:	00092783          	lw	a5,0(s2)
     7d8:	0017f713          	andi	a4,a5,1
     7dc:	ffc78a93          	addi	s5,a5,-4
     7e0:	c319                	beqz	a4,7e6 <irq+0xde>
     7e2:	ffd78a93          	addi	s5,a5,-3
     7e6:	000ad403          	lhu	s0,0(s5)
     7ea:	478d                	li	a5,3
     7ec:	00347713          	andi	a4,s0,3
     7f0:	00f71663          	bne	a4,a5,7fc <irq+0xf4>
     7f4:	002ad783          	lhu	a5,2(s5)
     7f8:	07c2                	slli	a5,a5,0x10
     7fa:	8c5d                	or	s0,s0,a5
     7fc:	0000c4b7          	lui	s1,0xc
     800:	ccc48513          	addi	a0,s1,-820 # bccc <__modsi3+0xbc>
     804:	22d1                	jal	9c8 <print_str>
     806:	0000c9b7          	lui	s3,0xc
     80a:	c9098513          	addi	a0,s3,-880 # bc90 <__modsi3+0x80>
     80e:	2a6d                	jal	9c8 <print_str>
     810:	002a7793          	andi	a5,s4,2
     814:	c795                	beqz	a5,840 <irq+0x138>
     816:	001007b7          	lui	a5,0x100
     81a:	07378793          	addi	a5,a5,115 # 100073 <end+0xf3f9b>
     81e:	00f40663          	beq	s0,a5,82a <irq+0x122>
     822:	67a5                	lui	a5,0x9
     824:	0789                	addi	a5,a5,2
     826:	10f41b63          	bne	s0,a5,93c <irq+0x234>
     82a:	0000c537          	lui	a0,0xc
     82e:	cd050513          	addi	a0,a0,-816 # bcd0 <__modsi3+0xc0>
     832:	2a59                	jal	9c8 <print_str>
     834:	45a1                	li	a1,8
     836:	8556                	mv	a0,s5
     838:	2acd                	jal	a2a <print_hex>
     83a:	ccc48513          	addi	a0,s1,-820
     83e:	2269                	jal	9c8 <print_str>
     840:	004a7a13          	andi	s4,s4,4
     844:	020a0b63          	beqz	s4,87a <irq+0x172>
     848:	0000c537          	lui	a0,0xc
     84c:	d1050513          	addi	a0,a0,-752 # bd10 <__modsi3+0x100>
     850:	2aa5                	jal	9c8 <print_str>
     852:	45a1                	li	a1,8
     854:	8556                	mv	a0,s5
     856:	2ad1                	jal	a2a <print_hex>
     858:	0000c537          	lui	a0,0xc
     85c:	d0850513          	addi	a0,a0,-760 # bd08 <__modsi3+0xf8>
     860:	22a5                	jal	9c8 <print_str>
     862:	00347793          	andi	a5,s0,3
     866:	470d                	li	a4,3
     868:	45a1                	li	a1,8
     86a:	00e78363          	beq	a5,a4,870 <irq+0x168>
     86e:	4591                	li	a1,4
     870:	8522                	mv	a0,s0
     872:	2a65                	jal	a2a <print_hex>
     874:	ccc48513          	addi	a0,s1,-820
     878:	2a81                	jal	9c8 <print_str>
     87a:	0000cb37          	lui	s6,0xc
     87e:	4a81                	li	s5,0
     880:	4ca5                	li	s9,9
     882:	4d4d                	li	s10,19
     884:	0000cdb7          	lui	s11,0xc
     888:	c40b0b13          	addi	s6,s6,-960 # bc40 <__modsi3+0x30>
     88c:	ccc48793          	addi	a5,s1,-820
     890:	8456                	mv	s0,s5
     892:	4a01                	li	s4,0
     894:	4c75                	li	s8,29
     896:	4b8d                	li	s7,3
     898:	c63e                	sw	a5,12(sp)
     89a:	0c041763          	bnez	s0,968 <irq+0x260>
     89e:	d30d8513          	addi	a0,s11,-720 # bd30 <__modsi3+0x120>
     8a2:	221d                	jal	9c8 <print_str>
     8a4:	00241793          	slli	a5,s0,0x2
     8a8:	97ca                	add	a5,a5,s2
     8aa:	4388                	lw	a0,0(a5)
     8ac:	45a1                	li	a1,8
     8ae:	2ab5                	jal	a2a <print_hex>
     8b0:	4532                	lw	a0,12(sp)
     8b2:	017a0363          	beq	s4,s7,8b8 <irq+0x1b0>
     8b6:	855a                	mv	a0,s6
     8b8:	2a01                	jal	9c8 <print_str>
     8ba:	0a05                	addi	s4,s4,1
     8bc:	4791                	li	a5,4
     8be:	0421                	addi	s0,s0,8
     8c0:	fcfa1de3          	bne	s4,a5,89a <irq+0x192>
     8c4:	0a85                	addi	s5,s5,1
     8c6:	47a1                	li	a5,8
     8c8:	fcfa92e3          	bne	s5,a5,88c <irq+0x184>
     8cc:	c9098513          	addi	a0,s3,-880
     8d0:	28e5                	jal	9c8 <print_str>
     8d2:	0000c537          	lui	a0,0xc
     8d6:	d3850513          	addi	a0,a0,-712 # bd38 <__modsi3+0x128>
     8da:	20fd                	jal	9c8 <print_str>
     8dc:	67b1                	lui	a5,0xc
     8de:	db07a503          	lw	a0,-592(a5) # bdb0 <ext_irq_4_count.1034>
     8e2:	28e5                	jal	9da <print_dec>
     8e4:	ccc48513          	addi	a0,s1,-820
     8e8:	20c5                	jal	9c8 <print_str>
     8ea:	0000c537          	lui	a0,0xc
     8ee:	d6050513          	addi	a0,a0,-672 # bd60 <__modsi3+0x150>
     8f2:	28d9                	jal	9c8 <print_str>
     8f4:	67b1                	lui	a5,0xc
     8f6:	dac7a503          	lw	a0,-596(a5) # bdac <ext_irq_5_count.1035>
     8fa:	20c5                	jal	9da <print_dec>
     8fc:	ccc48513          	addi	a0,s1,-820
     900:	20e1                	jal	9c8 <print_str>
     902:	0000c537          	lui	a0,0xc
     906:	d8850513          	addi	a0,a0,-632 # bd88 <__modsi3+0x178>
     90a:	287d                	jal	9c8 <print_str>
     90c:	67b1                	lui	a5,0xc
     90e:	da87a503          	lw	a0,-600(a5) # bda8 <timer_irq_count.1036>
     912:	20e1                	jal	9da <print_dec>
     914:	ccc48513          	addi	a0,s1,-820
     918:	2845                	jal	9c8 <print_str>
     91a:	9002                	ebreak
     91c:	40b6                	lw	ra,76(sp)
     91e:	4426                	lw	s0,72(sp)
     920:	854a                	mv	a0,s2
     922:	4496                	lw	s1,68(sp)
     924:	4906                	lw	s2,64(sp)
     926:	59f2                	lw	s3,60(sp)
     928:	5a62                	lw	s4,56(sp)
     92a:	5ad2                	lw	s5,52(sp)
     92c:	5b42                	lw	s6,48(sp)
     92e:	5bb2                	lw	s7,44(sp)
     930:	5c22                	lw	s8,40(sp)
     932:	5c92                	lw	s9,36(sp)
     934:	5d02                	lw	s10,32(sp)
     936:	4df2                	lw	s11,28(sp)
     938:	6161                	addi	sp,sp,80
     93a:	8082                	ret
     93c:	0000c537          	lui	a0,0xc
     940:	cec50513          	addi	a0,a0,-788 # bcec <__modsi3+0xdc>
     944:	2051                	jal	9c8 <print_str>
     946:	45a1                	li	a1,8
     948:	8556                	mv	a0,s5
     94a:	20c5                	jal	a2a <print_hex>
     94c:	0000c537          	lui	a0,0xc
     950:	d0850513          	addi	a0,a0,-760 # bd08 <__modsi3+0xf8>
     954:	2895                	jal	9c8 <print_str>
     956:	00347793          	andi	a5,s0,3
     95a:	470d                	li	a4,3
     95c:	45a1                	li	a1,8
     95e:	00e78363          	beq	a5,a4,964 <irq+0x25c>
     962:	4591                	li	a1,4
     964:	8522                	mv	a0,s0
     966:	bdc9                	j	838 <irq+0x130>
     968:	07800513          	li	a0,120
     96c:	008ccf63          	blt	s9,s0,98a <irq+0x282>
     970:	2881                	jal	9c0 <print_chr>
     972:	03040513          	addi	a0,s0,48
     976:	0ff57513          	andi	a0,a0,255
     97a:	2099                	jal	9c0 <print_chr>
     97c:	02000513          	li	a0,32
     980:	2081                	jal	9c0 <print_chr>
     982:	02000513          	li	a0,32
     986:	282d                	jal	9c0 <print_chr>
     988:	bf31                	j	8a4 <irq+0x19c>
     98a:	008d4b63          	blt	s10,s0,9a0 <irq+0x298>
     98e:	280d                	jal	9c0 <print_chr>
     990:	03100513          	li	a0,49
     994:	2035                	jal	9c0 <print_chr>
     996:	02640513          	addi	a0,s0,38
     99a:	0ff57513          	andi	a0,a0,255
     99e:	b7cd                	j	980 <irq+0x278>
     9a0:	008c4963          	blt	s8,s0,9b2 <irq+0x2aa>
     9a4:	2831                	jal	9c0 <print_chr>
     9a6:	03200513          	li	a0,50
     9aa:	2819                	jal	9c0 <print_chr>
     9ac:	01c40513          	addi	a0,s0,28
     9b0:	b7ed                	j	99a <irq+0x292>
     9b2:	2039                	jal	9c0 <print_chr>
     9b4:	03300513          	li	a0,51
     9b8:	2021                	jal	9c0 <print_chr>
     9ba:	01240513          	addi	a0,s0,18
     9be:	bff1                	j	99a <irq+0x292>

000009c0 <print_chr>:
     9c0:	100007b7          	lui	a5,0x10000
     9c4:	c388                	sw	a0,0(a5)
     9c6:	8082                	ret

000009c8 <print_str>:
     9c8:	10000737          	lui	a4,0x10000
     9cc:	00054783          	lbu	a5,0(a0)
     9d0:	e391                	bnez	a5,9d4 <print_str+0xc>
     9d2:	8082                	ret
     9d4:	0505                	addi	a0,a0,1
     9d6:	c31c                	sw	a5,0(a4)
     9d8:	bfd5                	j	9cc <print_str+0x4>

000009da <print_dec>:
     9da:	1101                	addi	sp,sp,-32
     9dc:	cc22                	sw	s0,24(sp)
     9de:	0040                	addi	s0,sp,4
     9e0:	ca26                	sw	s1,20(sp)
     9e2:	c84a                	sw	s2,16(sp)
     9e4:	ce06                	sw	ra,28(sp)
     9e6:	84aa                	mv	s1,a0
     9e8:	8922                	mv	s2,s0
     9ea:	e09d                	bnez	s1,a10 <print_dec+0x36>
     9ec:	03240263          	beq	s0,s2,a10 <print_dec+0x36>
     9f0:	10000737          	lui	a4,0x10000
     9f4:	147d                	addi	s0,s0,-1
     9f6:	00044783          	lbu	a5,0(s0)
     9fa:	03078793          	addi	a5,a5,48 # 10000030 <end+0xfff3f58>
     9fe:	c31c                	sw	a5,0(a4)
     a00:	ff241ae3          	bne	s0,s2,9f4 <print_dec+0x1a>
     a04:	40f2                	lw	ra,28(sp)
     a06:	4462                	lw	s0,24(sp)
     a08:	44d2                	lw	s1,20(sp)
     a0a:	4942                	lw	s2,16(sp)
     a0c:	6105                	addi	sp,sp,32
     a0e:	8082                	ret
     a10:	45a9                	li	a1,10
     a12:	8526                	mv	a0,s1
     a14:	1c80b0ef          	jal	ra,bbdc <__umodsi3>
     a18:	0405                	addi	s0,s0,1
     a1a:	fea40fa3          	sb	a0,-1(s0)
     a1e:	45a9                	li	a1,10
     a20:	8526                	mv	a0,s1
     a22:	1720b0ef          	jal	ra,bb94 <__udivsi3>
     a26:	84aa                	mv	s1,a0
     a28:	b7c9                	j	9ea <print_dec+0x10>

00000a2a <print_hex>:
     a2a:	15fd                	addi	a1,a1,-1
     a2c:	0000c737          	lui	a4,0xc
     a30:	058a                	slli	a1,a1,0x2
     a32:	dc870713          	addi	a4,a4,-568 # bdc8 <ext_irq_4_count.1034+0x18>
     a36:	100006b7          	lui	a3,0x10000
     a3a:	0005d363          	bgez	a1,a40 <print_hex+0x16>
     a3e:	8082                	ret
     a40:	00b557b3          	srl	a5,a0,a1
     a44:	8bbd                	andi	a5,a5,15
     a46:	97ba                	add	a5,a5,a4
     a48:	0007c783          	lbu	a5,0(a5)
     a4c:	15f1                	addi	a1,a1,-4
     a4e:	c29c                	sw	a5,0(a3)
     a50:	b7ed                	j	a3a <print_hex+0x10>

00000a52 <hello>:
     a52:	0000c537          	lui	a0,0xc
     a56:	ddc50513          	addi	a0,a0,-548 # bddc <ext_irq_4_count.1034+0x2c>
     a5a:	b7bd                	j	9c8 <print_str>

00000a5c <print_prime>:
     a5c:	1141                	addi	sp,sp,-16
     a5e:	c422                	sw	s0,8(sp)
     a60:	c226                	sw	s1,4(sp)
     a62:	c606                	sw	ra,12(sp)
     a64:	47a5                	li	a5,9
     a66:	842a                	mv	s0,a0
     a68:	84ae                	mv	s1,a1
     a6a:	00a7c763          	blt	a5,a0,a78 <print_prime+0x1c>
     a6e:	0000c537          	lui	a0,0xc
     a72:	dec50513          	addi	a0,a0,-532 # bdec <ext_irq_4_count.1034+0x3c>
     a76:	3f89                	jal	9c8 <print_str>
     a78:	8522                	mv	a0,s0
     a7a:	3785                	jal	9da <print_dec>
     a7c:	ff640793          	addi	a5,s0,-10
     a80:	4725                	li	a4,9
     a82:	06f77c63          	bleu	a5,a4,afa <print_prime+0x9e>
     a86:	45a9                	li	a1,10
     a88:	8522                	mv	a0,s0
     a8a:	1860b0ef          	jal	ra,bc10 <__modsi3>
     a8e:	4789                	li	a5,2
     a90:	04f50b63          	beq	a0,a5,ae6 <print_prime+0x8a>
     a94:	478d                	li	a5,3
     a96:	04f50d63          	beq	a0,a5,af0 <print_prime+0x94>
     a9a:	4785                	li	a5,1
     a9c:	04f51f63          	bne	a0,a5,afa <print_prime+0x9e>
     aa0:	0000c537          	lui	a0,0xc
     aa4:	df050513          	addi	a0,a0,-528 # bdf0 <ext_irq_4_count.1034+0x40>
     aa8:	3705                	jal	9c8 <print_str>
     aaa:	0000c537          	lui	a0,0xc
     aae:	e0050513          	addi	a0,a0,-512 # be00 <ext_irq_4_count.1034+0x50>
     ab2:	3f19                	jal	9c8 <print_str>
     ab4:	8526                	mv	a0,s1
     ab6:	3715                	jal	9da <print_dec>
     ab8:	0000c537          	lui	a0,0xc
     abc:	e0c50513          	addi	a0,a0,-500 # be0c <ext_irq_4_count.1034+0x5c>
     ac0:	3721                	jal	9c8 <print_str>
     ac2:	6731                	lui	a4,0xc
     ac4:	e2c72783          	lw	a5,-468(a4) # be2c <hash>
     ac8:	40b2                	lw	ra,12(sp)
     aca:	00579513          	slli	a0,a5,0x5
     ace:	953e                	add	a0,a0,a5
     ad0:	8d21                	xor	a0,a0,s0
     ad2:	00551793          	slli	a5,a0,0x5
     ad6:	4422                	lw	s0,8(sp)
     ad8:	953e                	add	a0,a0,a5
     ada:	8d25                	xor	a0,a0,s1
     adc:	e2a72623          	sw	a0,-468(a4)
     ae0:	4492                	lw	s1,4(sp)
     ae2:	0141                	addi	sp,sp,16
     ae4:	8082                	ret
     ae6:	0000c537          	lui	a0,0xc
     aea:	df450513          	addi	a0,a0,-524 # bdf4 <ext_irq_4_count.1034+0x44>
     aee:	bf6d                	j	aa8 <print_prime+0x4c>
     af0:	0000c537          	lui	a0,0xc
     af4:	df850513          	addi	a0,a0,-520 # bdf8 <ext_irq_4_count.1034+0x48>
     af8:	bf45                	j	aa8 <print_prime+0x4c>
     afa:	0000c537          	lui	a0,0xc
     afe:	dfc50513          	addi	a0,a0,-516 # bdfc <ext_irq_4_count.1034+0x4c>
     b02:	b75d                	j	aa8 <print_prime+0x4c>

00000b04 <sieve>:
     b04:	7179                	addi	sp,sp,-48
     b06:	6785                	lui	a5,0x1
     b08:	d226                	sw	s1,36(sp)
     b0a:	50578793          	addi	a5,a5,1285 # 1505 <test_38+0x19>
     b0e:	4505                	li	a0,1
     b10:	64b1                	lui	s1,0xc
     b12:	4589                	li	a1,2
     b14:	d422                	sw	s0,40(sp)
     b16:	d04a                	sw	s2,32(sp)
     b18:	cc52                	sw	s4,24(sp)
     b1a:	ca56                	sw	s5,20(sp)
     b1c:	c85a                	sw	s6,16(sp)
     b1e:	d606                	sw	ra,44(sp)
     b20:	ce4e                	sw	s3,28(sp)
     b22:	c65e                	sw	s7,12(sp)
     b24:	e2f4a623          	sw	a5,-468(s1) # be2c <hash>
     b28:	6931                	lui	s2,0xc
     b2a:	3f0d                	jal	a5c <print_prime>
     b2c:	4401                	li	s0,0
     b2e:	4509                	li	a0,2
     b30:	e3090913          	addi	s2,s2,-464 # be30 <bitmap>
     b34:	4a05                	li	s4,1
     b36:	08200b13          	li	s6,130
     b3a:	04000a93          	li	s5,64
     b3e:	40545713          	srai	a4,s0,0x5
     b42:	070a                	slli	a4,a4,0x2
     b44:	974a                	add	a4,a4,s2
     b46:	4318                	lw	a4,0(a4)
     b48:	008a17b3          	sll	a5,s4,s0
     b4c:	8ff9                	and	a5,a5,a4
     b4e:	ef9d                	bnez	a5,b8c <sieve+0x88>
     b50:	00141993          	slli	s3,s0,0x1
     b54:	098d                	addi	s3,s3,3
     b56:	85ce                	mv	a1,s3
     b58:	00150b93          	addi	s7,a0,1
     b5c:	3701                	jal	a5c <print_prime>
     b5e:	00241713          	slli	a4,s0,0x2
     b62:	0719                	addi	a4,a4,6
     b64:	00177793          	andi	a5,a4,1
     b68:	cf99                	beqz	a5,b86 <sieve+0x82>
     b6a:	ffd70793          	addi	a5,a4,-3
     b6e:	4017d693          	srai	a3,a5,0x1
     b72:	00eb4c63          	blt	s6,a4,b8a <sieve+0x86>
     b76:	8799                	srai	a5,a5,0x6
     b78:	078a                	slli	a5,a5,0x2
     b7a:	97ca                	add	a5,a5,s2
     b7c:	4390                	lw	a2,0(a5)
     b7e:	00da16b3          	sll	a3,s4,a3
     b82:	8ed1                	or	a3,a3,a2
     b84:	c394                	sw	a3,0(a5)
     b86:	974e                	add	a4,a4,s3
     b88:	bff1                	j	b64 <sieve+0x60>
     b8a:	855e                	mv	a0,s7
     b8c:	0405                	addi	s0,s0,1
     b8e:	fb5418e3          	bne	s0,s5,b3e <sieve+0x3a>
     b92:	0000c537          	lui	a0,0xc
     b96:	e1050513          	addi	a0,a0,-496 # be10 <ext_irq_4_count.1034+0x60>
     b9a:	353d                	jal	9c8 <print_str>
     b9c:	e2c4a503          	lw	a0,-468(s1)
     ba0:	45a1                	li	a1,8
     ba2:	3561                	jal	a2a <print_hex>
     ba4:	e2c4a703          	lw	a4,-468(s1)
     ba8:	1772a7b7          	lui	a5,0x1772a
     bac:	48f78793          	addi	a5,a5,1167 # 1772a48f <end+0x1771e3b7>
     bb0:	02f71163          	bne	a4,a5,bd2 <sieve+0xce>
     bb4:	5422                	lw	s0,40(sp)
     bb6:	50b2                	lw	ra,44(sp)
     bb8:	5492                	lw	s1,36(sp)
     bba:	5902                	lw	s2,32(sp)
     bbc:	49f2                	lw	s3,28(sp)
     bbe:	4a62                	lw	s4,24(sp)
     bc0:	4ad2                	lw	s5,20(sp)
     bc2:	4b42                	lw	s6,16(sp)
     bc4:	4bb2                	lw	s7,12(sp)
     bc6:	0000c537          	lui	a0,0xc
     bca:	e1c50513          	addi	a0,a0,-484 # be1c <ext_irq_4_count.1034+0x6c>
     bce:	6145                	addi	sp,sp,48
     bd0:	bbe5                	j	9c8 <print_str>
     bd2:	0000c537          	lui	a0,0xc
     bd6:	e2450513          	addi	a0,a0,-476 # be24 <ext_irq_4_count.1034+0x74>
     bda:	33fd                	jal	9c8 <print_str>
     bdc:	9002                	ebreak
     bde:	50b2                	lw	ra,44(sp)
     be0:	5422                	lw	s0,40(sp)
     be2:	5492                	lw	s1,36(sp)
     be4:	5902                	lw	s2,32(sp)
     be6:	49f2                	lw	s3,28(sp)
     be8:	4a62                	lw	s4,24(sp)
     bea:	4ad2                	lw	s5,20(sp)
     bec:	4b42                	lw	s6,16(sp)
     bee:	4bb2                	lw	s7,12(sp)
     bf0:	6145                	addi	sp,sp,48
     bf2:	8082                	ret

00000bf4 <xorshift32>:
     bf4:	6731                	lui	a4,0xc
     bf6:	e8872503          	lw	a0,-376(a4) # be88 <x.1033>
     bfa:	00d51793          	slli	a5,a0,0xd
     bfe:	8fa9                	xor	a5,a5,a0
     c00:	0117d513          	srli	a0,a5,0x11
     c04:	8fa9                	xor	a5,a5,a0
     c06:	00579513          	slli	a0,a5,0x5
     c0a:	8d3d                	xor	a0,a0,a5
     c0c:	e8a72423          	sw	a0,-376(a4)
     c10:	8082                	ret

00000c12 <multest>:
     c12:	711d                	addi	sp,sp,-96
     c14:	c8ca                	sw	s2,80(sp)
     c16:	0000c937          	lui	s2,0xc
     c1a:	c6ce                	sw	s3,76(sp)
     c1c:	c2d6                	sw	s5,68(sp)
     c1e:	d86a                	sw	s10,48(sp)
     c20:	d66e                	sw	s11,44(sp)
     c22:	ce86                	sw	ra,92(sp)
     c24:	cca2                	sw	s0,88(sp)
     c26:	caa6                	sw	s1,84(sp)
     c28:	c4d2                	sw	s4,72(sp)
     c2a:	c0da                	sw	s6,64(sp)
     c2c:	de5e                	sw	s7,60(sp)
     c2e:	dc62                	sw	s8,56(sp)
     c30:	da66                	sw	s9,52(sp)
     c32:	4981                	li	s3,0
     c34:	80000db7          	lui	s11,0x80000
     c38:	8aca                	mv	s5,s2
     c3a:	0000cd37          	lui	s10,0xc
     c3e:	3f5d                	jal	bf4 <xorshift32>
     c40:	842a                	mv	s0,a0
     c42:	3f4d                	jal	bf4 <xorshift32>
     c44:	4785                	li	a5,1
     c46:	84aa                	mv	s1,a0
     c48:	16f98a63          	beq	s3,a5,dbc <multest+0x1aa>
     c4c:	1537c863          	blt	a5,s3,d9c <multest+0x18a>
     c50:	16098963          	beqz	s3,dc2 <multest+0x1b0>
     c54:	0000c7b7          	lui	a5,0xc
     c58:	e3878513          	addi	a0,a5,-456 # be38 <bitmap+0x8>
     c5c:	33b5                	jal	9c8 <print_str>
     c5e:	41f45a13          	srai	s4,s0,0x1f
     c62:	45a1                	li	a1,8
     c64:	8552                	mv	a0,s4
     c66:	33d1                	jal	a2a <print_hex>
     c68:	0000cbb7          	lui	s7,0xc
     c6c:	e44b8513          	addi	a0,s7,-444 # be44 <bitmap+0x14>
     c70:	3ba1                	jal	9c8 <print_str>
     c72:	45a1                	li	a1,8
     c74:	8522                	mv	a0,s0
     c76:	3b55                	jal	a2a <print_hex>
     c78:	0000c537          	lui	a0,0xc
     c7c:	e4850513          	addi	a0,a0,-440 # be48 <bitmap+0x18>
     c80:	33a1                	jal	9c8 <print_str>
     c82:	41f4db13          	srai	s6,s1,0x1f
     c86:	45a1                	li	a1,8
     c88:	855a                	mv	a0,s6
     c8a:	3345                	jal	a2a <print_hex>
     c8c:	e44b8513          	addi	a0,s7,-444
     c90:	3b25                	jal	9c8 <print_str>
     c92:	45a1                	li	a1,8
     c94:	8526                	mv	a0,s1
     c96:	3b51                	jal	a2a <print_hex>
     c98:	4529                	li	a0,10
     c9a:	331d                	jal	9c0 <print_chr>
     c9c:	0000c537          	lui	a0,0xc
     ca0:	e4c50513          	addi	a0,a0,-436 # be4c <bitmap+0x1c>
     ca4:	3315                	jal	9c8 <print_str>
     ca6:	85a6                	mv	a1,s1
     ca8:	8522                	mv	a0,s0
     caa:	3415                	jal	6ce <hard_mul>
     cac:	45a1                	li	a1,8
     cae:	ce2a                	sw	a0,28(sp)
     cb0:	3bad                	jal	a2a <print_hex>
     cb2:	e5890513          	addi	a0,s2,-424 # be58 <bitmap+0x28>
     cb6:	3b09                	jal	9c8 <print_str>
     cb8:	85a6                	mv	a1,s1
     cba:	8522                	mv	a0,s0
     cbc:	3c21                	jal	6d4 <hard_mulh>
     cbe:	45a1                	li	a1,8
     cc0:	cc2a                	sw	a0,24(sp)
     cc2:	33a5                	jal	a2a <print_hex>
     cc4:	e5890513          	addi	a0,s2,-424
     cc8:	3301                	jal	9c8 <print_str>
     cca:	85a6                	mv	a1,s1
     ccc:	8522                	mv	a0,s0
     cce:	3431                	jal	6da <hard_mulhsu>
     cd0:	45a1                	li	a1,8
     cd2:	ca2a                	sw	a0,20(sp)
     cd4:	3b99                	jal	a2a <print_hex>
     cd6:	e5890513          	addi	a0,s2,-424
     cda:	31fd                	jal	9c8 <print_str>
     cdc:	85a6                	mv	a1,s1
     cde:	8522                	mv	a0,s0
     ce0:	3401                	jal	6e0 <hard_mulhu>
     ce2:	45a1                	li	a1,8
     ce4:	c82a                	sw	a0,16(sp)
     ce6:	3391                	jal	a2a <print_hex>
     ce8:	4529                	li	a0,10
     cea:	39d9                	jal	9c0 <print_chr>
     cec:	0000c537          	lui	a0,0xc
     cf0:	e5c50513          	addi	a0,a0,-420 # be5c <bitmap+0x2c>
     cf4:	39d1                	jal	9c8 <print_str>
     cf6:	85a6                	mv	a1,s1
     cf8:	8522                	mv	a0,s0
     cfa:	5ff0a0ef          	jal	ra,baf8 <__mulsi3>
     cfe:	45a1                	li	a1,8
     d00:	c62a                	sw	a0,12(sp)
     d02:	3325                	jal	a2a <print_hex>
     d04:	e5890513          	addi	a0,s2,-424
     d08:	31c1                	jal	9c8 <print_str>
     d0a:	8626                	mv	a2,s1
     d0c:	86da                	mv	a3,s6
     d0e:	8522                	mv	a0,s0
     d10:	85d2                	mv	a1,s4
     d12:	60b0a0ef          	jal	ra,bb1c <__muldi3>
     d16:	8cae                	mv	s9,a1
     d18:	8566                	mv	a0,s9
     d1a:	45a1                	li	a1,8
     d1c:	3339                	jal	a2a <print_hex>
     d1e:	e5890513          	addi	a0,s2,-424
     d22:	315d                	jal	9c8 <print_str>
     d24:	8626                	mv	a2,s1
     d26:	4681                	li	a3,0
     d28:	8522                	mv	a0,s0
     d2a:	85d2                	mv	a1,s4
     d2c:	5f10a0ef          	jal	ra,bb1c <__muldi3>
     d30:	8c2e                	mv	s8,a1
     d32:	8562                	mv	a0,s8
     d34:	45a1                	li	a1,8
     d36:	39d5                	jal	a2a <print_hex>
     d38:	e5890513          	addi	a0,s2,-424
     d3c:	3171                	jal	9c8 <print_str>
     d3e:	8626                	mv	a2,s1
     d40:	4681                	li	a3,0
     d42:	8522                	mv	a0,s0
     d44:	4581                	li	a1,0
     d46:	5d70a0ef          	jal	ra,bb1c <__muldi3>
     d4a:	8bae                	mv	s7,a1
     d4c:	855e                	mv	a0,s7
     d4e:	45a1                	li	a1,8
     d50:	39e9                	jal	a2a <print_hex>
     d52:	e5890513          	addi	a0,s2,-424
     d56:	398d                	jal	9c8 <print_str>
     d58:	48b2                	lw	a7,12(sp)
     d5a:	4372                	lw	t1,28(sp)
     d5c:	01131b63          	bne	t1,a7,d72 <multest+0x160>
     d60:	4862                	lw	a6,24(sp)
     d62:	01981863          	bne	a6,s9,d72 <multest+0x160>
     d66:	4752                	lw	a4,20(sp)
     d68:	01871563          	bne	a4,s8,d72 <multest+0x160>
     d6c:	47c2                	lw	a5,16(sp)
     d6e:	05778e63          	beq	a5,s7,dca <multest+0x1b8>
     d72:	0000c537          	lui	a0,0xc
     d76:	e6850513          	addi	a0,a0,-408 # be68 <bitmap+0x38>
     d7a:	31b9                	jal	9c8 <print_str>
     d7c:	9002                	ebreak
     d7e:	40f6                	lw	ra,92(sp)
     d80:	4466                	lw	s0,88(sp)
     d82:	44d6                	lw	s1,84(sp)
     d84:	4946                	lw	s2,80(sp)
     d86:	49b6                	lw	s3,76(sp)
     d88:	4a26                	lw	s4,72(sp)
     d8a:	4a96                	lw	s5,68(sp)
     d8c:	4b06                	lw	s6,64(sp)
     d8e:	5bf2                	lw	s7,60(sp)
     d90:	5c62                	lw	s8,56(sp)
     d92:	5cd2                	lw	s9,52(sp)
     d94:	5d42                	lw	s10,48(sp)
     d96:	5db2                	lw	s11,44(sp)
     d98:	6125                	addi	sp,sp,96
     d9a:	8082                	ret
     d9c:	4789                	li	a5,2
     d9e:	00f98b63          	beq	s3,a5,db4 <multest+0x1a2>
     da2:	478d                	li	a5,3
     da4:	eaf998e3          	bne	s3,a5,c54 <multest+0x42>
     da8:	800007b7          	lui	a5,0x80000
     dac:	fff7c793          	not	a5,a5
     db0:	8c7d                	and	s0,s0,a5
     db2:	a019                	j	db8 <multest+0x1a6>
     db4:	01b46433          	or	s0,s0,s11
     db8:	4481                	li	s1,0
     dba:	bd69                	j	c54 <multest+0x42>
     dbc:	4481                	li	s1,0
     dbe:	4401                	li	s0,0
     dc0:	bd51                	j	c54 <multest+0x42>
     dc2:	54fd                	li	s1,-1
     dc4:	80000437          	lui	s0,0x80000
     dc8:	b571                	j	c54 <multest+0x42>
     dca:	e1cd0513          	addi	a0,s10,-484 # be1c <ext_irq_4_count.1034+0x6c>
     dce:	3eed                	jal	9c8 <print_str>
     dd0:	0000c537          	lui	a0,0xc
     dd4:	e7050513          	addi	a0,a0,-400 # be70 <bitmap+0x40>
     dd8:	3ec5                	jal	9c8 <print_str>
     dda:	85a6                	mv	a1,s1
     ddc:	8522                	mv	a0,s0
     dde:	909ff0ef          	jal	ra,6e6 <hard_div>
     de2:	45a1                	li	a1,8
     de4:	c62a                	sw	a0,12(sp)
     de6:	3191                	jal	a2a <print_hex>
     de8:	e5890513          	addi	a0,s2,-424
     dec:	3ef1                	jal	9c8 <print_str>
     dee:	85a6                	mv	a1,s1
     df0:	8522                	mv	a0,s0
     df2:	8fbff0ef          	jal	ra,6ec <hard_divu>
     df6:	45a1                	li	a1,8
     df8:	c82a                	sw	a0,16(sp)
     dfa:	3905                	jal	a2a <print_hex>
     dfc:	e5890513          	addi	a0,s2,-424
     e00:	36e1                	jal	9c8 <print_str>
     e02:	85a6                	mv	a1,s1
     e04:	8522                	mv	a0,s0
     e06:	8edff0ef          	jal	ra,6f2 <hard_rem>
     e0a:	45a1                	li	a1,8
     e0c:	ca2a                	sw	a0,20(sp)
     e0e:	3931                	jal	a2a <print_hex>
     e10:	e5890513          	addi	a0,s2,-424
     e14:	3e55                	jal	9c8 <print_str>
     e16:	85a6                	mv	a1,s1
     e18:	8522                	mv	a0,s0
     e1a:	8dfff0ef          	jal	ra,6f8 <hard_remu>
     e1e:	45a1                	li	a1,8
     e20:	cc2a                	sw	a0,24(sp)
     e22:	3121                	jal	a2a <print_hex>
     e24:	4529                	li	a0,10
     e26:	3e69                	jal	9c0 <print_chr>
     e28:	0000c537          	lui	a0,0xc
     e2c:	e7c50513          	addi	a0,a0,-388 # be7c <bitmap+0x4c>
     e30:	3e61                	jal	9c8 <print_str>
     e32:	5cfd                	li	s9,-1
     e34:	c881                	beqz	s1,e44 <multest+0x232>
     e36:	8626                	mv	a2,s1
     e38:	86da                	mv	a3,s6
     e3a:	8522                	mv	a0,s0
     e3c:	85d2                	mv	a1,s4
     e3e:	39f090ef          	jal	ra,a9dc <__divdi3>
     e42:	8caa                	mv	s9,a0
     e44:	45a1                	li	a1,8
     e46:	8566                	mv	a0,s9
     e48:	36cd                	jal	a2a <print_hex>
     e4a:	e58a8513          	addi	a0,s5,-424
     e4e:	3ead                	jal	9c8 <print_str>
     e50:	5c7d                	li	s8,-1
     e52:	c881                	beqz	s1,e62 <multest+0x250>
     e54:	8626                	mv	a2,s1
     e56:	4681                	li	a3,0
     e58:	8522                	mv	a0,s0
     e5a:	4581                	li	a1,0
     e5c:	4580a0ef          	jal	ra,b2b4 <__udivdi3>
     e60:	8c2a                	mv	s8,a0
     e62:	45a1                	li	a1,8
     e64:	8562                	mv	a0,s8
     e66:	36d1                	jal	a2a <print_hex>
     e68:	e58a8513          	addi	a0,s5,-424
     e6c:	3eb1                	jal	9c8 <print_str>
     e6e:	8ba2                	mv	s7,s0
     e70:	c881                	beqz	s1,e80 <multest+0x26e>
     e72:	8626                	mv	a2,s1
     e74:	86da                	mv	a3,s6
     e76:	8522                	mv	a0,s0
     e78:	85d2                	mv	a1,s4
     e7a:	7e3090ef          	jal	ra,ae5c <__moddi3>
     e7e:	8baa                	mv	s7,a0
     e80:	855e                	mv	a0,s7
     e82:	45a1                	li	a1,8
     e84:	365d                	jal	a2a <print_hex>
     e86:	e58a8513          	addi	a0,s5,-424
     e8a:	3e3d                	jal	9c8 <print_str>
     e8c:	c881                	beqz	s1,e9c <multest+0x28a>
     e8e:	8522                	mv	a0,s0
     e90:	8626                	mv	a2,s1
     e92:	4681                	li	a3,0
     e94:	4581                	li	a1,0
     e96:	0530a0ef          	jal	ra,b6e8 <__umoddi3>
     e9a:	842a                	mv	s0,a0
     e9c:	45a1                	li	a1,8
     e9e:	8522                	mv	a0,s0
     ea0:	3669                	jal	a2a <print_hex>
     ea2:	e58a8513          	addi	a0,s5,-424
     ea6:	360d                	jal	9c8 <print_str>
     ea8:	47b2                	lw	a5,12(sp)
     eaa:	ecfc94e3          	bne	s9,a5,d72 <multest+0x160>
     eae:	47c2                	lw	a5,16(sp)
     eb0:	ecfc11e3          	bne	s8,a5,d72 <multest+0x160>
     eb4:	47d2                	lw	a5,20(sp)
     eb6:	eafb9ee3          	bne	s7,a5,d72 <multest+0x160>
     eba:	47e2                	lw	a5,24(sp)
     ebc:	eaf41be3          	bne	s0,a5,d72 <multest+0x160>
     ec0:	e1cd0513          	addi	a0,s10,-484
     ec4:	3611                	jal	9c8 <print_str>
     ec6:	0985                	addi	s3,s3,1
     ec8:	47bd                	li	a5,15
     eca:	d6f99ae3          	bne	s3,a5,c3e <multest+0x2c>
     ece:	bd45                	j	d7e <multest+0x16c>

00000ed0 <stats_print_dec>:
     ed0:	7139                	addi	sp,sp,-64
     ed2:	d64e                	sw	s3,44(sp)
     ed4:	d452                	sw	s4,40(sp)
     ed6:	de06                	sw	ra,60(sp)
     ed8:	dc22                	sw	s0,56(sp)
     eda:	da26                	sw	s1,52(sp)
     edc:	d84a                	sw	s2,48(sp)
     ede:	d256                	sw	s5,36(sp)
     ee0:	89aa                	mv	s3,a0
     ee2:	8a2e                	mv	s4,a1
     ee4:	03000793          	li	a5,48
     ee8:	e219                	bnez	a2,eee <stats_print_dec+0x1e>
     eea:	02000793          	li	a5,32
     eee:	848a                	mv	s1,sp
     ef0:	0ff7f913          	andi	s2,a5,255
     ef4:	8aa6                	mv	s5,s1
     ef6:	8426                	mv	s0,s1
     ef8:	02099363          	bnez	s3,f1e <stats_print_dec+0x4e>
     efc:	05404163          	bgtz	s4,f3e <stats_print_dec+0x6e>
     f00:	02000493          	li	s1,32
     f04:	02e00913          	li	s2,46
     f08:	03541e63          	bne	s0,s5,f44 <stats_print_dec+0x74>
     f0c:	50f2                	lw	ra,60(sp)
     f0e:	5462                	lw	s0,56(sp)
     f10:	54d2                	lw	s1,52(sp)
     f12:	5942                	lw	s2,48(sp)
     f14:	59b2                	lw	s3,44(sp)
     f16:	5a22                	lw	s4,40(sp)
     f18:	5a92                	lw	s5,36(sp)
     f1a:	6121                	addi	sp,sp,64
     f1c:	8082                	ret
     f1e:	45a9                	li	a1,10
     f20:	854e                	mv	a0,s3
     f22:	4bb0a0ef          	jal	ra,bbdc <__umodsi3>
     f26:	03050513          	addi	a0,a0,48
     f2a:	00a48023          	sb	a0,0(s1)
     f2e:	854e                	mv	a0,s3
     f30:	45a9                	li	a1,10
     f32:	4630a0ef          	jal	ra,bb94 <__udivsi3>
     f36:	89aa                	mv	s3,a0
     f38:	1a7d                	addi	s4,s4,-1
     f3a:	0485                	addi	s1,s1,1
     f3c:	bf6d                	j	ef6 <stats_print_dec+0x26>
     f3e:	01248023          	sb	s2,0(s1)
     f42:	b7f5                	j	f2e <stats_print_dec+0x5e>
     f44:	fff44783          	lbu	a5,-1(s0) # 7fffffff <end+0x7fff3f27>
     f48:	00979863          	bne	a5,s1,f58 <stats_print_dec+0x88>
     f4c:	ffe44783          	lbu	a5,-2(s0)
     f50:	00979463          	bne	a5,s1,f58 <stats_print_dec+0x88>
     f54:	ff240fa3          	sb	s2,-1(s0)
     f58:	147d                	addi	s0,s0,-1
     f5a:	00044503          	lbu	a0,0(s0)
     f5e:	a63ff0ef          	jal	ra,9c0 <print_chr>
     f62:	b75d                	j	f08 <stats_print_dec+0x38>

00000f64 <stats>:
     f64:	1141                	addi	sp,sp,-16
     f66:	c606                	sw	ra,12(sp)
     f68:	c422                	sw	s0,8(sp)
     f6a:	c226                	sw	s1,4(sp)
     f6c:	c0002473          	rdcycle	s0
     f70:	c02024f3          	rdinstret	s1
     f74:	0000c537          	lui	a0,0xc
     f78:	e8c50513          	addi	a0,a0,-372 # be8c <x.1033+0x4>
     f7c:	a4dff0ef          	jal	ra,9c8 <print_str>
     f80:	4601                	li	a2,0
     f82:	45a1                	li	a1,8
     f84:	8522                	mv	a0,s0
     f86:	37a9                	jal	ed0 <stats_print_dec>
     f88:	0000c537          	lui	a0,0xc
     f8c:	ea450513          	addi	a0,a0,-348 # bea4 <x.1033+0x1c>
     f90:	a39ff0ef          	jal	ra,9c8 <print_str>
     f94:	4601                	li	a2,0
     f96:	45a1                	li	a1,8
     f98:	8526                	mv	a0,s1
     f9a:	3f1d                	jal	ed0 <stats_print_dec>
     f9c:	0000c537          	lui	a0,0xc
     fa0:	ebc50513          	addi	a0,a0,-324 # bebc <x.1033+0x34>
     fa4:	a25ff0ef          	jal	ra,9c8 <print_str>
     fa8:	85a6                	mv	a1,s1
     faa:	8522                	mv	a0,s0
     fac:	3e90a0ef          	jal	ra,bb94 <__udivsi3>
     fb0:	4601                	li	a2,0
     fb2:	4581                	li	a1,0
     fb4:	3f31                	jal	ed0 <stats_print_dec>
     fb6:	0000c537          	lui	a0,0xc
     fba:	ec450513          	addi	a0,a0,-316 # bec4 <x.1033+0x3c>
     fbe:	a0bff0ef          	jal	ra,9c8 <print_str>
     fc2:	00141513          	slli	a0,s0,0x1
     fc6:	9522                	add	a0,a0,s0
     fc8:	050e                	slli	a0,a0,0x3
     fca:	9522                	add	a0,a0,s0
     fcc:	85a6                	mv	a1,s1
     fce:	050a                	slli	a0,a0,0x2
     fd0:	3c50a0ef          	jal	ra,bb94 <__udivsi3>
     fd4:	06400593          	li	a1,100
     fd8:	4050a0ef          	jal	ra,bbdc <__umodsi3>
     fdc:	4605                	li	a2,1
     fde:	4589                	li	a1,2
     fe0:	3dc5                	jal	ed0 <stats_print_dec>
     fe2:	4422                	lw	s0,8(sp)
     fe4:	40b2                	lw	ra,12(sp)
     fe6:	4492                	lw	s1,4(sp)
     fe8:	0000c537          	lui	a0,0xc
     fec:	ccc50513          	addi	a0,a0,-820 # bccc <__modsi3+0xbc>
     ff0:	0141                	addi	sp,sp,16
     ff2:	9d7ff06f          	j	9c8 <print_str>
	...

00000ff8 <add>:
     ff8:	00001537          	lui	a0,0x1
     ffc:	01850513          	addi	a0,a0,24 # 1018 <.test_name>
    1000:	10000637          	lui	a2,0x10000

00001004 <.prname_next>:
    1004:	00050583          	lb	a1,0(a0)
    1008:	00058a63          	beqz	a1,101c <.prname_done>
    100c:	00b62023          	sw	a1,0(a2) # 10000000 <end+0xfff3f28>
    1010:	00150513          	addi	a0,a0,1
    1014:	ff1ff06f          	j	1004 <.prname_next>

00001018 <.test_name>:
    1018:	6461                	lui	s0,0x18
    101a:	0064                	addi	s1,sp,12

0000101c <.prname_done>:
    101c:	02e00593          	li	a1,46
    1020:	00b62023          	sw	a1,0(a2)
    1024:	00b62023          	sw	a1,0(a2)

00001028 <test_2>:
    1028:	00000093          	li	ra,0
    102c:	00000113          	li	sp,0
    1030:	002081b3          	add	gp,ra,sp
    1034:	00000e93          	li	t4,0
    1038:	00200e13          	li	t3,2
    103c:	4dd19663          	bne	gp,t4,1508 <fail>

00001040 <test_3>:
    1040:	00100093          	li	ra,1
    1044:	00100113          	li	sp,1
    1048:	002081b3          	add	gp,ra,sp
    104c:	00200e93          	li	t4,2
    1050:	00300e13          	li	t3,3
    1054:	4bd19a63          	bne	gp,t4,1508 <fail>

00001058 <test_4>:
    1058:	00300093          	li	ra,3
    105c:	00700113          	li	sp,7
    1060:	002081b3          	add	gp,ra,sp
    1064:	00a00e93          	li	t4,10
    1068:	00400e13          	li	t3,4
    106c:	49d19e63          	bne	gp,t4,1508 <fail>

00001070 <test_5>:
    1070:	00000093          	li	ra,0
    1074:	ffff8137          	lui	sp,0xffff8
    1078:	002081b3          	add	gp,ra,sp
    107c:	ffff8eb7          	lui	t4,0xffff8
    1080:	00500e13          	li	t3,5
    1084:	49d19263          	bne	gp,t4,1508 <fail>

00001088 <test_6>:
    1088:	800000b7          	lui	ra,0x80000
    108c:	00000113          	li	sp,0
    1090:	002081b3          	add	gp,ra,sp
    1094:	80000eb7          	lui	t4,0x80000
    1098:	00600e13          	li	t3,6
    109c:	47d19663          	bne	gp,t4,1508 <fail>

000010a0 <test_7>:
    10a0:	800000b7          	lui	ra,0x80000
    10a4:	ffff8137          	lui	sp,0xffff8
    10a8:	002081b3          	add	gp,ra,sp
    10ac:	7fff8eb7          	lui	t4,0x7fff8
    10b0:	00700e13          	li	t3,7
    10b4:	45d19a63          	bne	gp,t4,1508 <fail>

000010b8 <test_8>:
    10b8:	00000093          	li	ra,0
    10bc:	00008137          	lui	sp,0x8
    10c0:	fff10113          	addi	sp,sp,-1 # 7fff <test_26+0x13>
    10c4:	002081b3          	add	gp,ra,sp
    10c8:	00008eb7          	lui	t4,0x8
    10cc:	fffe8e93          	addi	t4,t4,-1 # 7fff <test_26+0x13>
    10d0:	00800e13          	li	t3,8
    10d4:	43d19a63          	bne	gp,t4,1508 <fail>

000010d8 <test_9>:
    10d8:	800000b7          	lui	ra,0x80000
    10dc:	fff08093          	addi	ra,ra,-1 # 7fffffff <end+0x7fff3f27>
    10e0:	00000113          	li	sp,0
    10e4:	002081b3          	add	gp,ra,sp
    10e8:	80000eb7          	lui	t4,0x80000
    10ec:	fffe8e93          	addi	t4,t4,-1 # 7fffffff <end+0x7fff3f27>
    10f0:	00900e13          	li	t3,9
    10f4:	41d19a63          	bne	gp,t4,1508 <fail>

000010f8 <test_10>:
    10f8:	800000b7          	lui	ra,0x80000
    10fc:	fff08093          	addi	ra,ra,-1 # 7fffffff <end+0x7fff3f27>
    1100:	00008137          	lui	sp,0x8
    1104:	fff10113          	addi	sp,sp,-1 # 7fff <test_26+0x13>
    1108:	002081b3          	add	gp,ra,sp
    110c:	80008eb7          	lui	t4,0x80008
    1110:	ffee8e93          	addi	t4,t4,-2 # 80007ffe <end+0x7fffbf26>
    1114:	00a00e13          	li	t3,10
    1118:	3fd19863          	bne	gp,t4,1508 <fail>

0000111c <test_11>:
    111c:	800000b7          	lui	ra,0x80000
    1120:	00008137          	lui	sp,0x8
    1124:	fff10113          	addi	sp,sp,-1 # 7fff <test_26+0x13>
    1128:	002081b3          	add	gp,ra,sp
    112c:	80008eb7          	lui	t4,0x80008
    1130:	fffe8e93          	addi	t4,t4,-1 # 80007fff <end+0x7fffbf27>
    1134:	00b00e13          	li	t3,11
    1138:	3dd19863          	bne	gp,t4,1508 <fail>

0000113c <test_12>:
    113c:	800000b7          	lui	ra,0x80000
    1140:	fff08093          	addi	ra,ra,-1 # 7fffffff <end+0x7fff3f27>
    1144:	ffff8137          	lui	sp,0xffff8
    1148:	002081b3          	add	gp,ra,sp
    114c:	7fff8eb7          	lui	t4,0x7fff8
    1150:	fffe8e93          	addi	t4,t4,-1 # 7fff7fff <end+0x7ffebf27>
    1154:	00c00e13          	li	t3,12
    1158:	3bd19863          	bne	gp,t4,1508 <fail>

0000115c <test_13>:
    115c:	00000093          	li	ra,0
    1160:	fff00113          	li	sp,-1
    1164:	002081b3          	add	gp,ra,sp
    1168:	fff00e93          	li	t4,-1
    116c:	00d00e13          	li	t3,13
    1170:	39d19c63          	bne	gp,t4,1508 <fail>

00001174 <test_14>:
    1174:	fff00093          	li	ra,-1
    1178:	00100113          	li	sp,1
    117c:	002081b3          	add	gp,ra,sp
    1180:	00000e93          	li	t4,0
    1184:	00e00e13          	li	t3,14
    1188:	39d19063          	bne	gp,t4,1508 <fail>

0000118c <test_15>:
    118c:	fff00093          	li	ra,-1
    1190:	fff00113          	li	sp,-1
    1194:	002081b3          	add	gp,ra,sp
    1198:	ffe00e93          	li	t4,-2
    119c:	00f00e13          	li	t3,15
    11a0:	37d19463          	bne	gp,t4,1508 <fail>

000011a4 <test_16>:
    11a4:	00100093          	li	ra,1
    11a8:	80000137          	lui	sp,0x80000
    11ac:	fff10113          	addi	sp,sp,-1 # 7fffffff <end+0x7fff3f27>
    11b0:	002081b3          	add	gp,ra,sp
    11b4:	80000eb7          	lui	t4,0x80000
    11b8:	01000e13          	li	t3,16
    11bc:	35d19663          	bne	gp,t4,1508 <fail>

000011c0 <test_17>:
    11c0:	00d00093          	li	ra,13
    11c4:	00b00113          	li	sp,11
    11c8:	002080b3          	add	ra,ra,sp
    11cc:	01800e93          	li	t4,24
    11d0:	01100e13          	li	t3,17
    11d4:	33d09a63          	bne	ra,t4,1508 <fail>

000011d8 <test_18>:
    11d8:	00e00093          	li	ra,14
    11dc:	00b00113          	li	sp,11
    11e0:	00208133          	add	sp,ra,sp
    11e4:	01900e93          	li	t4,25
    11e8:	01200e13          	li	t3,18
    11ec:	31d11e63          	bne	sp,t4,1508 <fail>

000011f0 <test_19>:
    11f0:	00d00093          	li	ra,13
    11f4:	001080b3          	add	ra,ra,ra
    11f8:	01a00e93          	li	t4,26
    11fc:	01300e13          	li	t3,19
    1200:	31d09463          	bne	ra,t4,1508 <fail>

00001204 <test_20>:
    1204:	00000213          	li	tp,0
    1208:	00d00093          	li	ra,13
    120c:	00b00113          	li	sp,11
    1210:	002081b3          	add	gp,ra,sp
    1214:	00018313          	mv	t1,gp
    1218:	00120213          	addi	tp,tp,1 # 1 <reset_vec+0x1>
    121c:	00200293          	li	t0,2
    1220:	fe5214e3          	bne	tp,t0,1208 <test_20+0x4>
    1224:	01800e93          	li	t4,24
    1228:	01400e13          	li	t3,20
    122c:	2dd31e63          	bne	t1,t4,1508 <fail>

00001230 <test_21>:
    1230:	00000213          	li	tp,0
    1234:	00e00093          	li	ra,14
    1238:	00b00113          	li	sp,11
    123c:	002081b3          	add	gp,ra,sp
    1240:	00000013          	nop
    1244:	00018313          	mv	t1,gp
    1248:	00120213          	addi	tp,tp,1 # 1 <reset_vec+0x1>
    124c:	00200293          	li	t0,2
    1250:	fe5212e3          	bne	tp,t0,1234 <test_21+0x4>
    1254:	01900e93          	li	t4,25
    1258:	01500e13          	li	t3,21
    125c:	2bd31663          	bne	t1,t4,1508 <fail>

00001260 <test_22>:
    1260:	00000213          	li	tp,0
    1264:	00f00093          	li	ra,15
    1268:	00b00113          	li	sp,11
    126c:	002081b3          	add	gp,ra,sp
    1270:	00000013          	nop
    1274:	00000013          	nop
    1278:	00018313          	mv	t1,gp
    127c:	00120213          	addi	tp,tp,1 # 1 <reset_vec+0x1>
    1280:	00200293          	li	t0,2
    1284:	fe5210e3          	bne	tp,t0,1264 <test_22+0x4>
    1288:	01a00e93          	li	t4,26
    128c:	01600e13          	li	t3,22
    1290:	27d31c63          	bne	t1,t4,1508 <fail>

00001294 <test_23>:
    1294:	00000213          	li	tp,0
    1298:	00d00093          	li	ra,13
    129c:	00b00113          	li	sp,11
    12a0:	002081b3          	add	gp,ra,sp
    12a4:	00120213          	addi	tp,tp,1 # 1 <reset_vec+0x1>
    12a8:	00200293          	li	t0,2
    12ac:	fe5216e3          	bne	tp,t0,1298 <test_23+0x4>
    12b0:	01800e93          	li	t4,24
    12b4:	01700e13          	li	t3,23
    12b8:	25d19863          	bne	gp,t4,1508 <fail>

000012bc <test_24>:
    12bc:	00000213          	li	tp,0
    12c0:	00e00093          	li	ra,14
    12c4:	00b00113          	li	sp,11
    12c8:	00000013          	nop
    12cc:	002081b3          	add	gp,ra,sp
    12d0:	00120213          	addi	tp,tp,1 # 1 <reset_vec+0x1>
    12d4:	00200293          	li	t0,2
    12d8:	fe5214e3          	bne	tp,t0,12c0 <test_24+0x4>
    12dc:	01900e93          	li	t4,25
    12e0:	01800e13          	li	t3,24
    12e4:	23d19263          	bne	gp,t4,1508 <fail>

000012e8 <test_25>:
    12e8:	00000213          	li	tp,0
    12ec:	00f00093          	li	ra,15
    12f0:	00b00113          	li	sp,11
    12f4:	00000013          	nop
    12f8:	00000013          	nop
    12fc:	002081b3          	add	gp,ra,sp
    1300:	00120213          	addi	tp,tp,1 # 1 <reset_vec+0x1>
    1304:	00200293          	li	t0,2
    1308:	fe5212e3          	bne	tp,t0,12ec <test_25+0x4>
    130c:	01a00e93          	li	t4,26
    1310:	01900e13          	li	t3,25
    1314:	1fd19a63          	bne	gp,t4,1508 <fail>

00001318 <test_26>:
    1318:	00000213          	li	tp,0
    131c:	00d00093          	li	ra,13
    1320:	00000013          	nop
    1324:	00b00113          	li	sp,11
    1328:	002081b3          	add	gp,ra,sp
    132c:	00120213          	addi	tp,tp,1 # 1 <reset_vec+0x1>
    1330:	00200293          	li	t0,2
    1334:	fe5214e3          	bne	tp,t0,131c <test_26+0x4>
    1338:	01800e93          	li	t4,24
    133c:	01a00e13          	li	t3,26
    1340:	1dd19463          	bne	gp,t4,1508 <fail>

00001344 <test_27>:
    1344:	00000213          	li	tp,0
    1348:	00e00093          	li	ra,14
    134c:	00000013          	nop
    1350:	00b00113          	li	sp,11
    1354:	00000013          	nop
    1358:	002081b3          	add	gp,ra,sp
    135c:	00120213          	addi	tp,tp,1 # 1 <reset_vec+0x1>
    1360:	00200293          	li	t0,2
    1364:	fe5212e3          	bne	tp,t0,1348 <test_27+0x4>
    1368:	01900e93          	li	t4,25
    136c:	01b00e13          	li	t3,27
    1370:	19d19c63          	bne	gp,t4,1508 <fail>

00001374 <test_28>:
    1374:	00000213          	li	tp,0
    1378:	00f00093          	li	ra,15
    137c:	00000013          	nop
    1380:	00000013          	nop
    1384:	00b00113          	li	sp,11
    1388:	002081b3          	add	gp,ra,sp
    138c:	00120213          	addi	tp,tp,1 # 1 <reset_vec+0x1>
    1390:	00200293          	li	t0,2
    1394:	fe5212e3          	bne	tp,t0,1378 <test_28+0x4>
    1398:	01a00e93          	li	t4,26
    139c:	01c00e13          	li	t3,28
    13a0:	17d19463          	bne	gp,t4,1508 <fail>

000013a4 <test_29>:
    13a4:	00000213          	li	tp,0
    13a8:	00b00113          	li	sp,11
    13ac:	00d00093          	li	ra,13
    13b0:	002081b3          	add	gp,ra,sp
    13b4:	00120213          	addi	tp,tp,1 # 1 <reset_vec+0x1>
    13b8:	00200293          	li	t0,2
    13bc:	fe5216e3          	bne	tp,t0,13a8 <test_29+0x4>
    13c0:	01800e93          	li	t4,24
    13c4:	01d00e13          	li	t3,29
    13c8:	15d19063          	bne	gp,t4,1508 <fail>

000013cc <test_30>:
    13cc:	00000213          	li	tp,0
    13d0:	00b00113          	li	sp,11
    13d4:	00e00093          	li	ra,14
    13d8:	00000013          	nop
    13dc:	002081b3          	add	gp,ra,sp
    13e0:	00120213          	addi	tp,tp,1 # 1 <reset_vec+0x1>
    13e4:	00200293          	li	t0,2
    13e8:	fe5214e3          	bne	tp,t0,13d0 <test_30+0x4>
    13ec:	01900e93          	li	t4,25
    13f0:	01e00e13          	li	t3,30
    13f4:	11d19a63          	bne	gp,t4,1508 <fail>

000013f8 <test_31>:
    13f8:	00000213          	li	tp,0
    13fc:	00b00113          	li	sp,11
    1400:	00f00093          	li	ra,15
    1404:	00000013          	nop
    1408:	00000013          	nop
    140c:	002081b3          	add	gp,ra,sp
    1410:	00120213          	addi	tp,tp,1 # 1 <reset_vec+0x1>
    1414:	00200293          	li	t0,2
    1418:	fe5212e3          	bne	tp,t0,13fc <test_31+0x4>
    141c:	01a00e93          	li	t4,26
    1420:	01f00e13          	li	t3,31
    1424:	0fd19263          	bne	gp,t4,1508 <fail>

00001428 <test_32>:
    1428:	00000213          	li	tp,0
    142c:	00b00113          	li	sp,11
    1430:	00000013          	nop
    1434:	00d00093          	li	ra,13
    1438:	002081b3          	add	gp,ra,sp
    143c:	00120213          	addi	tp,tp,1 # 1 <reset_vec+0x1>
    1440:	00200293          	li	t0,2
    1444:	fe5214e3          	bne	tp,t0,142c <test_32+0x4>
    1448:	01800e93          	li	t4,24
    144c:	02000e13          	li	t3,32
    1450:	0bd19c63          	bne	gp,t4,1508 <fail>

00001454 <test_33>:
    1454:	00000213          	li	tp,0
    1458:	00b00113          	li	sp,11
    145c:	00000013          	nop
    1460:	00e00093          	li	ra,14
    1464:	00000013          	nop
    1468:	002081b3          	add	gp,ra,sp
    146c:	00120213          	addi	tp,tp,1 # 1 <reset_vec+0x1>
    1470:	00200293          	li	t0,2
    1474:	fe5212e3          	bne	tp,t0,1458 <test_33+0x4>
    1478:	01900e93          	li	t4,25
    147c:	02100e13          	li	t3,33
    1480:	09d19463          	bne	gp,t4,1508 <fail>

00001484 <test_34>:
    1484:	00000213          	li	tp,0
    1488:	00b00113          	li	sp,11
    148c:	00000013          	nop
    1490:	00000013          	nop
    1494:	00f00093          	li	ra,15
    1498:	002081b3          	add	gp,ra,sp
    149c:	00120213          	addi	tp,tp,1 # 1 <reset_vec+0x1>
    14a0:	00200293          	li	t0,2
    14a4:	fe5212e3          	bne	tp,t0,1488 <test_34+0x4>
    14a8:	01a00e93          	li	t4,26
    14ac:	02200e13          	li	t3,34
    14b0:	05d19c63          	bne	gp,t4,1508 <fail>

000014b4 <test_35>:
    14b4:	00f00093          	li	ra,15
    14b8:	00100133          	add	sp,zero,ra
    14bc:	00f00e93          	li	t4,15
    14c0:	02300e13          	li	t3,35
    14c4:	05d11263          	bne	sp,t4,1508 <fail>

000014c8 <test_36>:
    14c8:	02000093          	li	ra,32
    14cc:	00008133          	add	sp,ra,zero
    14d0:	02000e93          	li	t4,32
    14d4:	02400e13          	li	t3,36
    14d8:	03d11863          	bne	sp,t4,1508 <fail>

000014dc <test_37>:
    14dc:	000000b3          	add	ra,zero,zero
    14e0:	00000e93          	li	t4,0
    14e4:	02500e13          	li	t3,37
    14e8:	03d09063          	bne	ra,t4,1508 <fail>

000014ec <test_38>:
    14ec:	01000093          	li	ra,16
    14f0:	01e00113          	li	sp,30
    14f4:	00208033          	add	zero,ra,sp
    14f8:	00000e93          	li	t4,0
    14fc:	02600e13          	li	t3,38
    1500:	01d01463          	bne	zero,t4,1508 <fail>
    1504:	03c01a63          	bne	zero,t3,1538 <pass>

00001508 <fail>:
    1508:	10000537          	lui	a0,0x10000
    150c:	04500593          	li	a1,69
    1510:	05200613          	li	a2,82
    1514:	04f00693          	li	a3,79
    1518:	00a00713          	li	a4,10
    151c:	00b52023          	sw	a1,0(a0) # 10000000 <end+0xfff3f28>
    1520:	00c52023          	sw	a2,0(a0)
    1524:	00c52023          	sw	a2,0(a0)
    1528:	00d52023          	sw	a3,0(a0)
    152c:	00c52023          	sw	a2,0(a0)
    1530:	00e52023          	sw	a4,0(a0)
    1534:	00100073          	ebreak

00001538 <pass>:
    1538:	10000537          	lui	a0,0x10000
    153c:	04f00593          	li	a1,79
    1540:	04b00613          	li	a2,75
    1544:	00a00693          	li	a3,10
    1548:	00b52023          	sw	a1,0(a0) # 10000000 <end+0xfff3f28>
    154c:	00c52023          	sw	a2,0(a0)
    1550:	00d52023          	sw	a3,0(a0)
    1554:	860ff06f          	j	5b4 <add_ret>

00001558 <addi>:
    1558:	00001537          	lui	a0,0x1
    155c:	57850513          	addi	a0,a0,1400 # 1578 <.test_name>
    1560:	10000637          	lui	a2,0x10000

00001564 <.prname_next>:
    1564:	00050583          	lb	a1,0(a0)
    1568:	00058c63          	beqz	a1,1580 <.prname_done>
    156c:	00b62023          	sw	a1,0(a2) # 10000000 <end+0xfff3f28>
    1570:	00150513          	addi	a0,a0,1
    1574:	ff1ff06f          	j	1564 <.prname_next>

00001578 <.test_name>:
    1578:	6461                	lui	s0,0x18
    157a:	6964                	flw	fs1,84(a0)
    157c:	0000                	unimp
	...

00001580 <.prname_done>:
    1580:	02e00593          	li	a1,46
    1584:	00b62023          	sw	a1,0(a2)
    1588:	00b62023          	sw	a1,0(a2)

0000158c <test_2>:
    158c:	00000093          	li	ra,0
    1590:	00008193          	mv	gp,ra
    1594:	00000e93          	li	t4,0
    1598:	00200e13          	li	t3,2
    159c:	27d19c63          	bne	gp,t4,1814 <fail>

000015a0 <test_3>:
    15a0:	00100093          	li	ra,1
    15a4:	00108193          	addi	gp,ra,1
    15a8:	00200e93          	li	t4,2
    15ac:	00300e13          	li	t3,3
    15b0:	27d19263          	bne	gp,t4,1814 <fail>

000015b4 <test_4>:
    15b4:	00300093          	li	ra,3
    15b8:	00708193          	addi	gp,ra,7
    15bc:	00a00e93          	li	t4,10
    15c0:	00400e13          	li	t3,4
    15c4:	25d19863          	bne	gp,t4,1814 <fail>

000015c8 <test_5>:
    15c8:	00000093          	li	ra,0
    15cc:	80008193          	addi	gp,ra,-2048
    15d0:	80000e93          	li	t4,-2048
    15d4:	00500e13          	li	t3,5
    15d8:	23d19e63          	bne	gp,t4,1814 <fail>

000015dc <test_6>:
    15dc:	800000b7          	lui	ra,0x80000
    15e0:	00008193          	mv	gp,ra
    15e4:	80000eb7          	lui	t4,0x80000
    15e8:	00600e13          	li	t3,6
    15ec:	23d19463          	bne	gp,t4,1814 <fail>

000015f0 <test_7>:
    15f0:	800000b7          	lui	ra,0x80000
    15f4:	80008193          	addi	gp,ra,-2048 # 7ffff800 <end+0x7fff3728>
    15f8:	80000eb7          	lui	t4,0x80000
    15fc:	800e8e93          	addi	t4,t4,-2048 # 7ffff800 <end+0x7fff3728>
    1600:	00700e13          	li	t3,7
    1604:	21d19863          	bne	gp,t4,1814 <fail>

00001608 <test_8>:
    1608:	00000093          	li	ra,0
    160c:	7ff08193          	addi	gp,ra,2047
    1610:	7ff00e93          	li	t4,2047
    1614:	00800e13          	li	t3,8
    1618:	1fd19e63          	bne	gp,t4,1814 <fail>

0000161c <test_9>:
    161c:	800000b7          	lui	ra,0x80000
    1620:	fff08093          	addi	ra,ra,-1 # 7fffffff <end+0x7fff3f27>
    1624:	00008193          	mv	gp,ra
    1628:	80000eb7          	lui	t4,0x80000
    162c:	fffe8e93          	addi	t4,t4,-1 # 7fffffff <end+0x7fff3f27>
    1630:	00900e13          	li	t3,9
    1634:	1fd19063          	bne	gp,t4,1814 <fail>

00001638 <test_10>:
    1638:	800000b7          	lui	ra,0x80000
    163c:	fff08093          	addi	ra,ra,-1 # 7fffffff <end+0x7fff3f27>
    1640:	7ff08193          	addi	gp,ra,2047
    1644:	80000eb7          	lui	t4,0x80000
    1648:	7fee8e93          	addi	t4,t4,2046 # 800007fe <end+0x7fff4726>
    164c:	00a00e13          	li	t3,10
    1650:	1dd19263          	bne	gp,t4,1814 <fail>

00001654 <test_11>:
    1654:	800000b7          	lui	ra,0x80000
    1658:	7ff08193          	addi	gp,ra,2047 # 800007ff <end+0x7fff4727>
    165c:	80000eb7          	lui	t4,0x80000
    1660:	7ffe8e93          	addi	t4,t4,2047 # 800007ff <end+0x7fff4727>
    1664:	00b00e13          	li	t3,11
    1668:	1bd19663          	bne	gp,t4,1814 <fail>

0000166c <test_12>:
    166c:	800000b7          	lui	ra,0x80000
    1670:	fff08093          	addi	ra,ra,-1 # 7fffffff <end+0x7fff3f27>
    1674:	80008193          	addi	gp,ra,-2048
    1678:	7ffffeb7          	lui	t4,0x7ffff
    167c:	7ffe8e93          	addi	t4,t4,2047 # 7ffff7ff <end+0x7fff3727>
    1680:	00c00e13          	li	t3,12
    1684:	19d19863          	bne	gp,t4,1814 <fail>

00001688 <test_13>:
    1688:	00000093          	li	ra,0
    168c:	fff08193          	addi	gp,ra,-1
    1690:	fff00e93          	li	t4,-1
    1694:	00d00e13          	li	t3,13
    1698:	17d19e63          	bne	gp,t4,1814 <fail>

0000169c <test_14>:
    169c:	fff00093          	li	ra,-1
    16a0:	00108193          	addi	gp,ra,1
    16a4:	00000e93          	li	t4,0
    16a8:	00e00e13          	li	t3,14
    16ac:	17d19463          	bne	gp,t4,1814 <fail>

000016b0 <test_15>:
    16b0:	fff00093          	li	ra,-1
    16b4:	fff08193          	addi	gp,ra,-1
    16b8:	ffe00e93          	li	t4,-2
    16bc:	00f00e13          	li	t3,15
    16c0:	15d19a63          	bne	gp,t4,1814 <fail>

000016c4 <test_16>:
    16c4:	800000b7          	lui	ra,0x80000
    16c8:	fff08093          	addi	ra,ra,-1 # 7fffffff <end+0x7fff3f27>
    16cc:	00108193          	addi	gp,ra,1
    16d0:	80000eb7          	lui	t4,0x80000
    16d4:	01000e13          	li	t3,16
    16d8:	13d19e63          	bne	gp,t4,1814 <fail>

000016dc <test_17>:
    16dc:	00d00093          	li	ra,13
    16e0:	00b08093          	addi	ra,ra,11
    16e4:	01800e93          	li	t4,24
    16e8:	01100e13          	li	t3,17
    16ec:	13d09463          	bne	ra,t4,1814 <fail>

000016f0 <test_18>:
    16f0:	00000213          	li	tp,0
    16f4:	00d00093          	li	ra,13
    16f8:	00b08193          	addi	gp,ra,11
    16fc:	00018313          	mv	t1,gp
    1700:	00120213          	addi	tp,tp,1 # 1 <reset_vec+0x1>
    1704:	00200293          	li	t0,2
    1708:	fe5216e3          	bne	tp,t0,16f4 <test_18+0x4>
    170c:	01800e93          	li	t4,24
    1710:	01200e13          	li	t3,18
    1714:	11d31063          	bne	t1,t4,1814 <fail>

00001718 <test_19>:
    1718:	00000213          	li	tp,0
    171c:	00d00093          	li	ra,13
    1720:	00a08193          	addi	gp,ra,10
    1724:	00000013          	nop
    1728:	00018313          	mv	t1,gp
    172c:	00120213          	addi	tp,tp,1 # 1 <reset_vec+0x1>
    1730:	00200293          	li	t0,2
    1734:	fe5214e3          	bne	tp,t0,171c <test_19+0x4>
    1738:	01700e93          	li	t4,23
    173c:	01300e13          	li	t3,19
    1740:	0dd31a63          	bne	t1,t4,1814 <fail>

00001744 <test_20>:
    1744:	00000213          	li	tp,0
    1748:	00d00093          	li	ra,13
    174c:	00908193          	addi	gp,ra,9
    1750:	00000013          	nop
    1754:	00000013          	nop
    1758:	00018313          	mv	t1,gp
    175c:	00120213          	addi	tp,tp,1 # 1 <reset_vec+0x1>
    1760:	00200293          	li	t0,2
    1764:	fe5212e3          	bne	tp,t0,1748 <test_20+0x4>
    1768:	01600e93          	li	t4,22
    176c:	01400e13          	li	t3,20
    1770:	0bd31263          	bne	t1,t4,1814 <fail>

00001774 <test_21>:
    1774:	00000213          	li	tp,0
    1778:	00d00093          	li	ra,13
    177c:	00b08193          	addi	gp,ra,11
    1780:	00120213          	addi	tp,tp,1 # 1 <reset_vec+0x1>
    1784:	00200293          	li	t0,2
    1788:	fe5218e3          	bne	tp,t0,1778 <test_21+0x4>
    178c:	01800e93          	li	t4,24
    1790:	01500e13          	li	t3,21
    1794:	09d19063          	bne	gp,t4,1814 <fail>

00001798 <test_22>:
    1798:	00000213          	li	tp,0
    179c:	00d00093          	li	ra,13
    17a0:	00000013          	nop
    17a4:	00a08193          	addi	gp,ra,10
    17a8:	00120213          	addi	tp,tp,1 # 1 <reset_vec+0x1>
    17ac:	00200293          	li	t0,2
    17b0:	fe5216e3          	bne	tp,t0,179c <test_22+0x4>
    17b4:	01700e93          	li	t4,23
    17b8:	01600e13          	li	t3,22
    17bc:	05d19c63          	bne	gp,t4,1814 <fail>

000017c0 <test_23>:
    17c0:	00000213          	li	tp,0
    17c4:	00d00093          	li	ra,13
    17c8:	00000013          	nop
    17cc:	00000013          	nop
    17d0:	00908193          	addi	gp,ra,9
    17d4:	00120213          	addi	tp,tp,1 # 1 <reset_vec+0x1>
    17d8:	00200293          	li	t0,2
    17dc:	fe5214e3          	bne	tp,t0,17c4 <test_23+0x4>
    17e0:	01600e93          	li	t4,22
    17e4:	01700e13          	li	t3,23
    17e8:	03d19663          	bne	gp,t4,1814 <fail>

000017ec <test_24>:
    17ec:	02000093          	li	ra,32
    17f0:	02000e93          	li	t4,32
    17f4:	01800e13          	li	t3,24
    17f8:	01d09e63          	bne	ra,t4,1814 <fail>

000017fc <test_25>:
    17fc:	02100093          	li	ra,33
    1800:	03208013          	addi	zero,ra,50
    1804:	00000e93          	li	t4,0
    1808:	01900e13          	li	t3,25
    180c:	01d01463          	bne	zero,t4,1814 <fail>
    1810:	03c01a63          	bne	zero,t3,1844 <pass>

00001814 <fail>:
    1814:	10000537          	lui	a0,0x10000
    1818:	04500593          	li	a1,69
    181c:	05200613          	li	a2,82
    1820:	04f00693          	li	a3,79
    1824:	00a00713          	li	a4,10
    1828:	00b52023          	sw	a1,0(a0) # 10000000 <end+0xfff3f28>
    182c:	00c52023          	sw	a2,0(a0)
    1830:	00c52023          	sw	a2,0(a0)
    1834:	00d52023          	sw	a3,0(a0)
    1838:	00c52023          	sw	a2,0(a0)
    183c:	00e52023          	sw	a4,0(a0)
    1840:	00100073          	ebreak

00001844 <pass>:
    1844:	10000537          	lui	a0,0x10000
    1848:	04f00593          	li	a1,79
    184c:	04b00613          	li	a2,75
    1850:	00a00693          	li	a3,10
    1854:	00b52023          	sw	a1,0(a0) # 10000000 <end+0xfff3f28>
    1858:	00c52023          	sw	a2,0(a0)
    185c:	00d52023          	sw	a3,0(a0)
    1860:	cf5fe06f          	j	554 <addi_ret>

00001864 <and>:
    1864:	00002537          	lui	a0,0x2
    1868:	88450513          	addi	a0,a0,-1916 # 1884 <.test_name>
    186c:	10000637          	lui	a2,0x10000

00001870 <.prname_next>:
    1870:	00050583          	lb	a1,0(a0)
    1874:	00058a63          	beqz	a1,1888 <.prname_done>
    1878:	00b62023          	sw	a1,0(a2) # 10000000 <end+0xfff3f28>
    187c:	00150513          	addi	a0,a0,1
    1880:	ff1ff06f          	j	1870 <.prname_next>

00001884 <.test_name>:
    1884:	6e61                	lui	t3,0x18
    1886:	0064                	addi	s1,sp,12

00001888 <.prname_done>:
    1888:	02e00593          	li	a1,46
    188c:	00b62023          	sw	a1,0(a2)
    1890:	00b62023          	sw	a1,0(a2)

00001894 <test_2>:
    1894:	ff0100b7          	lui	ra,0xff010
    1898:	f0008093          	addi	ra,ra,-256 # ff00ff00 <end+0xff003e28>
    189c:	0f0f1137          	lui	sp,0xf0f1
    18a0:	f0f10113          	addi	sp,sp,-241 # f0f0f0f <end+0xf0e4e37>
    18a4:	0020f1b3          	and	gp,ra,sp
    18a8:	0f001eb7          	lui	t4,0xf001
    18ac:	f00e8e93          	addi	t4,t4,-256 # f000f00 <end+0xeff4e28>
    18b0:	00200e13          	li	t3,2
    18b4:	49d19c63          	bne	gp,t4,1d4c <fail>

000018b8 <test_3>:
    18b8:	0ff010b7          	lui	ra,0xff01
    18bc:	ff008093          	addi	ra,ra,-16 # ff00ff0 <end+0xfef4f18>
    18c0:	f0f0f137          	lui	sp,0xf0f0f
    18c4:	0f010113          	addi	sp,sp,240 # f0f0f0f0 <end+0xf0f03018>
    18c8:	0020f1b3          	and	gp,ra,sp
    18cc:	00f00eb7          	lui	t4,0xf00
    18d0:	0f0e8e93          	addi	t4,t4,240 # f000f0 <end+0xef4018>
    18d4:	00300e13          	li	t3,3
    18d8:	47d19a63          	bne	gp,t4,1d4c <fail>

000018dc <test_4>:
    18dc:	00ff00b7          	lui	ra,0xff0
    18e0:	0ff08093          	addi	ra,ra,255 # ff00ff <end+0xfe4027>
    18e4:	0f0f1137          	lui	sp,0xf0f1
    18e8:	f0f10113          	addi	sp,sp,-241 # f0f0f0f <end+0xf0e4e37>
    18ec:	0020f1b3          	and	gp,ra,sp
    18f0:	000f0eb7          	lui	t4,0xf0
    18f4:	00fe8e93          	addi	t4,t4,15 # f000f <end+0xe3f37>
    18f8:	00400e13          	li	t3,4
    18fc:	45d19863          	bne	gp,t4,1d4c <fail>

00001900 <test_5>:
    1900:	f00ff0b7          	lui	ra,0xf00ff
    1904:	00f08093          	addi	ra,ra,15 # f00ff00f <end+0xf00f2f37>
    1908:	f0f0f137          	lui	sp,0xf0f0f
    190c:	0f010113          	addi	sp,sp,240 # f0f0f0f0 <end+0xf0f03018>
    1910:	0020f1b3          	and	gp,ra,sp
    1914:	f000feb7          	lui	t4,0xf000f
    1918:	00500e13          	li	t3,5
    191c:	43d19863          	bne	gp,t4,1d4c <fail>

00001920 <test_6>:
    1920:	ff0100b7          	lui	ra,0xff010
    1924:	f0008093          	addi	ra,ra,-256 # ff00ff00 <end+0xff003e28>
    1928:	0f0f1137          	lui	sp,0xf0f1
    192c:	f0f10113          	addi	sp,sp,-241 # f0f0f0f <end+0xf0e4e37>
    1930:	0020f0b3          	and	ra,ra,sp
    1934:	0f001eb7          	lui	t4,0xf001
    1938:	f00e8e93          	addi	t4,t4,-256 # f000f00 <end+0xeff4e28>
    193c:	00600e13          	li	t3,6
    1940:	41d09663          	bne	ra,t4,1d4c <fail>

00001944 <test_7>:
    1944:	0ff010b7          	lui	ra,0xff01
    1948:	ff008093          	addi	ra,ra,-16 # ff00ff0 <end+0xfef4f18>
    194c:	f0f0f137          	lui	sp,0xf0f0f
    1950:	0f010113          	addi	sp,sp,240 # f0f0f0f0 <end+0xf0f03018>
    1954:	0020f133          	and	sp,ra,sp
    1958:	00f00eb7          	lui	t4,0xf00
    195c:	0f0e8e93          	addi	t4,t4,240 # f000f0 <end+0xef4018>
    1960:	00700e13          	li	t3,7
    1964:	3fd11463          	bne	sp,t4,1d4c <fail>

00001968 <test_8>:
    1968:	ff0100b7          	lui	ra,0xff010
    196c:	f0008093          	addi	ra,ra,-256 # ff00ff00 <end+0xff003e28>
    1970:	0010f0b3          	and	ra,ra,ra
    1974:	ff010eb7          	lui	t4,0xff010
    1978:	f00e8e93          	addi	t4,t4,-256 # ff00ff00 <end+0xff003e28>
    197c:	00800e13          	li	t3,8
    1980:	3dd09663          	bne	ra,t4,1d4c <fail>

00001984 <test_9>:
    1984:	00000213          	li	tp,0
    1988:	ff0100b7          	lui	ra,0xff010
    198c:	f0008093          	addi	ra,ra,-256 # ff00ff00 <end+0xff003e28>
    1990:	0f0f1137          	lui	sp,0xf0f1
    1994:	f0f10113          	addi	sp,sp,-241 # f0f0f0f <end+0xf0e4e37>
    1998:	0020f1b3          	and	gp,ra,sp
    199c:	00018313          	mv	t1,gp
    19a0:	00120213          	addi	tp,tp,1 # 1 <reset_vec+0x1>
    19a4:	00200293          	li	t0,2
    19a8:	fe5210e3          	bne	tp,t0,1988 <test_9+0x4>
    19ac:	0f001eb7          	lui	t4,0xf001
    19b0:	f00e8e93          	addi	t4,t4,-256 # f000f00 <end+0xeff4e28>
    19b4:	00900e13          	li	t3,9
    19b8:	39d31a63          	bne	t1,t4,1d4c <fail>

000019bc <test_10>:
    19bc:	00000213          	li	tp,0
    19c0:	0ff010b7          	lui	ra,0xff01
    19c4:	ff008093          	addi	ra,ra,-16 # ff00ff0 <end+0xfef4f18>
    19c8:	f0f0f137          	lui	sp,0xf0f0f
    19cc:	0f010113          	addi	sp,sp,240 # f0f0f0f0 <end+0xf0f03018>
    19d0:	0020f1b3          	and	gp,ra,sp
    19d4:	00000013          	nop
    19d8:	00018313          	mv	t1,gp
    19dc:	00120213          	addi	tp,tp,1 # 1 <reset_vec+0x1>
    19e0:	00200293          	li	t0,2
    19e4:	fc521ee3          	bne	tp,t0,19c0 <test_10+0x4>
    19e8:	00f00eb7          	lui	t4,0xf00
    19ec:	0f0e8e93          	addi	t4,t4,240 # f000f0 <end+0xef4018>
    19f0:	00a00e13          	li	t3,10
    19f4:	35d31c63          	bne	t1,t4,1d4c <fail>

000019f8 <test_11>:
    19f8:	00000213          	li	tp,0
    19fc:	00ff00b7          	lui	ra,0xff0
    1a00:	0ff08093          	addi	ra,ra,255 # ff00ff <end+0xfe4027>
    1a04:	0f0f1137          	lui	sp,0xf0f1
    1a08:	f0f10113          	addi	sp,sp,-241 # f0f0f0f <end+0xf0e4e37>
    1a0c:	0020f1b3          	and	gp,ra,sp
    1a10:	00000013          	nop
    1a14:	00000013          	nop
    1a18:	00018313          	mv	t1,gp
    1a1c:	00120213          	addi	tp,tp,1 # 1 <reset_vec+0x1>
    1a20:	00200293          	li	t0,2
    1a24:	fc521ce3          	bne	tp,t0,19fc <test_11+0x4>
    1a28:	000f0eb7          	lui	t4,0xf0
    1a2c:	00fe8e93          	addi	t4,t4,15 # f000f <end+0xe3f37>
    1a30:	00b00e13          	li	t3,11
    1a34:	31d31c63          	bne	t1,t4,1d4c <fail>

00001a38 <test_12>:
    1a38:	00000213          	li	tp,0
    1a3c:	ff0100b7          	lui	ra,0xff010
    1a40:	f0008093          	addi	ra,ra,-256 # ff00ff00 <end+0xff003e28>
    1a44:	0f0f1137          	lui	sp,0xf0f1
    1a48:	f0f10113          	addi	sp,sp,-241 # f0f0f0f <end+0xf0e4e37>
    1a4c:	0020f1b3          	and	gp,ra,sp
    1a50:	00120213          	addi	tp,tp,1 # 1 <reset_vec+0x1>
    1a54:	00200293          	li	t0,2
    1a58:	fe5212e3          	bne	tp,t0,1a3c <test_12+0x4>
    1a5c:	0f001eb7          	lui	t4,0xf001
    1a60:	f00e8e93          	addi	t4,t4,-256 # f000f00 <end+0xeff4e28>
    1a64:	00c00e13          	li	t3,12
    1a68:	2fd19263          	bne	gp,t4,1d4c <fail>

00001a6c <test_13>:
    1a6c:	00000213          	li	tp,0
    1a70:	0ff010b7          	lui	ra,0xff01
    1a74:	ff008093          	addi	ra,ra,-16 # ff00ff0 <end+0xfef4f18>
    1a78:	f0f0f137          	lui	sp,0xf0f0f
    1a7c:	0f010113          	addi	sp,sp,240 # f0f0f0f0 <end+0xf0f03018>
    1a80:	00000013          	nop
    1a84:	0020f1b3          	and	gp,ra,sp
    1a88:	00120213          	addi	tp,tp,1 # 1 <reset_vec+0x1>
    1a8c:	00200293          	li	t0,2
    1a90:	fe5210e3          	bne	tp,t0,1a70 <test_13+0x4>
    1a94:	00f00eb7          	lui	t4,0xf00
    1a98:	0f0e8e93          	addi	t4,t4,240 # f000f0 <end+0xef4018>
    1a9c:	00d00e13          	li	t3,13
    1aa0:	2bd19663          	bne	gp,t4,1d4c <fail>

00001aa4 <test_14>:
    1aa4:	00000213          	li	tp,0
    1aa8:	00ff00b7          	lui	ra,0xff0
    1aac:	0ff08093          	addi	ra,ra,255 # ff00ff <end+0xfe4027>
    1ab0:	0f0f1137          	lui	sp,0xf0f1
    1ab4:	f0f10113          	addi	sp,sp,-241 # f0f0f0f <end+0xf0e4e37>
    1ab8:	00000013          	nop
    1abc:	00000013          	nop
    1ac0:	0020f1b3          	and	gp,ra,sp
    1ac4:	00120213          	addi	tp,tp,1 # 1 <reset_vec+0x1>
    1ac8:	00200293          	li	t0,2
    1acc:	fc521ee3          	bne	tp,t0,1aa8 <test_14+0x4>
    1ad0:	000f0eb7          	lui	t4,0xf0
    1ad4:	00fe8e93          	addi	t4,t4,15 # f000f <end+0xe3f37>
    1ad8:	00e00e13          	li	t3,14
    1adc:	27d19863          	bne	gp,t4,1d4c <fail>

00001ae0 <test_15>:
    1ae0:	00000213          	li	tp,0
    1ae4:	ff0100b7          	lui	ra,0xff010
    1ae8:	f0008093          	addi	ra,ra,-256 # ff00ff00 <end+0xff003e28>
    1aec:	00000013          	nop
    1af0:	0f0f1137          	lui	sp,0xf0f1
    1af4:	f0f10113          	addi	sp,sp,-241 # f0f0f0f <end+0xf0e4e37>
    1af8:	0020f1b3          	and	gp,ra,sp
    1afc:	00120213          	addi	tp,tp,1 # 1 <reset_vec+0x1>
    1b00:	00200293          	li	t0,2
    1b04:	fe5210e3          	bne	tp,t0,1ae4 <test_15+0x4>
    1b08:	0f001eb7          	lui	t4,0xf001
    1b0c:	f00e8e93          	addi	t4,t4,-256 # f000f00 <end+0xeff4e28>
    1b10:	00f00e13          	li	t3,15
    1b14:	23d19c63          	bne	gp,t4,1d4c <fail>

00001b18 <test_16>:
    1b18:	00000213          	li	tp,0
    1b1c:	0ff010b7          	lui	ra,0xff01
    1b20:	ff008093          	addi	ra,ra,-16 # ff00ff0 <end+0xfef4f18>
    1b24:	00000013          	nop
    1b28:	f0f0f137          	lui	sp,0xf0f0f
    1b2c:	0f010113          	addi	sp,sp,240 # f0f0f0f0 <end+0xf0f03018>
    1b30:	00000013          	nop
    1b34:	0020f1b3          	and	gp,ra,sp
    1b38:	00120213          	addi	tp,tp,1 # 1 <reset_vec+0x1>
    1b3c:	00200293          	li	t0,2
    1b40:	fc521ee3          	bne	tp,t0,1b1c <test_16+0x4>
    1b44:	00f00eb7          	lui	t4,0xf00
    1b48:	0f0e8e93          	addi	t4,t4,240 # f000f0 <end+0xef4018>
    1b4c:	01000e13          	li	t3,16
    1b50:	1fd19e63          	bne	gp,t4,1d4c <fail>

00001b54 <test_17>:
    1b54:	00000213          	li	tp,0
    1b58:	00ff00b7          	lui	ra,0xff0
    1b5c:	0ff08093          	addi	ra,ra,255 # ff00ff <end+0xfe4027>
    1b60:	00000013          	nop
    1b64:	00000013          	nop
    1b68:	0f0f1137          	lui	sp,0xf0f1
    1b6c:	f0f10113          	addi	sp,sp,-241 # f0f0f0f <end+0xf0e4e37>
    1b70:	0020f1b3          	and	gp,ra,sp
    1b74:	00120213          	addi	tp,tp,1 # 1 <reset_vec+0x1>
    1b78:	00200293          	li	t0,2
    1b7c:	fc521ee3          	bne	tp,t0,1b58 <test_17+0x4>
    1b80:	000f0eb7          	lui	t4,0xf0
    1b84:	00fe8e93          	addi	t4,t4,15 # f000f <end+0xe3f37>
    1b88:	01100e13          	li	t3,17
    1b8c:	1dd19063          	bne	gp,t4,1d4c <fail>

00001b90 <test_18>:
    1b90:	00000213          	li	tp,0
    1b94:	0f0f1137          	lui	sp,0xf0f1
    1b98:	f0f10113          	addi	sp,sp,-241 # f0f0f0f <end+0xf0e4e37>
    1b9c:	ff0100b7          	lui	ra,0xff010
    1ba0:	f0008093          	addi	ra,ra,-256 # ff00ff00 <end+0xff003e28>
    1ba4:	0020f1b3          	and	gp,ra,sp
    1ba8:	00120213          	addi	tp,tp,1 # 1 <reset_vec+0x1>
    1bac:	00200293          	li	t0,2
    1bb0:	fe5212e3          	bne	tp,t0,1b94 <test_18+0x4>
    1bb4:	0f001eb7          	lui	t4,0xf001
    1bb8:	f00e8e93          	addi	t4,t4,-256 # f000f00 <end+0xeff4e28>
    1bbc:	01200e13          	li	t3,18
    1bc0:	19d19663          	bne	gp,t4,1d4c <fail>

00001bc4 <test_19>:
    1bc4:	00000213          	li	tp,0
    1bc8:	f0f0f137          	lui	sp,0xf0f0f
    1bcc:	0f010113          	addi	sp,sp,240 # f0f0f0f0 <end+0xf0f03018>
    1bd0:	0ff010b7          	lui	ra,0xff01
    1bd4:	ff008093          	addi	ra,ra,-16 # ff00ff0 <end+0xfef4f18>
    1bd8:	00000013          	nop
    1bdc:	0020f1b3          	and	gp,ra,sp
    1be0:	00120213          	addi	tp,tp,1 # 1 <reset_vec+0x1>
    1be4:	00200293          	li	t0,2
    1be8:	fe5210e3          	bne	tp,t0,1bc8 <test_19+0x4>
    1bec:	00f00eb7          	lui	t4,0xf00
    1bf0:	0f0e8e93          	addi	t4,t4,240 # f000f0 <end+0xef4018>
    1bf4:	01300e13          	li	t3,19
    1bf8:	15d19a63          	bne	gp,t4,1d4c <fail>

00001bfc <test_20>:
    1bfc:	00000213          	li	tp,0
    1c00:	0f0f1137          	lui	sp,0xf0f1
    1c04:	f0f10113          	addi	sp,sp,-241 # f0f0f0f <end+0xf0e4e37>
    1c08:	00ff00b7          	lui	ra,0xff0
    1c0c:	0ff08093          	addi	ra,ra,255 # ff00ff <end+0xfe4027>
    1c10:	00000013          	nop
    1c14:	00000013          	nop
    1c18:	0020f1b3          	and	gp,ra,sp
    1c1c:	00120213          	addi	tp,tp,1 # 1 <reset_vec+0x1>
    1c20:	00200293          	li	t0,2
    1c24:	fc521ee3          	bne	tp,t0,1c00 <test_20+0x4>
    1c28:	000f0eb7          	lui	t4,0xf0
    1c2c:	00fe8e93          	addi	t4,t4,15 # f000f <end+0xe3f37>
    1c30:	01400e13          	li	t3,20
    1c34:	11d19c63          	bne	gp,t4,1d4c <fail>

00001c38 <test_21>:
    1c38:	00000213          	li	tp,0
    1c3c:	0f0f1137          	lui	sp,0xf0f1
    1c40:	f0f10113          	addi	sp,sp,-241 # f0f0f0f <end+0xf0e4e37>
    1c44:	00000013          	nop
    1c48:	ff0100b7          	lui	ra,0xff010
    1c4c:	f0008093          	addi	ra,ra,-256 # ff00ff00 <end+0xff003e28>
    1c50:	0020f1b3          	and	gp,ra,sp
    1c54:	00120213          	addi	tp,tp,1 # 1 <reset_vec+0x1>
    1c58:	00200293          	li	t0,2
    1c5c:	fe5210e3          	bne	tp,t0,1c3c <test_21+0x4>
    1c60:	0f001eb7          	lui	t4,0xf001
    1c64:	f00e8e93          	addi	t4,t4,-256 # f000f00 <end+0xeff4e28>
    1c68:	01500e13          	li	t3,21
    1c6c:	0fd19063          	bne	gp,t4,1d4c <fail>

00001c70 <test_22>:
    1c70:	00000213          	li	tp,0
    1c74:	f0f0f137          	lui	sp,0xf0f0f
    1c78:	0f010113          	addi	sp,sp,240 # f0f0f0f0 <end+0xf0f03018>
    1c7c:	00000013          	nop
    1c80:	0ff010b7          	lui	ra,0xff01
    1c84:	ff008093          	addi	ra,ra,-16 # ff00ff0 <end+0xfef4f18>
    1c88:	00000013          	nop
    1c8c:	0020f1b3          	and	gp,ra,sp
    1c90:	00120213          	addi	tp,tp,1 # 1 <reset_vec+0x1>
    1c94:	00200293          	li	t0,2
    1c98:	fc521ee3          	bne	tp,t0,1c74 <test_22+0x4>
    1c9c:	00f00eb7          	lui	t4,0xf00
    1ca0:	0f0e8e93          	addi	t4,t4,240 # f000f0 <end+0xef4018>
    1ca4:	01600e13          	li	t3,22
    1ca8:	0bd19263          	bne	gp,t4,1d4c <fail>

00001cac <test_23>:
    1cac:	00000213          	li	tp,0
    1cb0:	0f0f1137          	lui	sp,0xf0f1
    1cb4:	f0f10113          	addi	sp,sp,-241 # f0f0f0f <end+0xf0e4e37>
    1cb8:	00000013          	nop
    1cbc:	00000013          	nop
    1cc0:	00ff00b7          	lui	ra,0xff0
    1cc4:	0ff08093          	addi	ra,ra,255 # ff00ff <end+0xfe4027>
    1cc8:	0020f1b3          	and	gp,ra,sp
    1ccc:	00120213          	addi	tp,tp,1 # 1 <reset_vec+0x1>
    1cd0:	00200293          	li	t0,2
    1cd4:	fc521ee3          	bne	tp,t0,1cb0 <test_23+0x4>
    1cd8:	000f0eb7          	lui	t4,0xf0
    1cdc:	00fe8e93          	addi	t4,t4,15 # f000f <end+0xe3f37>
    1ce0:	01700e13          	li	t3,23
    1ce4:	07d19463          	bne	gp,t4,1d4c <fail>

00001ce8 <test_24>:
    1ce8:	ff0100b7          	lui	ra,0xff010
    1cec:	f0008093          	addi	ra,ra,-256 # ff00ff00 <end+0xff003e28>
    1cf0:	00107133          	and	sp,zero,ra
    1cf4:	00000e93          	li	t4,0
    1cf8:	01800e13          	li	t3,24
    1cfc:	05d11863          	bne	sp,t4,1d4c <fail>

00001d00 <test_25>:
    1d00:	00ff00b7          	lui	ra,0xff0
    1d04:	0ff08093          	addi	ra,ra,255 # ff00ff <end+0xfe4027>
    1d08:	0000f133          	and	sp,ra,zero
    1d0c:	00000e93          	li	t4,0
    1d10:	01900e13          	li	t3,25
    1d14:	03d11c63          	bne	sp,t4,1d4c <fail>

00001d18 <test_26>:
    1d18:	000070b3          	and	ra,zero,zero
    1d1c:	00000e93          	li	t4,0
    1d20:	01a00e13          	li	t3,26
    1d24:	03d09463          	bne	ra,t4,1d4c <fail>

00001d28 <test_27>:
    1d28:	111110b7          	lui	ra,0x11111
    1d2c:	11108093          	addi	ra,ra,273 # 11111111 <end+0x11105039>
    1d30:	22222137          	lui	sp,0x22222
    1d34:	22210113          	addi	sp,sp,546 # 22222222 <end+0x2221614a>
    1d38:	0020f033          	and	zero,ra,sp
    1d3c:	00000e93          	li	t4,0
    1d40:	01b00e13          	li	t3,27
    1d44:	01d01463          	bne	zero,t4,1d4c <fail>
    1d48:	03c01a63          	bne	zero,t3,1d7c <pass>

00001d4c <fail>:
    1d4c:	10000537          	lui	a0,0x10000
    1d50:	04500593          	li	a1,69
    1d54:	05200613          	li	a2,82
    1d58:	04f00693          	li	a3,79
    1d5c:	00a00713          	li	a4,10
    1d60:	00b52023          	sw	a1,0(a0) # 10000000 <end+0xfff3f28>
    1d64:	00c52023          	sw	a2,0(a0)
    1d68:	00c52023          	sw	a2,0(a0)
    1d6c:	00d52023          	sw	a3,0(a0)
    1d70:	00c52023          	sw	a2,0(a0)
    1d74:	00e52023          	sw	a4,0(a0)
    1d78:	00100073          	ebreak

00001d7c <pass>:
    1d7c:	10000537          	lui	a0,0x10000
    1d80:	04f00593          	li	a1,79
    1d84:	04b00613          	li	a2,75
    1d88:	00a00693          	li	a3,10
    1d8c:	00b52023          	sw	a1,0(a0) # 10000000 <end+0xfff3f28>
    1d90:	00c52023          	sw	a2,0(a0)
    1d94:	00d52023          	sw	a3,0(a0)
    1d98:	87dfe06f          	j	614 <and_ret>

00001d9c <andi>:
    1d9c:	00002537          	lui	a0,0x2
    1da0:	dbc50513          	addi	a0,a0,-580 # 1dbc <.test_name>
    1da4:	10000637          	lui	a2,0x10000

00001da8 <.prname_next>:
    1da8:	00050583          	lb	a1,0(a0)
    1dac:	00058c63          	beqz	a1,1dc4 <.prname_done>
    1db0:	00b62023          	sw	a1,0(a2) # 10000000 <end+0xfff3f28>
    1db4:	00150513          	addi	a0,a0,1
    1db8:	ff1ff06f          	j	1da8 <.prname_next>

00001dbc <.test_name>:
    1dbc:	6e61                	lui	t3,0x18
    1dbe:	6964                	flw	fs1,84(a0)
    1dc0:	0000                	unimp
	...

00001dc4 <.prname_done>:
    1dc4:	02e00593          	li	a1,46
    1dc8:	00b62023          	sw	a1,0(a2)
    1dcc:	00b62023          	sw	a1,0(a2)

00001dd0 <test_2>:
    1dd0:	ff0100b7          	lui	ra,0xff010
    1dd4:	f0008093          	addi	ra,ra,-256 # ff00ff00 <end+0xff003e28>
    1dd8:	f0f0f193          	andi	gp,ra,-241
    1ddc:	ff010eb7          	lui	t4,0xff010
    1de0:	f00e8e93          	addi	t4,t4,-256 # ff00ff00 <end+0xff003e28>
    1de4:	00200e13          	li	t3,2
    1de8:	1bd19463          	bne	gp,t4,1f90 <fail>

00001dec <test_3>:
    1dec:	0ff010b7          	lui	ra,0xff01
    1df0:	ff008093          	addi	ra,ra,-16 # ff00ff0 <end+0xfef4f18>
    1df4:	0f00f193          	andi	gp,ra,240
    1df8:	0f000e93          	li	t4,240
    1dfc:	00300e13          	li	t3,3
    1e00:	19d19863          	bne	gp,t4,1f90 <fail>

00001e04 <test_4>:
    1e04:	00ff00b7          	lui	ra,0xff0
    1e08:	0ff08093          	addi	ra,ra,255 # ff00ff <end+0xfe4027>
    1e0c:	70f0f193          	andi	gp,ra,1807
    1e10:	00f00e93          	li	t4,15
    1e14:	00400e13          	li	t3,4
    1e18:	17d19c63          	bne	gp,t4,1f90 <fail>

00001e1c <test_5>:
    1e1c:	f00ff0b7          	lui	ra,0xf00ff
    1e20:	00f08093          	addi	ra,ra,15 # f00ff00f <end+0xf00f2f37>
    1e24:	0f00f193          	andi	gp,ra,240
    1e28:	00000e93          	li	t4,0
    1e2c:	00500e13          	li	t3,5
    1e30:	17d19063          	bne	gp,t4,1f90 <fail>

00001e34 <test_6>:
    1e34:	ff0100b7          	lui	ra,0xff010
    1e38:	f0008093          	addi	ra,ra,-256 # ff00ff00 <end+0xff003e28>
    1e3c:	0f00f093          	andi	ra,ra,240
    1e40:	00000e93          	li	t4,0
    1e44:	00600e13          	li	t3,6
    1e48:	15d09463          	bne	ra,t4,1f90 <fail>

00001e4c <test_7>:
    1e4c:	00000213          	li	tp,0
    1e50:	0ff010b7          	lui	ra,0xff01
    1e54:	ff008093          	addi	ra,ra,-16 # ff00ff0 <end+0xfef4f18>
    1e58:	70f0f193          	andi	gp,ra,1807
    1e5c:	00018313          	mv	t1,gp
    1e60:	00120213          	addi	tp,tp,1 # 1 <reset_vec+0x1>
    1e64:	00200293          	li	t0,2
    1e68:	fe5214e3          	bne	tp,t0,1e50 <test_7+0x4>
    1e6c:	70000e93          	li	t4,1792
    1e70:	00700e13          	li	t3,7
    1e74:	11d31e63          	bne	t1,t4,1f90 <fail>

00001e78 <test_8>:
    1e78:	00000213          	li	tp,0
    1e7c:	00ff00b7          	lui	ra,0xff0
    1e80:	0ff08093          	addi	ra,ra,255 # ff00ff <end+0xfe4027>
    1e84:	0f00f193          	andi	gp,ra,240
    1e88:	00000013          	nop
    1e8c:	00018313          	mv	t1,gp
    1e90:	00120213          	addi	tp,tp,1 # 1 <reset_vec+0x1>
    1e94:	00200293          	li	t0,2
    1e98:	fe5212e3          	bne	tp,t0,1e7c <test_8+0x4>
    1e9c:	0f000e93          	li	t4,240
    1ea0:	00800e13          	li	t3,8
    1ea4:	0fd31663          	bne	t1,t4,1f90 <fail>

00001ea8 <test_9>:
    1ea8:	00000213          	li	tp,0
    1eac:	f00ff0b7          	lui	ra,0xf00ff
    1eb0:	00f08093          	addi	ra,ra,15 # f00ff00f <end+0xf00f2f37>
    1eb4:	f0f0f193          	andi	gp,ra,-241
    1eb8:	00000013          	nop
    1ebc:	00000013          	nop
    1ec0:	00018313          	mv	t1,gp
    1ec4:	00120213          	addi	tp,tp,1 # 1 <reset_vec+0x1>
    1ec8:	00200293          	li	t0,2
    1ecc:	fe5210e3          	bne	tp,t0,1eac <test_9+0x4>
    1ed0:	f00ffeb7          	lui	t4,0xf00ff
    1ed4:	00fe8e93          	addi	t4,t4,15 # f00ff00f <end+0xf00f2f37>
    1ed8:	00900e13          	li	t3,9
    1edc:	0bd31a63          	bne	t1,t4,1f90 <fail>

00001ee0 <test_10>:
    1ee0:	00000213          	li	tp,0
    1ee4:	0ff010b7          	lui	ra,0xff01
    1ee8:	ff008093          	addi	ra,ra,-16 # ff00ff0 <end+0xfef4f18>
    1eec:	70f0f193          	andi	gp,ra,1807
    1ef0:	00120213          	addi	tp,tp,1 # 1 <reset_vec+0x1>
    1ef4:	00200293          	li	t0,2
    1ef8:	fe5216e3          	bne	tp,t0,1ee4 <test_10+0x4>
    1efc:	70000e93          	li	t4,1792
    1f00:	00a00e13          	li	t3,10
    1f04:	09d19663          	bne	gp,t4,1f90 <fail>

00001f08 <test_11>:
    1f08:	00000213          	li	tp,0
    1f0c:	00ff00b7          	lui	ra,0xff0
    1f10:	0ff08093          	addi	ra,ra,255 # ff00ff <end+0xfe4027>
    1f14:	00000013          	nop
    1f18:	0f00f193          	andi	gp,ra,240
    1f1c:	00120213          	addi	tp,tp,1 # 1 <reset_vec+0x1>
    1f20:	00200293          	li	t0,2
    1f24:	fe5214e3          	bne	tp,t0,1f0c <test_11+0x4>
    1f28:	0f000e93          	li	t4,240
    1f2c:	00b00e13          	li	t3,11
    1f30:	07d19063          	bne	gp,t4,1f90 <fail>

00001f34 <test_12>:
    1f34:	00000213          	li	tp,0
    1f38:	f00ff0b7          	lui	ra,0xf00ff
    1f3c:	00f08093          	addi	ra,ra,15 # f00ff00f <end+0xf00f2f37>
    1f40:	00000013          	nop
    1f44:	00000013          	nop
    1f48:	70f0f193          	andi	gp,ra,1807
    1f4c:	00120213          	addi	tp,tp,1 # 1 <reset_vec+0x1>
    1f50:	00200293          	li	t0,2
    1f54:	fe5212e3          	bne	tp,t0,1f38 <test_12+0x4>
    1f58:	00f00e93          	li	t4,15
    1f5c:	00c00e13          	li	t3,12
    1f60:	03d19863          	bne	gp,t4,1f90 <fail>

00001f64 <test_13>:
    1f64:	0f007093          	andi	ra,zero,240
    1f68:	00000e93          	li	t4,0
    1f6c:	00d00e13          	li	t3,13
    1f70:	03d09063          	bne	ra,t4,1f90 <fail>

00001f74 <test_14>:
    1f74:	00ff00b7          	lui	ra,0xff0
    1f78:	0ff08093          	addi	ra,ra,255 # ff00ff <end+0xfe4027>
    1f7c:	70f0f013          	andi	zero,ra,1807
    1f80:	00000e93          	li	t4,0
    1f84:	00e00e13          	li	t3,14
    1f88:	01d01463          	bne	zero,t4,1f90 <fail>
    1f8c:	03c01a63          	bne	zero,t3,1fc0 <pass>

00001f90 <fail>:
    1f90:	10000537          	lui	a0,0x10000
    1f94:	04500593          	li	a1,69
    1f98:	05200613          	li	a2,82
    1f9c:	04f00693          	li	a3,79
    1fa0:	00a00713          	li	a4,10
    1fa4:	00b52023          	sw	a1,0(a0) # 10000000 <end+0xfff3f28>
    1fa8:	00c52023          	sw	a2,0(a0)
    1fac:	00c52023          	sw	a2,0(a0)
    1fb0:	00d52023          	sw	a3,0(a0)
    1fb4:	00c52023          	sw	a2,0(a0)
    1fb8:	00e52023          	sw	a4,0(a0)
    1fbc:	00100073          	ebreak

00001fc0 <pass>:
    1fc0:	10000537          	lui	a0,0x10000
    1fc4:	04f00593          	li	a1,79
    1fc8:	04b00613          	li	a2,75
    1fcc:	00a00693          	li	a3,10
    1fd0:	00b52023          	sw	a1,0(a0) # 10000000 <end+0xfff3f28>
    1fd4:	00c52023          	sw	a2,0(a0)
    1fd8:	00d52023          	sw	a3,0(a0)
    1fdc:	da8fe06f          	j	584 <andi_ret>

00001fe0 <auipc>:
    1fe0:	00002537          	lui	a0,0x2
    1fe4:	00050513          	mv	a0,a0
    1fe8:	10000637          	lui	a2,0x10000

00001fec <.prname_next>:
    1fec:	00050583          	lb	a1,0(a0) # 2000 <.test_name>
    1ff0:	00058c63          	beqz	a1,2008 <.prname_done>
    1ff4:	00b62023          	sw	a1,0(a2) # 10000000 <end+0xfff3f28>
    1ff8:	00150513          	addi	a0,a0,1
    1ffc:	ff1ff06f          	j	1fec <.prname_next>

00002000 <.test_name>:
    2000:	7561                	lui	a0,0xffff8
    2002:	7069                	c.lui	zero,0xffffa
    2004:	00000063          	beqz	zero,2004 <.test_name+0x4>

00002008 <.prname_done>:
    2008:	02e00593          	li	a1,46
    200c:	00b62023          	sw	a1,0(a2)
    2010:	00b62023          	sw	a1,0(a2)

00002014 <test_2>:
    2014:	00000013          	nop
    2018:	00002517          	auipc	a0,0x2
    201c:	71c50513          	addi	a0,a0,1820 # 4734 <test_5+0x10>
    2020:	004005ef          	jal	a1,2024 <test_2+0x10>
    2024:	40b50533          	sub	a0,a0,a1
    2028:	00002eb7          	lui	t4,0x2
    202c:	710e8e93          	addi	t4,t4,1808 # 2710 <test_24+0x4>
    2030:	00200e13          	li	t3,2
    2034:	03d51463          	bne	a0,t4,205c <fail>

00002038 <test_3>:
    2038:	ffffe517          	auipc	a0,0xffffe
    203c:	8fc50513          	addi	a0,a0,-1796 # fffff934 <end+0xffff385c>
    2040:	004005ef          	jal	a1,2044 <test_3+0xc>
    2044:	40b50533          	sub	a0,a0,a1
    2048:	ffffeeb7          	lui	t4,0xffffe
    204c:	8f0e8e93          	addi	t4,t4,-1808 # ffffd8f0 <end+0xffff1818>
    2050:	00300e13          	li	t3,3
    2054:	01d51463          	bne	a0,t4,205c <fail>
    2058:	03c01a63          	bne	zero,t3,208c <pass>

0000205c <fail>:
    205c:	10000537          	lui	a0,0x10000
    2060:	04500593          	li	a1,69
    2064:	05200613          	li	a2,82
    2068:	04f00693          	li	a3,79
    206c:	00a00713          	li	a4,10
    2070:	00b52023          	sw	a1,0(a0) # 10000000 <end+0xfff3f28>
    2074:	00c52023          	sw	a2,0(a0)
    2078:	00c52023          	sw	a2,0(a0)
    207c:	00d52023          	sw	a3,0(a0)
    2080:	00c52023          	sw	a2,0(a0)
    2084:	00e52023          	sw	a4,0(a0)
    2088:	00100073          	ebreak

0000208c <pass>:
    208c:	10000537          	lui	a0,0x10000
    2090:	04f00593          	li	a1,79
    2094:	04b00613          	li	a2,75
    2098:	00a00693          	li	a3,10
    209c:	00b52023          	sw	a1,0(a0) # 10000000 <end+0xfff3f28>
    20a0:	00c52023          	sw	a2,0(a0)
    20a4:	00d52023          	sw	a3,0(a0)
    20a8:	bd4fe06f          	j	47c <auipc_ret>

000020ac <beq>:
    20ac:	00002537          	lui	a0,0x2
    20b0:	0cc50513          	addi	a0,a0,204 # 20cc <.test_name>
    20b4:	10000637          	lui	a2,0x10000

000020b8 <.prname_next>:
    20b8:	00050583          	lb	a1,0(a0)
    20bc:	00058a63          	beqz	a1,20d0 <.prname_done>
    20c0:	00b62023          	sw	a1,0(a2) # 10000000 <end+0xfff3f28>
    20c4:	00150513          	addi	a0,a0,1
    20c8:	ff1ff06f          	j	20b8 <.prname_next>

000020cc <.test_name>:
    20cc:	6562                	flw	fa0,24(sp)
    20ce:	0071                	c.nop	28

000020d0 <.prname_done>:
    20d0:	02e00593          	li	a1,46
    20d4:	00b62023          	sw	a1,0(a2)
    20d8:	00b62023          	sw	a1,0(a2)

000020dc <test_2>:
    20dc:	00200e13          	li	t3,2
    20e0:	00000093          	li	ra,0
    20e4:	00000113          	li	sp,0
    20e8:	00208663          	beq	ra,sp,20f4 <test_2+0x18>
    20ec:	2bc01863          	bne	zero,t3,239c <fail>
    20f0:	01c01663          	bne	zero,t3,20fc <test_3>
    20f4:	fe208ee3          	beq	ra,sp,20f0 <test_2+0x14>
    20f8:	2bc01263          	bne	zero,t3,239c <fail>

000020fc <test_3>:
    20fc:	00300e13          	li	t3,3
    2100:	00100093          	li	ra,1
    2104:	00100113          	li	sp,1
    2108:	00208663          	beq	ra,sp,2114 <test_3+0x18>
    210c:	29c01863          	bne	zero,t3,239c <fail>
    2110:	01c01663          	bne	zero,t3,211c <test_4>
    2114:	fe208ee3          	beq	ra,sp,2110 <test_3+0x14>
    2118:	29c01263          	bne	zero,t3,239c <fail>

0000211c <test_4>:
    211c:	00400e13          	li	t3,4
    2120:	fff00093          	li	ra,-1
    2124:	fff00113          	li	sp,-1
    2128:	00208663          	beq	ra,sp,2134 <test_4+0x18>
    212c:	27c01863          	bne	zero,t3,239c <fail>
    2130:	01c01663          	bne	zero,t3,213c <test_5>
    2134:	fe208ee3          	beq	ra,sp,2130 <test_4+0x14>
    2138:	27c01263          	bne	zero,t3,239c <fail>

0000213c <test_5>:
    213c:	00500e13          	li	t3,5
    2140:	00000093          	li	ra,0
    2144:	00100113          	li	sp,1
    2148:	00208463          	beq	ra,sp,2150 <test_5+0x14>
    214c:	01c01463          	bne	zero,t3,2154 <test_5+0x18>
    2150:	25c01663          	bne	zero,t3,239c <fail>
    2154:	fe208ee3          	beq	ra,sp,2150 <test_5+0x14>

00002158 <test_6>:
    2158:	00600e13          	li	t3,6
    215c:	00100093          	li	ra,1
    2160:	00000113          	li	sp,0
    2164:	00208463          	beq	ra,sp,216c <test_6+0x14>
    2168:	01c01463          	bne	zero,t3,2170 <test_6+0x18>
    216c:	23c01863          	bne	zero,t3,239c <fail>
    2170:	fe208ee3          	beq	ra,sp,216c <test_6+0x14>

00002174 <test_7>:
    2174:	00700e13          	li	t3,7
    2178:	fff00093          	li	ra,-1
    217c:	00100113          	li	sp,1
    2180:	00208463          	beq	ra,sp,2188 <test_7+0x14>
    2184:	01c01463          	bne	zero,t3,218c <test_7+0x18>
    2188:	21c01a63          	bne	zero,t3,239c <fail>
    218c:	fe208ee3          	beq	ra,sp,2188 <test_7+0x14>

00002190 <test_8>:
    2190:	00800e13          	li	t3,8
    2194:	00100093          	li	ra,1
    2198:	fff00113          	li	sp,-1
    219c:	00208463          	beq	ra,sp,21a4 <test_8+0x14>
    21a0:	01c01463          	bne	zero,t3,21a8 <test_8+0x18>
    21a4:	1fc01c63          	bne	zero,t3,239c <fail>
    21a8:	fe208ee3          	beq	ra,sp,21a4 <test_8+0x14>

000021ac <test_9>:
    21ac:	00900e13          	li	t3,9
    21b0:	00000213          	li	tp,0
    21b4:	00000093          	li	ra,0
    21b8:	fff00113          	li	sp,-1
    21bc:	1e208063          	beq	ra,sp,239c <fail>
    21c0:	00120213          	addi	tp,tp,1 # 1 <reset_vec+0x1>
    21c4:	00200293          	li	t0,2
    21c8:	fe5216e3          	bne	tp,t0,21b4 <test_9+0x8>

000021cc <test_10>:
    21cc:	00a00e13          	li	t3,10
    21d0:	00000213          	li	tp,0
    21d4:	00000093          	li	ra,0
    21d8:	fff00113          	li	sp,-1
    21dc:	00000013          	nop
    21e0:	1a208e63          	beq	ra,sp,239c <fail>
    21e4:	00120213          	addi	tp,tp,1 # 1 <reset_vec+0x1>
    21e8:	00200293          	li	t0,2
    21ec:	fe5214e3          	bne	tp,t0,21d4 <test_10+0x8>

000021f0 <test_11>:
    21f0:	00b00e13          	li	t3,11
    21f4:	00000213          	li	tp,0
    21f8:	00000093          	li	ra,0
    21fc:	fff00113          	li	sp,-1
    2200:	00000013          	nop
    2204:	00000013          	nop
    2208:	18208a63          	beq	ra,sp,239c <fail>
    220c:	00120213          	addi	tp,tp,1 # 1 <reset_vec+0x1>
    2210:	00200293          	li	t0,2
    2214:	fe5212e3          	bne	tp,t0,21f8 <test_11+0x8>

00002218 <test_12>:
    2218:	00c00e13          	li	t3,12
    221c:	00000213          	li	tp,0
    2220:	00000093          	li	ra,0
    2224:	00000013          	nop
    2228:	fff00113          	li	sp,-1
    222c:	16208863          	beq	ra,sp,239c <fail>
    2230:	00120213          	addi	tp,tp,1 # 1 <reset_vec+0x1>
    2234:	00200293          	li	t0,2
    2238:	fe5214e3          	bne	tp,t0,2220 <test_12+0x8>

0000223c <test_13>:
    223c:	00d00e13          	li	t3,13
    2240:	00000213          	li	tp,0
    2244:	00000093          	li	ra,0
    2248:	00000013          	nop
    224c:	fff00113          	li	sp,-1
    2250:	00000013          	nop
    2254:	14208463          	beq	ra,sp,239c <fail>
    2258:	00120213          	addi	tp,tp,1 # 1 <reset_vec+0x1>
    225c:	00200293          	li	t0,2
    2260:	fe5212e3          	bne	tp,t0,2244 <test_13+0x8>

00002264 <test_14>:
    2264:	00e00e13          	li	t3,14
    2268:	00000213          	li	tp,0
    226c:	00000093          	li	ra,0
    2270:	00000013          	nop
    2274:	00000013          	nop
    2278:	fff00113          	li	sp,-1
    227c:	12208063          	beq	ra,sp,239c <fail>
    2280:	00120213          	addi	tp,tp,1 # 1 <reset_vec+0x1>
    2284:	00200293          	li	t0,2
    2288:	fe5212e3          	bne	tp,t0,226c <test_14+0x8>

0000228c <test_15>:
    228c:	00f00e13          	li	t3,15
    2290:	00000213          	li	tp,0
    2294:	00000093          	li	ra,0
    2298:	fff00113          	li	sp,-1
    229c:	10208063          	beq	ra,sp,239c <fail>
    22a0:	00120213          	addi	tp,tp,1 # 1 <reset_vec+0x1>
    22a4:	00200293          	li	t0,2
    22a8:	fe5216e3          	bne	tp,t0,2294 <test_15+0x8>

000022ac <test_16>:
    22ac:	01000e13          	li	t3,16
    22b0:	00000213          	li	tp,0
    22b4:	00000093          	li	ra,0
    22b8:	fff00113          	li	sp,-1
    22bc:	00000013          	nop
    22c0:	0c208e63          	beq	ra,sp,239c <fail>
    22c4:	00120213          	addi	tp,tp,1 # 1 <reset_vec+0x1>
    22c8:	00200293          	li	t0,2
    22cc:	fe5214e3          	bne	tp,t0,22b4 <test_16+0x8>

000022d0 <test_17>:
    22d0:	01100e13          	li	t3,17
    22d4:	00000213          	li	tp,0
    22d8:	00000093          	li	ra,0
    22dc:	fff00113          	li	sp,-1
    22e0:	00000013          	nop
    22e4:	00000013          	nop
    22e8:	0a208a63          	beq	ra,sp,239c <fail>
    22ec:	00120213          	addi	tp,tp,1 # 1 <reset_vec+0x1>
    22f0:	00200293          	li	t0,2
    22f4:	fe5212e3          	bne	tp,t0,22d8 <test_17+0x8>

000022f8 <test_18>:
    22f8:	01200e13          	li	t3,18
    22fc:	00000213          	li	tp,0
    2300:	00000093          	li	ra,0
    2304:	00000013          	nop
    2308:	fff00113          	li	sp,-1
    230c:	08208863          	beq	ra,sp,239c <fail>
    2310:	00120213          	addi	tp,tp,1 # 1 <reset_vec+0x1>
    2314:	00200293          	li	t0,2
    2318:	fe5214e3          	bne	tp,t0,2300 <test_18+0x8>

0000231c <test_19>:
    231c:	01300e13          	li	t3,19
    2320:	00000213          	li	tp,0
    2324:	00000093          	li	ra,0
    2328:	00000013          	nop
    232c:	fff00113          	li	sp,-1
    2330:	00000013          	nop
    2334:	06208463          	beq	ra,sp,239c <fail>
    2338:	00120213          	addi	tp,tp,1 # 1 <reset_vec+0x1>
    233c:	00200293          	li	t0,2
    2340:	fe5212e3          	bne	tp,t0,2324 <test_19+0x8>

00002344 <test_20>:
    2344:	01400e13          	li	t3,20
    2348:	00000213          	li	tp,0
    234c:	00000093          	li	ra,0
    2350:	00000013          	nop
    2354:	00000013          	nop
    2358:	fff00113          	li	sp,-1
    235c:	04208063          	beq	ra,sp,239c <fail>
    2360:	00120213          	addi	tp,tp,1 # 1 <reset_vec+0x1>
    2364:	00200293          	li	t0,2
    2368:	fe5212e3          	bne	tp,t0,234c <test_20+0x8>

0000236c <test_21>:
    236c:	00100093          	li	ra,1
    2370:	00000a63          	beqz	zero,2384 <test_21+0x18>
    2374:	00108093          	addi	ra,ra,1
    2378:	00108093          	addi	ra,ra,1
    237c:	00108093          	addi	ra,ra,1
    2380:	00108093          	addi	ra,ra,1
    2384:	00108093          	addi	ra,ra,1
    2388:	00108093          	addi	ra,ra,1
    238c:	00300e93          	li	t4,3
    2390:	01500e13          	li	t3,21
    2394:	01d09463          	bne	ra,t4,239c <fail>
    2398:	03c01a63          	bne	zero,t3,23cc <pass>

0000239c <fail>:
    239c:	10000537          	lui	a0,0x10000
    23a0:	04500593          	li	a1,69
    23a4:	05200613          	li	a2,82
    23a8:	04f00693          	li	a3,79
    23ac:	00a00713          	li	a4,10
    23b0:	00b52023          	sw	a1,0(a0) # 10000000 <end+0xfff3f28>
    23b4:	00c52023          	sw	a2,0(a0)
    23b8:	00c52023          	sw	a2,0(a0)
    23bc:	00d52023          	sw	a3,0(a0)
    23c0:	00c52023          	sw	a2,0(a0)
    23c4:	00e52023          	sw	a4,0(a0)
    23c8:	00100073          	ebreak

000023cc <pass>:
    23cc:	10000537          	lui	a0,0x10000
    23d0:	04f00593          	li	a1,79
    23d4:	04b00613          	li	a2,75
    23d8:	00a00693          	li	a3,10
    23dc:	00b52023          	sw	a1,0(a0) # 10000000 <end+0xfff3f28>
    23e0:	00c52023          	sw	a2,0(a0)
    23e4:	00d52023          	sw	a3,0(a0)
    23e8:	8c4fe06f          	j	4ac <beq_ret>

000023ec <bge>:
    23ec:	00002537          	lui	a0,0x2
    23f0:	40c50513          	addi	a0,a0,1036 # 240c <.test_name>
    23f4:	10000637          	lui	a2,0x10000

000023f8 <.prname_next>:
    23f8:	00050583          	lb	a1,0(a0)
    23fc:	00058a63          	beqz	a1,2410 <.prname_done>
    2400:	00b62023          	sw	a1,0(a2) # 10000000 <end+0xfff3f28>
    2404:	00150513          	addi	a0,a0,1
    2408:	ff1ff06f          	j	23f8 <.prname_next>

0000240c <.test_name>:
    240c:	6762                	flw	fa4,24(sp)
    240e:	0065                	c.nop	25

00002410 <.prname_done>:
    2410:	02e00593          	li	a1,46
    2414:	00b62023          	sw	a1,0(a2)
    2418:	00b62023          	sw	a1,0(a2)

0000241c <test_2>:
    241c:	00200e13          	li	t3,2
    2420:	00000093          	li	ra,0
    2424:	00000113          	li	sp,0
    2428:	0020d663          	ble	sp,ra,2434 <test_2+0x18>
    242c:	31c01863          	bne	zero,t3,273c <fail>
    2430:	01c01663          	bne	zero,t3,243c <test_3>
    2434:	fe20dee3          	ble	sp,ra,2430 <test_2+0x14>
    2438:	31c01263          	bne	zero,t3,273c <fail>

0000243c <test_3>:
    243c:	00300e13          	li	t3,3
    2440:	00100093          	li	ra,1
    2444:	00100113          	li	sp,1
    2448:	0020d663          	ble	sp,ra,2454 <test_3+0x18>
    244c:	2fc01863          	bne	zero,t3,273c <fail>
    2450:	01c01663          	bne	zero,t3,245c <test_4>
    2454:	fe20dee3          	ble	sp,ra,2450 <test_3+0x14>
    2458:	2fc01263          	bne	zero,t3,273c <fail>

0000245c <test_4>:
    245c:	00400e13          	li	t3,4
    2460:	fff00093          	li	ra,-1
    2464:	fff00113          	li	sp,-1
    2468:	0020d663          	ble	sp,ra,2474 <test_4+0x18>
    246c:	2dc01863          	bne	zero,t3,273c <fail>
    2470:	01c01663          	bne	zero,t3,247c <test_5>
    2474:	fe20dee3          	ble	sp,ra,2470 <test_4+0x14>
    2478:	2dc01263          	bne	zero,t3,273c <fail>

0000247c <test_5>:
    247c:	00500e13          	li	t3,5
    2480:	00100093          	li	ra,1
    2484:	00000113          	li	sp,0
    2488:	0020d663          	ble	sp,ra,2494 <test_5+0x18>
    248c:	2bc01863          	bne	zero,t3,273c <fail>
    2490:	01c01663          	bne	zero,t3,249c <test_6>
    2494:	fe20dee3          	ble	sp,ra,2490 <test_5+0x14>
    2498:	2bc01263          	bne	zero,t3,273c <fail>

0000249c <test_6>:
    249c:	00600e13          	li	t3,6
    24a0:	00100093          	li	ra,1
    24a4:	fff00113          	li	sp,-1
    24a8:	0020d663          	ble	sp,ra,24b4 <test_6+0x18>
    24ac:	29c01863          	bne	zero,t3,273c <fail>
    24b0:	01c01663          	bne	zero,t3,24bc <test_7>
    24b4:	fe20dee3          	ble	sp,ra,24b0 <test_6+0x14>
    24b8:	29c01263          	bne	zero,t3,273c <fail>

000024bc <test_7>:
    24bc:	00700e13          	li	t3,7
    24c0:	fff00093          	li	ra,-1
    24c4:	ffe00113          	li	sp,-2
    24c8:	0020d663          	ble	sp,ra,24d4 <test_7+0x18>
    24cc:	27c01863          	bne	zero,t3,273c <fail>
    24d0:	01c01663          	bne	zero,t3,24dc <test_8>
    24d4:	fe20dee3          	ble	sp,ra,24d0 <test_7+0x14>
    24d8:	27c01263          	bne	zero,t3,273c <fail>

000024dc <test_8>:
    24dc:	00800e13          	li	t3,8
    24e0:	00000093          	li	ra,0
    24e4:	00100113          	li	sp,1
    24e8:	0020d463          	ble	sp,ra,24f0 <test_8+0x14>
    24ec:	01c01463          	bne	zero,t3,24f4 <test_8+0x18>
    24f0:	25c01663          	bne	zero,t3,273c <fail>
    24f4:	fe20dee3          	ble	sp,ra,24f0 <test_8+0x14>

000024f8 <test_9>:
    24f8:	00900e13          	li	t3,9
    24fc:	fff00093          	li	ra,-1
    2500:	00100113          	li	sp,1
    2504:	0020d463          	ble	sp,ra,250c <test_9+0x14>
    2508:	01c01463          	bne	zero,t3,2510 <test_9+0x18>
    250c:	23c01863          	bne	zero,t3,273c <fail>
    2510:	fe20dee3          	ble	sp,ra,250c <test_9+0x14>

00002514 <test_10>:
    2514:	00a00e13          	li	t3,10
    2518:	ffe00093          	li	ra,-2
    251c:	fff00113          	li	sp,-1
    2520:	0020d463          	ble	sp,ra,2528 <test_10+0x14>
    2524:	01c01463          	bne	zero,t3,252c <test_10+0x18>
    2528:	21c01a63          	bne	zero,t3,273c <fail>
    252c:	fe20dee3          	ble	sp,ra,2528 <test_10+0x14>

00002530 <test_11>:
    2530:	00b00e13          	li	t3,11
    2534:	ffe00093          	li	ra,-2
    2538:	00100113          	li	sp,1
    253c:	0020d463          	ble	sp,ra,2544 <test_11+0x14>
    2540:	01c01463          	bne	zero,t3,2548 <test_11+0x18>
    2544:	1fc01c63          	bne	zero,t3,273c <fail>
    2548:	fe20dee3          	ble	sp,ra,2544 <test_11+0x14>

0000254c <test_12>:
    254c:	00c00e13          	li	t3,12
    2550:	00000213          	li	tp,0
    2554:	fff00093          	li	ra,-1
    2558:	00000113          	li	sp,0
    255c:	1e20d063          	ble	sp,ra,273c <fail>
    2560:	00120213          	addi	tp,tp,1 # 1 <reset_vec+0x1>
    2564:	00200293          	li	t0,2
    2568:	fe5216e3          	bne	tp,t0,2554 <test_12+0x8>

0000256c <test_13>:
    256c:	00d00e13          	li	t3,13
    2570:	00000213          	li	tp,0
    2574:	fff00093          	li	ra,-1
    2578:	00000113          	li	sp,0
    257c:	00000013          	nop
    2580:	1a20de63          	ble	sp,ra,273c <fail>
    2584:	00120213          	addi	tp,tp,1 # 1 <reset_vec+0x1>
    2588:	00200293          	li	t0,2
    258c:	fe5214e3          	bne	tp,t0,2574 <test_13+0x8>

00002590 <test_14>:
    2590:	00e00e13          	li	t3,14
    2594:	00000213          	li	tp,0
    2598:	fff00093          	li	ra,-1
    259c:	00000113          	li	sp,0
    25a0:	00000013          	nop
    25a4:	00000013          	nop
    25a8:	1820da63          	ble	sp,ra,273c <fail>
    25ac:	00120213          	addi	tp,tp,1 # 1 <reset_vec+0x1>
    25b0:	00200293          	li	t0,2
    25b4:	fe5212e3          	bne	tp,t0,2598 <test_14+0x8>

000025b8 <test_15>:
    25b8:	00f00e13          	li	t3,15
    25bc:	00000213          	li	tp,0
    25c0:	fff00093          	li	ra,-1
    25c4:	00000013          	nop
    25c8:	00000113          	li	sp,0
    25cc:	1620d863          	ble	sp,ra,273c <fail>
    25d0:	00120213          	addi	tp,tp,1 # 1 <reset_vec+0x1>
    25d4:	00200293          	li	t0,2
    25d8:	fe5214e3          	bne	tp,t0,25c0 <test_15+0x8>

000025dc <test_16>:
    25dc:	01000e13          	li	t3,16
    25e0:	00000213          	li	tp,0
    25e4:	fff00093          	li	ra,-1
    25e8:	00000013          	nop
    25ec:	00000113          	li	sp,0
    25f0:	00000013          	nop
    25f4:	1420d463          	ble	sp,ra,273c <fail>
    25f8:	00120213          	addi	tp,tp,1 # 1 <reset_vec+0x1>
    25fc:	00200293          	li	t0,2
    2600:	fe5212e3          	bne	tp,t0,25e4 <test_16+0x8>

00002604 <test_17>:
    2604:	01100e13          	li	t3,17
    2608:	00000213          	li	tp,0
    260c:	fff00093          	li	ra,-1
    2610:	00000013          	nop
    2614:	00000013          	nop
    2618:	00000113          	li	sp,0
    261c:	1220d063          	ble	sp,ra,273c <fail>
    2620:	00120213          	addi	tp,tp,1 # 1 <reset_vec+0x1>
    2624:	00200293          	li	t0,2
    2628:	fe5212e3          	bne	tp,t0,260c <test_17+0x8>

0000262c <test_18>:
    262c:	01200e13          	li	t3,18
    2630:	00000213          	li	tp,0
    2634:	fff00093          	li	ra,-1
    2638:	00000113          	li	sp,0
    263c:	1020d063          	ble	sp,ra,273c <fail>
    2640:	00120213          	addi	tp,tp,1 # 1 <reset_vec+0x1>
    2644:	00200293          	li	t0,2
    2648:	fe5216e3          	bne	tp,t0,2634 <test_18+0x8>

0000264c <test_19>:
    264c:	01300e13          	li	t3,19
    2650:	00000213          	li	tp,0
    2654:	fff00093          	li	ra,-1
    2658:	00000113          	li	sp,0
    265c:	00000013          	nop
    2660:	0c20de63          	ble	sp,ra,273c <fail>
    2664:	00120213          	addi	tp,tp,1 # 1 <reset_vec+0x1>
    2668:	00200293          	li	t0,2
    266c:	fe5214e3          	bne	tp,t0,2654 <test_19+0x8>

00002670 <test_20>:
    2670:	01400e13          	li	t3,20
    2674:	00000213          	li	tp,0
    2678:	fff00093          	li	ra,-1
    267c:	00000113          	li	sp,0
    2680:	00000013          	nop
    2684:	00000013          	nop
    2688:	0a20da63          	ble	sp,ra,273c <fail>
    268c:	00120213          	addi	tp,tp,1 # 1 <reset_vec+0x1>
    2690:	00200293          	li	t0,2
    2694:	fe5212e3          	bne	tp,t0,2678 <test_20+0x8>

00002698 <test_21>:
    2698:	01500e13          	li	t3,21
    269c:	00000213          	li	tp,0
    26a0:	fff00093          	li	ra,-1
    26a4:	00000013          	nop
    26a8:	00000113          	li	sp,0
    26ac:	0820d863          	ble	sp,ra,273c <fail>
    26b0:	00120213          	addi	tp,tp,1 # 1 <reset_vec+0x1>
    26b4:	00200293          	li	t0,2
    26b8:	fe5214e3          	bne	tp,t0,26a0 <test_21+0x8>

000026bc <test_22>:
    26bc:	01600e13          	li	t3,22
    26c0:	00000213          	li	tp,0
    26c4:	fff00093          	li	ra,-1
    26c8:	00000013          	nop
    26cc:	00000113          	li	sp,0
    26d0:	00000013          	nop
    26d4:	0620d463          	ble	sp,ra,273c <fail>
    26d8:	00120213          	addi	tp,tp,1 # 1 <reset_vec+0x1>
    26dc:	00200293          	li	t0,2
    26e0:	fe5212e3          	bne	tp,t0,26c4 <test_22+0x8>

000026e4 <test_23>:
    26e4:	01700e13          	li	t3,23
    26e8:	00000213          	li	tp,0
    26ec:	fff00093          	li	ra,-1
    26f0:	00000013          	nop
    26f4:	00000013          	nop
    26f8:	00000113          	li	sp,0
    26fc:	0420d063          	ble	sp,ra,273c <fail>
    2700:	00120213          	addi	tp,tp,1 # 1 <reset_vec+0x1>
    2704:	00200293          	li	t0,2
    2708:	fe5212e3          	bne	tp,t0,26ec <test_23+0x8>

0000270c <test_24>:
    270c:	00100093          	li	ra,1
    2710:	0000da63          	bgez	ra,2724 <test_24+0x18>
    2714:	00108093          	addi	ra,ra,1
    2718:	00108093          	addi	ra,ra,1
    271c:	00108093          	addi	ra,ra,1
    2720:	00108093          	addi	ra,ra,1
    2724:	00108093          	addi	ra,ra,1
    2728:	00108093          	addi	ra,ra,1
    272c:	00300e93          	li	t4,3
    2730:	01800e13          	li	t3,24
    2734:	01d09463          	bne	ra,t4,273c <fail>
    2738:	03c01a63          	bne	zero,t3,276c <pass>

0000273c <fail>:
    273c:	10000537          	lui	a0,0x10000
    2740:	04500593          	li	a1,69
    2744:	05200613          	li	a2,82
    2748:	04f00693          	li	a3,79
    274c:	00a00713          	li	a4,10
    2750:	00b52023          	sw	a1,0(a0) # 10000000 <end+0xfff3f28>
    2754:	00c52023          	sw	a2,0(a0)
    2758:	00c52023          	sw	a2,0(a0)
    275c:	00d52023          	sw	a3,0(a0)
    2760:	00c52023          	sw	a2,0(a0)
    2764:	00e52023          	sw	a4,0(a0)
    2768:	00100073          	ebreak

0000276c <pass>:
    276c:	10000537          	lui	a0,0x10000
    2770:	04f00593          	li	a1,79
    2774:	04b00613          	li	a2,75
    2778:	00a00693          	li	a3,10
    277c:	00b52023          	sw	a1,0(a0) # 10000000 <end+0xfff3f28>
    2780:	00c52023          	sw	a2,0(a0)
    2784:	00d52023          	sw	a3,0(a0)
    2788:	d49fd06f          	j	4d0 <bge_ret>

0000278c <bgeu>:
    278c:	00002537          	lui	a0,0x2
    2790:	7ac50513          	addi	a0,a0,1964 # 27ac <.test_name>
    2794:	10000637          	lui	a2,0x10000

00002798 <.prname_next>:
    2798:	00050583          	lb	a1,0(a0)
    279c:	00058c63          	beqz	a1,27b4 <.prname_done>
    27a0:	00b62023          	sw	a1,0(a2) # 10000000 <end+0xfff3f28>
    27a4:	00150513          	addi	a0,a0,1
    27a8:	ff1ff06f          	j	2798 <.prname_next>

000027ac <.test_name>:
    27ac:	6762                	flw	fa4,24(sp)
    27ae:	7565                	lui	a0,0xffff9
    27b0:	0000                	unimp
	...

000027b4 <.prname_done>:
    27b4:	02e00593          	li	a1,46
    27b8:	00b62023          	sw	a1,0(a2)
    27bc:	00b62023          	sw	a1,0(a2)

000027c0 <test_2>:
    27c0:	00200e13          	li	t3,2
    27c4:	00000093          	li	ra,0
    27c8:	00000113          	li	sp,0
    27cc:	0020f663          	bleu	sp,ra,27d8 <test_2+0x18>
    27d0:	35c01263          	bne	zero,t3,2b14 <fail>
    27d4:	01c01663          	bne	zero,t3,27e0 <test_3>
    27d8:	fe20fee3          	bleu	sp,ra,27d4 <test_2+0x14>
    27dc:	33c01c63          	bne	zero,t3,2b14 <fail>

000027e0 <test_3>:
    27e0:	00300e13          	li	t3,3
    27e4:	00100093          	li	ra,1
    27e8:	00100113          	li	sp,1
    27ec:	0020f663          	bleu	sp,ra,27f8 <test_3+0x18>
    27f0:	33c01263          	bne	zero,t3,2b14 <fail>
    27f4:	01c01663          	bne	zero,t3,2800 <test_4>
    27f8:	fe20fee3          	bleu	sp,ra,27f4 <test_3+0x14>
    27fc:	31c01c63          	bne	zero,t3,2b14 <fail>

00002800 <test_4>:
    2800:	00400e13          	li	t3,4
    2804:	fff00093          	li	ra,-1
    2808:	fff00113          	li	sp,-1
    280c:	0020f663          	bleu	sp,ra,2818 <test_4+0x18>
    2810:	31c01263          	bne	zero,t3,2b14 <fail>
    2814:	01c01663          	bne	zero,t3,2820 <test_5>
    2818:	fe20fee3          	bleu	sp,ra,2814 <test_4+0x14>
    281c:	2fc01c63          	bne	zero,t3,2b14 <fail>

00002820 <test_5>:
    2820:	00500e13          	li	t3,5
    2824:	00100093          	li	ra,1
    2828:	00000113          	li	sp,0
    282c:	0020f663          	bleu	sp,ra,2838 <test_5+0x18>
    2830:	2fc01263          	bne	zero,t3,2b14 <fail>
    2834:	01c01663          	bne	zero,t3,2840 <test_6>
    2838:	fe20fee3          	bleu	sp,ra,2834 <test_5+0x14>
    283c:	2dc01c63          	bne	zero,t3,2b14 <fail>

00002840 <test_6>:
    2840:	00600e13          	li	t3,6
    2844:	fff00093          	li	ra,-1
    2848:	ffe00113          	li	sp,-2
    284c:	0020f663          	bleu	sp,ra,2858 <test_6+0x18>
    2850:	2dc01263          	bne	zero,t3,2b14 <fail>
    2854:	01c01663          	bne	zero,t3,2860 <test_7>
    2858:	fe20fee3          	bleu	sp,ra,2854 <test_6+0x14>
    285c:	2bc01c63          	bne	zero,t3,2b14 <fail>

00002860 <test_7>:
    2860:	00700e13          	li	t3,7
    2864:	fff00093          	li	ra,-1
    2868:	00000113          	li	sp,0
    286c:	0020f663          	bleu	sp,ra,2878 <test_7+0x18>
    2870:	2bc01263          	bne	zero,t3,2b14 <fail>
    2874:	01c01663          	bne	zero,t3,2880 <test_8>
    2878:	fe20fee3          	bleu	sp,ra,2874 <test_7+0x14>
    287c:	29c01c63          	bne	zero,t3,2b14 <fail>

00002880 <test_8>:
    2880:	00800e13          	li	t3,8
    2884:	00000093          	li	ra,0
    2888:	00100113          	li	sp,1
    288c:	0020f463          	bleu	sp,ra,2894 <test_8+0x14>
    2890:	01c01463          	bne	zero,t3,2898 <test_8+0x18>
    2894:	29c01063          	bne	zero,t3,2b14 <fail>
    2898:	fe20fee3          	bleu	sp,ra,2894 <test_8+0x14>

0000289c <test_9>:
    289c:	00900e13          	li	t3,9
    28a0:	ffe00093          	li	ra,-2
    28a4:	fff00113          	li	sp,-1
    28a8:	0020f463          	bleu	sp,ra,28b0 <test_9+0x14>
    28ac:	01c01463          	bne	zero,t3,28b4 <test_9+0x18>
    28b0:	27c01263          	bne	zero,t3,2b14 <fail>
    28b4:	fe20fee3          	bleu	sp,ra,28b0 <test_9+0x14>

000028b8 <test_10>:
    28b8:	00a00e13          	li	t3,10
    28bc:	00000093          	li	ra,0
    28c0:	fff00113          	li	sp,-1
    28c4:	0020f463          	bleu	sp,ra,28cc <test_10+0x14>
    28c8:	01c01463          	bne	zero,t3,28d0 <test_10+0x18>
    28cc:	25c01463          	bne	zero,t3,2b14 <fail>
    28d0:	fe20fee3          	bleu	sp,ra,28cc <test_10+0x14>

000028d4 <test_11>:
    28d4:	00b00e13          	li	t3,11
    28d8:	800000b7          	lui	ra,0x80000
    28dc:	fff08093          	addi	ra,ra,-1 # 7fffffff <end+0x7fff3f27>
    28e0:	80000137          	lui	sp,0x80000
    28e4:	0020f463          	bleu	sp,ra,28ec <test_11+0x18>
    28e8:	01c01463          	bne	zero,t3,28f0 <test_11+0x1c>
    28ec:	23c01463          	bne	zero,t3,2b14 <fail>
    28f0:	fe20fee3          	bleu	sp,ra,28ec <test_11+0x18>

000028f4 <test_12>:
    28f4:	00c00e13          	li	t3,12
    28f8:	00000213          	li	tp,0
    28fc:	f00000b7          	lui	ra,0xf0000
    2900:	fff08093          	addi	ra,ra,-1 # efffffff <end+0xefff3f27>
    2904:	f0000137          	lui	sp,0xf0000
    2908:	2020f663          	bleu	sp,ra,2b14 <fail>
    290c:	00120213          	addi	tp,tp,1 # 1 <reset_vec+0x1>
    2910:	00200293          	li	t0,2
    2914:	fe5214e3          	bne	tp,t0,28fc <test_12+0x8>

00002918 <test_13>:
    2918:	00d00e13          	li	t3,13
    291c:	00000213          	li	tp,0
    2920:	f00000b7          	lui	ra,0xf0000
    2924:	fff08093          	addi	ra,ra,-1 # efffffff <end+0xefff3f27>
    2928:	f0000137          	lui	sp,0xf0000
    292c:	00000013          	nop
    2930:	1e20f263          	bleu	sp,ra,2b14 <fail>
    2934:	00120213          	addi	tp,tp,1 # 1 <reset_vec+0x1>
    2938:	00200293          	li	t0,2
    293c:	fe5212e3          	bne	tp,t0,2920 <test_13+0x8>

00002940 <test_14>:
    2940:	00e00e13          	li	t3,14
    2944:	00000213          	li	tp,0
    2948:	f00000b7          	lui	ra,0xf0000
    294c:	fff08093          	addi	ra,ra,-1 # efffffff <end+0xefff3f27>
    2950:	f0000137          	lui	sp,0xf0000
    2954:	00000013          	nop
    2958:	00000013          	nop
    295c:	1a20fc63          	bleu	sp,ra,2b14 <fail>
    2960:	00120213          	addi	tp,tp,1 # 1 <reset_vec+0x1>
    2964:	00200293          	li	t0,2
    2968:	fe5210e3          	bne	tp,t0,2948 <test_14+0x8>

0000296c <test_15>:
    296c:	00f00e13          	li	t3,15
    2970:	00000213          	li	tp,0
    2974:	f00000b7          	lui	ra,0xf0000
    2978:	fff08093          	addi	ra,ra,-1 # efffffff <end+0xefff3f27>
    297c:	00000013          	nop
    2980:	f0000137          	lui	sp,0xf0000
    2984:	1820f863          	bleu	sp,ra,2b14 <fail>
    2988:	00120213          	addi	tp,tp,1 # 1 <reset_vec+0x1>
    298c:	00200293          	li	t0,2
    2990:	fe5212e3          	bne	tp,t0,2974 <test_15+0x8>

00002994 <test_16>:
    2994:	01000e13          	li	t3,16
    2998:	00000213          	li	tp,0
    299c:	f00000b7          	lui	ra,0xf0000
    29a0:	fff08093          	addi	ra,ra,-1 # efffffff <end+0xefff3f27>
    29a4:	00000013          	nop
    29a8:	f0000137          	lui	sp,0xf0000
    29ac:	00000013          	nop
    29b0:	1620f263          	bleu	sp,ra,2b14 <fail>
    29b4:	00120213          	addi	tp,tp,1 # 1 <reset_vec+0x1>
    29b8:	00200293          	li	t0,2
    29bc:	fe5210e3          	bne	tp,t0,299c <test_16+0x8>

000029c0 <test_17>:
    29c0:	01100e13          	li	t3,17
    29c4:	00000213          	li	tp,0
    29c8:	f00000b7          	lui	ra,0xf0000
    29cc:	fff08093          	addi	ra,ra,-1 # efffffff <end+0xefff3f27>
    29d0:	00000013          	nop
    29d4:	00000013          	nop
    29d8:	f0000137          	lui	sp,0xf0000
    29dc:	1220fc63          	bleu	sp,ra,2b14 <fail>
    29e0:	00120213          	addi	tp,tp,1 # 1 <reset_vec+0x1>
    29e4:	00200293          	li	t0,2
    29e8:	fe5210e3          	bne	tp,t0,29c8 <test_17+0x8>

000029ec <test_18>:
    29ec:	01200e13          	li	t3,18
    29f0:	00000213          	li	tp,0
    29f4:	f00000b7          	lui	ra,0xf0000
    29f8:	fff08093          	addi	ra,ra,-1 # efffffff <end+0xefff3f27>
    29fc:	f0000137          	lui	sp,0xf0000
    2a00:	1020fa63          	bleu	sp,ra,2b14 <fail>
    2a04:	00120213          	addi	tp,tp,1 # 1 <reset_vec+0x1>
    2a08:	00200293          	li	t0,2
    2a0c:	fe5214e3          	bne	tp,t0,29f4 <test_18+0x8>

00002a10 <test_19>:
    2a10:	01300e13          	li	t3,19
    2a14:	00000213          	li	tp,0
    2a18:	f00000b7          	lui	ra,0xf0000
    2a1c:	fff08093          	addi	ra,ra,-1 # efffffff <end+0xefff3f27>
    2a20:	f0000137          	lui	sp,0xf0000
    2a24:	00000013          	nop
    2a28:	0e20f663          	bleu	sp,ra,2b14 <fail>
    2a2c:	00120213          	addi	tp,tp,1 # 1 <reset_vec+0x1>
    2a30:	00200293          	li	t0,2
    2a34:	fe5212e3          	bne	tp,t0,2a18 <test_19+0x8>

00002a38 <test_20>:
    2a38:	01400e13          	li	t3,20
    2a3c:	00000213          	li	tp,0
    2a40:	f00000b7          	lui	ra,0xf0000
    2a44:	fff08093          	addi	ra,ra,-1 # efffffff <end+0xefff3f27>
    2a48:	f0000137          	lui	sp,0xf0000
    2a4c:	00000013          	nop
    2a50:	00000013          	nop
    2a54:	0c20f063          	bleu	sp,ra,2b14 <fail>
    2a58:	00120213          	addi	tp,tp,1 # 1 <reset_vec+0x1>
    2a5c:	00200293          	li	t0,2
    2a60:	fe5210e3          	bne	tp,t0,2a40 <test_20+0x8>

00002a64 <test_21>:
    2a64:	01500e13          	li	t3,21
    2a68:	00000213          	li	tp,0
    2a6c:	f00000b7          	lui	ra,0xf0000
    2a70:	fff08093          	addi	ra,ra,-1 # efffffff <end+0xefff3f27>
    2a74:	00000013          	nop
    2a78:	f0000137          	lui	sp,0xf0000
    2a7c:	0820fc63          	bleu	sp,ra,2b14 <fail>
    2a80:	00120213          	addi	tp,tp,1 # 1 <reset_vec+0x1>
    2a84:	00200293          	li	t0,2
    2a88:	fe5212e3          	bne	tp,t0,2a6c <test_21+0x8>

00002a8c <test_22>:
    2a8c:	01600e13          	li	t3,22
    2a90:	00000213          	li	tp,0
    2a94:	f00000b7          	lui	ra,0xf0000
    2a98:	fff08093          	addi	ra,ra,-1 # efffffff <end+0xefff3f27>
    2a9c:	00000013          	nop
    2aa0:	f0000137          	lui	sp,0xf0000
    2aa4:	00000013          	nop
    2aa8:	0620f663          	bleu	sp,ra,2b14 <fail>
    2aac:	00120213          	addi	tp,tp,1 # 1 <reset_vec+0x1>
    2ab0:	00200293          	li	t0,2
    2ab4:	fe5210e3          	bne	tp,t0,2a94 <test_22+0x8>

00002ab8 <test_23>:
    2ab8:	01700e13          	li	t3,23
    2abc:	00000213          	li	tp,0
    2ac0:	f00000b7          	lui	ra,0xf0000
    2ac4:	fff08093          	addi	ra,ra,-1 # efffffff <end+0xefff3f27>
    2ac8:	00000013          	nop
    2acc:	00000013          	nop
    2ad0:	f0000137          	lui	sp,0xf0000
    2ad4:	0420f063          	bleu	sp,ra,2b14 <fail>
    2ad8:	00120213          	addi	tp,tp,1 # 1 <reset_vec+0x1>
    2adc:	00200293          	li	t0,2
    2ae0:	fe5210e3          	bne	tp,t0,2ac0 <test_23+0x8>

00002ae4 <test_24>:
    2ae4:	00100093          	li	ra,1
    2ae8:	0000fa63          	bleu	zero,ra,2afc <test_24+0x18>
    2aec:	00108093          	addi	ra,ra,1
    2af0:	00108093          	addi	ra,ra,1
    2af4:	00108093          	addi	ra,ra,1
    2af8:	00108093          	addi	ra,ra,1
    2afc:	00108093          	addi	ra,ra,1
    2b00:	00108093          	addi	ra,ra,1
    2b04:	00300e93          	li	t4,3
    2b08:	01800e13          	li	t3,24
    2b0c:	01d09463          	bne	ra,t4,2b14 <fail>
    2b10:	03c01a63          	bne	zero,t3,2b44 <pass>

00002b14 <fail>:
    2b14:	10000537          	lui	a0,0x10000
    2b18:	04500593          	li	a1,69
    2b1c:	05200613          	li	a2,82
    2b20:	04f00693          	li	a3,79
    2b24:	00a00713          	li	a4,10
    2b28:	00b52023          	sw	a1,0(a0) # 10000000 <end+0xfff3f28>
    2b2c:	00c52023          	sw	a2,0(a0)
    2b30:	00c52023          	sw	a2,0(a0)
    2b34:	00d52023          	sw	a3,0(a0)
    2b38:	00c52023          	sw	a2,0(a0)
    2b3c:	00e52023          	sw	a4,0(a0)
    2b40:	00100073          	ebreak

00002b44 <pass>:
    2b44:	10000537          	lui	a0,0x10000
    2b48:	04f00593          	li	a1,79
    2b4c:	04b00613          	li	a2,75
    2b50:	00a00693          	li	a3,10
    2b54:	00b52023          	sw	a1,0(a0) # 10000000 <end+0xfff3f28>
    2b58:	00c52023          	sw	a2,0(a0)
    2b5c:	00d52023          	sw	a3,0(a0)
    2b60:	989fd06f          	j	4e8 <bgeu_ret>

00002b64 <blt>:
    2b64:	00003537          	lui	a0,0x3
    2b68:	b8450513          	addi	a0,a0,-1148 # 2b84 <.test_name>
    2b6c:	10000637          	lui	a2,0x10000

00002b70 <.prname_next>:
    2b70:	00050583          	lb	a1,0(a0)
    2b74:	00058a63          	beqz	a1,2b88 <.prname_done>
    2b78:	00b62023          	sw	a1,0(a2) # 10000000 <end+0xfff3f28>
    2b7c:	00150513          	addi	a0,a0,1
    2b80:	ff1ff06f          	j	2b70 <.prname_next>

00002b84 <.test_name>:
    2b84:	6c62                	flw	fs8,24(sp)
    2b86:	0074                	addi	a3,sp,12

00002b88 <.prname_done>:
    2b88:	02e00593          	li	a1,46
    2b8c:	00b62023          	sw	a1,0(a2)
    2b90:	00b62023          	sw	a1,0(a2)

00002b94 <test_2>:
    2b94:	00200e13          	li	t3,2
    2b98:	00000093          	li	ra,0
    2b9c:	00100113          	li	sp,1
    2ba0:	0020c663          	blt	ra,sp,2bac <test_2+0x18>
    2ba4:	2bc01863          	bne	zero,t3,2e54 <fail>
    2ba8:	01c01663          	bne	zero,t3,2bb4 <test_3>
    2bac:	fe20cee3          	blt	ra,sp,2ba8 <test_2+0x14>
    2bb0:	2bc01263          	bne	zero,t3,2e54 <fail>

00002bb4 <test_3>:
    2bb4:	00300e13          	li	t3,3
    2bb8:	fff00093          	li	ra,-1
    2bbc:	00100113          	li	sp,1
    2bc0:	0020c663          	blt	ra,sp,2bcc <test_3+0x18>
    2bc4:	29c01863          	bne	zero,t3,2e54 <fail>
    2bc8:	01c01663          	bne	zero,t3,2bd4 <test_4>
    2bcc:	fe20cee3          	blt	ra,sp,2bc8 <test_3+0x14>
    2bd0:	29c01263          	bne	zero,t3,2e54 <fail>

00002bd4 <test_4>:
    2bd4:	00400e13          	li	t3,4
    2bd8:	ffe00093          	li	ra,-2
    2bdc:	fff00113          	li	sp,-1
    2be0:	0020c663          	blt	ra,sp,2bec <test_4+0x18>
    2be4:	27c01863          	bne	zero,t3,2e54 <fail>
    2be8:	01c01663          	bne	zero,t3,2bf4 <test_5>
    2bec:	fe20cee3          	blt	ra,sp,2be8 <test_4+0x14>
    2bf0:	27c01263          	bne	zero,t3,2e54 <fail>

00002bf4 <test_5>:
    2bf4:	00500e13          	li	t3,5
    2bf8:	00100093          	li	ra,1
    2bfc:	00000113          	li	sp,0
    2c00:	0020c463          	blt	ra,sp,2c08 <test_5+0x14>
    2c04:	01c01463          	bne	zero,t3,2c0c <test_5+0x18>
    2c08:	25c01663          	bne	zero,t3,2e54 <fail>
    2c0c:	fe20cee3          	blt	ra,sp,2c08 <test_5+0x14>

00002c10 <test_6>:
    2c10:	00600e13          	li	t3,6
    2c14:	00100093          	li	ra,1
    2c18:	fff00113          	li	sp,-1
    2c1c:	0020c463          	blt	ra,sp,2c24 <test_6+0x14>
    2c20:	01c01463          	bne	zero,t3,2c28 <test_6+0x18>
    2c24:	23c01863          	bne	zero,t3,2e54 <fail>
    2c28:	fe20cee3          	blt	ra,sp,2c24 <test_6+0x14>

00002c2c <test_7>:
    2c2c:	00700e13          	li	t3,7
    2c30:	fff00093          	li	ra,-1
    2c34:	ffe00113          	li	sp,-2
    2c38:	0020c463          	blt	ra,sp,2c40 <test_7+0x14>
    2c3c:	01c01463          	bne	zero,t3,2c44 <test_7+0x18>
    2c40:	21c01a63          	bne	zero,t3,2e54 <fail>
    2c44:	fe20cee3          	blt	ra,sp,2c40 <test_7+0x14>

00002c48 <test_8>:
    2c48:	00800e13          	li	t3,8
    2c4c:	00100093          	li	ra,1
    2c50:	ffe00113          	li	sp,-2
    2c54:	0020c463          	blt	ra,sp,2c5c <test_8+0x14>
    2c58:	01c01463          	bne	zero,t3,2c60 <test_8+0x18>
    2c5c:	1fc01c63          	bne	zero,t3,2e54 <fail>
    2c60:	fe20cee3          	blt	ra,sp,2c5c <test_8+0x14>

00002c64 <test_9>:
    2c64:	00900e13          	li	t3,9
    2c68:	00000213          	li	tp,0
    2c6c:	00000093          	li	ra,0
    2c70:	fff00113          	li	sp,-1
    2c74:	1e20c063          	blt	ra,sp,2e54 <fail>
    2c78:	00120213          	addi	tp,tp,1 # 1 <reset_vec+0x1>
    2c7c:	00200293          	li	t0,2
    2c80:	fe5216e3          	bne	tp,t0,2c6c <test_9+0x8>

00002c84 <test_10>:
    2c84:	00a00e13          	li	t3,10
    2c88:	00000213          	li	tp,0
    2c8c:	00000093          	li	ra,0
    2c90:	fff00113          	li	sp,-1
    2c94:	00000013          	nop
    2c98:	1a20ce63          	blt	ra,sp,2e54 <fail>
    2c9c:	00120213          	addi	tp,tp,1 # 1 <reset_vec+0x1>
    2ca0:	00200293          	li	t0,2
    2ca4:	fe5214e3          	bne	tp,t0,2c8c <test_10+0x8>

00002ca8 <test_11>:
    2ca8:	00b00e13          	li	t3,11
    2cac:	00000213          	li	tp,0
    2cb0:	00000093          	li	ra,0
    2cb4:	fff00113          	li	sp,-1
    2cb8:	00000013          	nop
    2cbc:	00000013          	nop
    2cc0:	1820ca63          	blt	ra,sp,2e54 <fail>
    2cc4:	00120213          	addi	tp,tp,1 # 1 <reset_vec+0x1>
    2cc8:	00200293          	li	t0,2
    2ccc:	fe5212e3          	bne	tp,t0,2cb0 <test_11+0x8>

00002cd0 <test_12>:
    2cd0:	00c00e13          	li	t3,12
    2cd4:	00000213          	li	tp,0
    2cd8:	00000093          	li	ra,0
    2cdc:	00000013          	nop
    2ce0:	fff00113          	li	sp,-1
    2ce4:	1620c863          	blt	ra,sp,2e54 <fail>
    2ce8:	00120213          	addi	tp,tp,1 # 1 <reset_vec+0x1>
    2cec:	00200293          	li	t0,2
    2cf0:	fe5214e3          	bne	tp,t0,2cd8 <test_12+0x8>

00002cf4 <test_13>:
    2cf4:	00d00e13          	li	t3,13
    2cf8:	00000213          	li	tp,0
    2cfc:	00000093          	li	ra,0
    2d00:	00000013          	nop
    2d04:	fff00113          	li	sp,-1
    2d08:	00000013          	nop
    2d0c:	1420c463          	blt	ra,sp,2e54 <fail>
    2d10:	00120213          	addi	tp,tp,1 # 1 <reset_vec+0x1>
    2d14:	00200293          	li	t0,2
    2d18:	fe5212e3          	bne	tp,t0,2cfc <test_13+0x8>

00002d1c <test_14>:
    2d1c:	00e00e13          	li	t3,14
    2d20:	00000213          	li	tp,0
    2d24:	00000093          	li	ra,0
    2d28:	00000013          	nop
    2d2c:	00000013          	nop
    2d30:	fff00113          	li	sp,-1
    2d34:	1220c063          	blt	ra,sp,2e54 <fail>
    2d38:	00120213          	addi	tp,tp,1 # 1 <reset_vec+0x1>
    2d3c:	00200293          	li	t0,2
    2d40:	fe5212e3          	bne	tp,t0,2d24 <test_14+0x8>

00002d44 <test_15>:
    2d44:	00f00e13          	li	t3,15
    2d48:	00000213          	li	tp,0
    2d4c:	00000093          	li	ra,0
    2d50:	fff00113          	li	sp,-1
    2d54:	1020c063          	blt	ra,sp,2e54 <fail>
    2d58:	00120213          	addi	tp,tp,1 # 1 <reset_vec+0x1>
    2d5c:	00200293          	li	t0,2
    2d60:	fe5216e3          	bne	tp,t0,2d4c <test_15+0x8>

00002d64 <test_16>:
    2d64:	01000e13          	li	t3,16
    2d68:	00000213          	li	tp,0
    2d6c:	00000093          	li	ra,0
    2d70:	fff00113          	li	sp,-1
    2d74:	00000013          	nop
    2d78:	0c20ce63          	blt	ra,sp,2e54 <fail>
    2d7c:	00120213          	addi	tp,tp,1 # 1 <reset_vec+0x1>
    2d80:	00200293          	li	t0,2
    2d84:	fe5214e3          	bne	tp,t0,2d6c <test_16+0x8>

00002d88 <test_17>:
    2d88:	01100e13          	li	t3,17
    2d8c:	00000213          	li	tp,0
    2d90:	00000093          	li	ra,0
    2d94:	fff00113          	li	sp,-1
    2d98:	00000013          	nop
    2d9c:	00000013          	nop
    2da0:	0a20ca63          	blt	ra,sp,2e54 <fail>
    2da4:	00120213          	addi	tp,tp,1 # 1 <reset_vec+0x1>
    2da8:	00200293          	li	t0,2
    2dac:	fe5212e3          	bne	tp,t0,2d90 <test_17+0x8>

00002db0 <test_18>:
    2db0:	01200e13          	li	t3,18
    2db4:	00000213          	li	tp,0
    2db8:	00000093          	li	ra,0
    2dbc:	00000013          	nop
    2dc0:	fff00113          	li	sp,-1
    2dc4:	0820c863          	blt	ra,sp,2e54 <fail>
    2dc8:	00120213          	addi	tp,tp,1 # 1 <reset_vec+0x1>
    2dcc:	00200293          	li	t0,2
    2dd0:	fe5214e3          	bne	tp,t0,2db8 <test_18+0x8>

00002dd4 <test_19>:
    2dd4:	01300e13          	li	t3,19
    2dd8:	00000213          	li	tp,0
    2ddc:	00000093          	li	ra,0
    2de0:	00000013          	nop
    2de4:	fff00113          	li	sp,-1
    2de8:	00000013          	nop
    2dec:	0620c463          	blt	ra,sp,2e54 <fail>
    2df0:	00120213          	addi	tp,tp,1 # 1 <reset_vec+0x1>
    2df4:	00200293          	li	t0,2
    2df8:	fe5212e3          	bne	tp,t0,2ddc <test_19+0x8>

00002dfc <test_20>:
    2dfc:	01400e13          	li	t3,20
    2e00:	00000213          	li	tp,0
    2e04:	00000093          	li	ra,0
    2e08:	00000013          	nop
    2e0c:	00000013          	nop
    2e10:	fff00113          	li	sp,-1
    2e14:	0420c063          	blt	ra,sp,2e54 <fail>
    2e18:	00120213          	addi	tp,tp,1 # 1 <reset_vec+0x1>
    2e1c:	00200293          	li	t0,2
    2e20:	fe5212e3          	bne	tp,t0,2e04 <test_20+0x8>

00002e24 <test_21>:
    2e24:	00100093          	li	ra,1
    2e28:	00104a63          	bgtz	ra,2e3c <test_21+0x18>
    2e2c:	00108093          	addi	ra,ra,1
    2e30:	00108093          	addi	ra,ra,1
    2e34:	00108093          	addi	ra,ra,1
    2e38:	00108093          	addi	ra,ra,1
    2e3c:	00108093          	addi	ra,ra,1
    2e40:	00108093          	addi	ra,ra,1
    2e44:	00300e93          	li	t4,3
    2e48:	01500e13          	li	t3,21
    2e4c:	01d09463          	bne	ra,t4,2e54 <fail>
    2e50:	03c01a63          	bne	zero,t3,2e84 <pass>

00002e54 <fail>:
    2e54:	10000537          	lui	a0,0x10000
    2e58:	04500593          	li	a1,69
    2e5c:	05200613          	li	a2,82
    2e60:	04f00693          	li	a3,79
    2e64:	00a00713          	li	a4,10
    2e68:	00b52023          	sw	a1,0(a0) # 10000000 <end+0xfff3f28>
    2e6c:	00c52023          	sw	a2,0(a0)
    2e70:	00c52023          	sw	a2,0(a0)
    2e74:	00d52023          	sw	a3,0(a0)
    2e78:	00c52023          	sw	a2,0(a0)
    2e7c:	00e52023          	sw	a4,0(a0)
    2e80:	00100073          	ebreak

00002e84 <pass>:
    2e84:	10000537          	lui	a0,0x10000
    2e88:	04f00593          	li	a1,79
    2e8c:	04b00613          	li	a2,75
    2e90:	00a00693          	li	a3,10
    2e94:	00b52023          	sw	a1,0(a0) # 10000000 <end+0xfff3f28>
    2e98:	00c52023          	sw	a2,0(a0)
    2e9c:	00d52023          	sw	a3,0(a0)
    2ea0:	e24fd06f          	j	4c4 <blt_ret>

00002ea4 <bltu>:
    2ea4:	00003537          	lui	a0,0x3
    2ea8:	ec450513          	addi	a0,a0,-316 # 2ec4 <.test_name>
    2eac:	10000637          	lui	a2,0x10000

00002eb0 <.prname_next>:
    2eb0:	00050583          	lb	a1,0(a0)
    2eb4:	00058c63          	beqz	a1,2ecc <.prname_done>
    2eb8:	00b62023          	sw	a1,0(a2) # 10000000 <end+0xfff3f28>
    2ebc:	00150513          	addi	a0,a0,1
    2ec0:	ff1ff06f          	j	2eb0 <.prname_next>

00002ec4 <.test_name>:
    2ec4:	6c62                	flw	fs8,24(sp)
    2ec6:	7574                	flw	fa3,108(a0)
    2ec8:	0000                	unimp
	...

00002ecc <.prname_done>:
    2ecc:	02e00593          	li	a1,46
    2ed0:	00b62023          	sw	a1,0(a2)
    2ed4:	00b62023          	sw	a1,0(a2)

00002ed8 <test_2>:
    2ed8:	00200e13          	li	t3,2
    2edc:	00000093          	li	ra,0
    2ee0:	00100113          	li	sp,1
    2ee4:	0020e663          	bltu	ra,sp,2ef0 <test_2+0x18>
    2ee8:	2fc01263          	bne	zero,t3,31cc <fail>
    2eec:	01c01663          	bne	zero,t3,2ef8 <test_3>
    2ef0:	fe20eee3          	bltu	ra,sp,2eec <test_2+0x14>
    2ef4:	2dc01c63          	bne	zero,t3,31cc <fail>

00002ef8 <test_3>:
    2ef8:	00300e13          	li	t3,3
    2efc:	ffe00093          	li	ra,-2
    2f00:	fff00113          	li	sp,-1
    2f04:	0020e663          	bltu	ra,sp,2f10 <test_3+0x18>
    2f08:	2dc01263          	bne	zero,t3,31cc <fail>
    2f0c:	01c01663          	bne	zero,t3,2f18 <test_4>
    2f10:	fe20eee3          	bltu	ra,sp,2f0c <test_3+0x14>
    2f14:	2bc01c63          	bne	zero,t3,31cc <fail>

00002f18 <test_4>:
    2f18:	00400e13          	li	t3,4
    2f1c:	00000093          	li	ra,0
    2f20:	fff00113          	li	sp,-1
    2f24:	0020e663          	bltu	ra,sp,2f30 <test_4+0x18>
    2f28:	2bc01263          	bne	zero,t3,31cc <fail>
    2f2c:	01c01663          	bne	zero,t3,2f38 <test_5>
    2f30:	fe20eee3          	bltu	ra,sp,2f2c <test_4+0x14>
    2f34:	29c01c63          	bne	zero,t3,31cc <fail>

00002f38 <test_5>:
    2f38:	00500e13          	li	t3,5
    2f3c:	00100093          	li	ra,1
    2f40:	00000113          	li	sp,0
    2f44:	0020e463          	bltu	ra,sp,2f4c <test_5+0x14>
    2f48:	01c01463          	bne	zero,t3,2f50 <test_5+0x18>
    2f4c:	29c01063          	bne	zero,t3,31cc <fail>
    2f50:	fe20eee3          	bltu	ra,sp,2f4c <test_5+0x14>

00002f54 <test_6>:
    2f54:	00600e13          	li	t3,6
    2f58:	fff00093          	li	ra,-1
    2f5c:	ffe00113          	li	sp,-2
    2f60:	0020e463          	bltu	ra,sp,2f68 <test_6+0x14>
    2f64:	01c01463          	bne	zero,t3,2f6c <test_6+0x18>
    2f68:	27c01263          	bne	zero,t3,31cc <fail>
    2f6c:	fe20eee3          	bltu	ra,sp,2f68 <test_6+0x14>

00002f70 <test_7>:
    2f70:	00700e13          	li	t3,7
    2f74:	fff00093          	li	ra,-1
    2f78:	00000113          	li	sp,0
    2f7c:	0020e463          	bltu	ra,sp,2f84 <test_7+0x14>
    2f80:	01c01463          	bne	zero,t3,2f88 <test_7+0x18>
    2f84:	25c01463          	bne	zero,t3,31cc <fail>
    2f88:	fe20eee3          	bltu	ra,sp,2f84 <test_7+0x14>

00002f8c <test_8>:
    2f8c:	00800e13          	li	t3,8
    2f90:	800000b7          	lui	ra,0x80000
    2f94:	80000137          	lui	sp,0x80000
    2f98:	fff10113          	addi	sp,sp,-1 # 7fffffff <end+0x7fff3f27>
    2f9c:	0020e463          	bltu	ra,sp,2fa4 <test_8+0x18>
    2fa0:	01c01463          	bne	zero,t3,2fa8 <test_8+0x1c>
    2fa4:	23c01463          	bne	zero,t3,31cc <fail>
    2fa8:	fe20eee3          	bltu	ra,sp,2fa4 <test_8+0x18>

00002fac <test_9>:
    2fac:	00900e13          	li	t3,9
    2fb0:	00000213          	li	tp,0
    2fb4:	f00000b7          	lui	ra,0xf0000
    2fb8:	f0000137          	lui	sp,0xf0000
    2fbc:	fff10113          	addi	sp,sp,-1 # efffffff <end+0xefff3f27>
    2fc0:	2020e663          	bltu	ra,sp,31cc <fail>
    2fc4:	00120213          	addi	tp,tp,1 # 1 <reset_vec+0x1>
    2fc8:	00200293          	li	t0,2
    2fcc:	fe5214e3          	bne	tp,t0,2fb4 <test_9+0x8>

00002fd0 <test_10>:
    2fd0:	00a00e13          	li	t3,10
    2fd4:	00000213          	li	tp,0
    2fd8:	f00000b7          	lui	ra,0xf0000
    2fdc:	f0000137          	lui	sp,0xf0000
    2fe0:	fff10113          	addi	sp,sp,-1 # efffffff <end+0xefff3f27>
    2fe4:	00000013          	nop
    2fe8:	1e20e263          	bltu	ra,sp,31cc <fail>
    2fec:	00120213          	addi	tp,tp,1 # 1 <reset_vec+0x1>
    2ff0:	00200293          	li	t0,2
    2ff4:	fe5212e3          	bne	tp,t0,2fd8 <test_10+0x8>

00002ff8 <test_11>:
    2ff8:	00b00e13          	li	t3,11
    2ffc:	00000213          	li	tp,0
    3000:	f00000b7          	lui	ra,0xf0000
    3004:	f0000137          	lui	sp,0xf0000
    3008:	fff10113          	addi	sp,sp,-1 # efffffff <end+0xefff3f27>
    300c:	00000013          	nop
    3010:	00000013          	nop
    3014:	1a20ec63          	bltu	ra,sp,31cc <fail>
    3018:	00120213          	addi	tp,tp,1 # 1 <reset_vec+0x1>
    301c:	00200293          	li	t0,2
    3020:	fe5210e3          	bne	tp,t0,3000 <test_11+0x8>

00003024 <test_12>:
    3024:	00c00e13          	li	t3,12
    3028:	00000213          	li	tp,0
    302c:	f00000b7          	lui	ra,0xf0000
    3030:	00000013          	nop
    3034:	f0000137          	lui	sp,0xf0000
    3038:	fff10113          	addi	sp,sp,-1 # efffffff <end+0xefff3f27>
    303c:	1820e863          	bltu	ra,sp,31cc <fail>
    3040:	00120213          	addi	tp,tp,1 # 1 <reset_vec+0x1>
    3044:	00200293          	li	t0,2
    3048:	fe5212e3          	bne	tp,t0,302c <test_12+0x8>

0000304c <test_13>:
    304c:	00d00e13          	li	t3,13
    3050:	00000213          	li	tp,0
    3054:	f00000b7          	lui	ra,0xf0000
    3058:	00000013          	nop
    305c:	f0000137          	lui	sp,0xf0000
    3060:	fff10113          	addi	sp,sp,-1 # efffffff <end+0xefff3f27>
    3064:	00000013          	nop
    3068:	1620e263          	bltu	ra,sp,31cc <fail>
    306c:	00120213          	addi	tp,tp,1 # 1 <reset_vec+0x1>
    3070:	00200293          	li	t0,2
    3074:	fe5210e3          	bne	tp,t0,3054 <test_13+0x8>

00003078 <test_14>:
    3078:	00e00e13          	li	t3,14
    307c:	00000213          	li	tp,0
    3080:	f00000b7          	lui	ra,0xf0000
    3084:	00000013          	nop
    3088:	00000013          	nop
    308c:	f0000137          	lui	sp,0xf0000
    3090:	fff10113          	addi	sp,sp,-1 # efffffff <end+0xefff3f27>
    3094:	1220ec63          	bltu	ra,sp,31cc <fail>
    3098:	00120213          	addi	tp,tp,1 # 1 <reset_vec+0x1>
    309c:	00200293          	li	t0,2
    30a0:	fe5210e3          	bne	tp,t0,3080 <test_14+0x8>

000030a4 <test_15>:
    30a4:	00f00e13          	li	t3,15
    30a8:	00000213          	li	tp,0
    30ac:	f00000b7          	lui	ra,0xf0000
    30b0:	f0000137          	lui	sp,0xf0000
    30b4:	fff10113          	addi	sp,sp,-1 # efffffff <end+0xefff3f27>
    30b8:	1020ea63          	bltu	ra,sp,31cc <fail>
    30bc:	00120213          	addi	tp,tp,1 # 1 <reset_vec+0x1>
    30c0:	00200293          	li	t0,2
    30c4:	fe5214e3          	bne	tp,t0,30ac <test_15+0x8>

000030c8 <test_16>:
    30c8:	01000e13          	li	t3,16
    30cc:	00000213          	li	tp,0
    30d0:	f00000b7          	lui	ra,0xf0000
    30d4:	f0000137          	lui	sp,0xf0000
    30d8:	fff10113          	addi	sp,sp,-1 # efffffff <end+0xefff3f27>
    30dc:	00000013          	nop
    30e0:	0e20e663          	bltu	ra,sp,31cc <fail>
    30e4:	00120213          	addi	tp,tp,1 # 1 <reset_vec+0x1>
    30e8:	00200293          	li	t0,2
    30ec:	fe5212e3          	bne	tp,t0,30d0 <test_16+0x8>

000030f0 <test_17>:
    30f0:	01100e13          	li	t3,17
    30f4:	00000213          	li	tp,0
    30f8:	f00000b7          	lui	ra,0xf0000
    30fc:	f0000137          	lui	sp,0xf0000
    3100:	fff10113          	addi	sp,sp,-1 # efffffff <end+0xefff3f27>
    3104:	00000013          	nop
    3108:	00000013          	nop
    310c:	0c20e063          	bltu	ra,sp,31cc <fail>
    3110:	00120213          	addi	tp,tp,1 # 1 <reset_vec+0x1>
    3114:	00200293          	li	t0,2
    3118:	fe5210e3          	bne	tp,t0,30f8 <test_17+0x8>

0000311c <test_18>:
    311c:	01200e13          	li	t3,18
    3120:	00000213          	li	tp,0
    3124:	f00000b7          	lui	ra,0xf0000
    3128:	00000013          	nop
    312c:	f0000137          	lui	sp,0xf0000
    3130:	fff10113          	addi	sp,sp,-1 # efffffff <end+0xefff3f27>
    3134:	0820ec63          	bltu	ra,sp,31cc <fail>
    3138:	00120213          	addi	tp,tp,1 # 1 <reset_vec+0x1>
    313c:	00200293          	li	t0,2
    3140:	fe5212e3          	bne	tp,t0,3124 <test_18+0x8>

00003144 <test_19>:
    3144:	01300e13          	li	t3,19
    3148:	00000213          	li	tp,0
    314c:	f00000b7          	lui	ra,0xf0000
    3150:	00000013          	nop
    3154:	f0000137          	lui	sp,0xf0000
    3158:	fff10113          	addi	sp,sp,-1 # efffffff <end+0xefff3f27>
    315c:	00000013          	nop
    3160:	0620e663          	bltu	ra,sp,31cc <fail>
    3164:	00120213          	addi	tp,tp,1 # 1 <reset_vec+0x1>
    3168:	00200293          	li	t0,2
    316c:	fe5210e3          	bne	tp,t0,314c <test_19+0x8>

00003170 <test_20>:
    3170:	01400e13          	li	t3,20
    3174:	00000213          	li	tp,0
    3178:	f00000b7          	lui	ra,0xf0000
    317c:	00000013          	nop
    3180:	00000013          	nop
    3184:	f0000137          	lui	sp,0xf0000
    3188:	fff10113          	addi	sp,sp,-1 # efffffff <end+0xefff3f27>
    318c:	0420e063          	bltu	ra,sp,31cc <fail>
    3190:	00120213          	addi	tp,tp,1 # 1 <reset_vec+0x1>
    3194:	00200293          	li	t0,2
    3198:	fe5210e3          	bne	tp,t0,3178 <test_20+0x8>

0000319c <test_21>:
    319c:	00100093          	li	ra,1
    31a0:	00106a63          	bltu	zero,ra,31b4 <test_21+0x18>
    31a4:	00108093          	addi	ra,ra,1 # f0000001 <end+0xefff3f29>
    31a8:	00108093          	addi	ra,ra,1
    31ac:	00108093          	addi	ra,ra,1
    31b0:	00108093          	addi	ra,ra,1
    31b4:	00108093          	addi	ra,ra,1
    31b8:	00108093          	addi	ra,ra,1
    31bc:	00300e93          	li	t4,3
    31c0:	01500e13          	li	t3,21
    31c4:	01d09463          	bne	ra,t4,31cc <fail>
    31c8:	03c01a63          	bne	zero,t3,31fc <pass>

000031cc <fail>:
    31cc:	10000537          	lui	a0,0x10000
    31d0:	04500593          	li	a1,69
    31d4:	05200613          	li	a2,82
    31d8:	04f00693          	li	a3,79
    31dc:	00a00713          	li	a4,10
    31e0:	00b52023          	sw	a1,0(a0) # 10000000 <end+0xfff3f28>
    31e4:	00c52023          	sw	a2,0(a0)
    31e8:	00c52023          	sw	a2,0(a0)
    31ec:	00d52023          	sw	a3,0(a0)
    31f0:	00c52023          	sw	a2,0(a0)
    31f4:	00e52023          	sw	a4,0(a0)
    31f8:	00100073          	ebreak

000031fc <pass>:
    31fc:	10000537          	lui	a0,0x10000
    3200:	04f00593          	li	a1,79
    3204:	04b00613          	li	a2,75
    3208:	00a00693          	li	a3,10
    320c:	00b52023          	sw	a1,0(a0) # 10000000 <end+0xfff3f28>
    3210:	00c52023          	sw	a2,0(a0)
    3214:	00d52023          	sw	a3,0(a0)
    3218:	ac4fd06f          	j	4dc <bltu_ret>

0000321c <bne>:
    321c:	00003537          	lui	a0,0x3
    3220:	23c50513          	addi	a0,a0,572 # 323c <.test_name>
    3224:	10000637          	lui	a2,0x10000

00003228 <.prname_next>:
    3228:	00050583          	lb	a1,0(a0)
    322c:	00058a63          	beqz	a1,3240 <.prname_done>
    3230:	00b62023          	sw	a1,0(a2) # 10000000 <end+0xfff3f28>
    3234:	00150513          	addi	a0,a0,1
    3238:	ff1ff06f          	j	3228 <.prname_next>

0000323c <.test_name>:
    323c:	6e62                	flw	ft8,24(sp)
    323e:	0065                	c.nop	25

00003240 <.prname_done>:
    3240:	02e00593          	li	a1,46
    3244:	00b62023          	sw	a1,0(a2)
    3248:	00b62023          	sw	a1,0(a2)

0000324c <test_2>:
    324c:	00200e13          	li	t3,2
    3250:	00000093          	li	ra,0
    3254:	00100113          	li	sp,1
    3258:	00209663          	bne	ra,sp,3264 <test_2+0x18>
    325c:	2bc01a63          	bne	zero,t3,3510 <fail>
    3260:	01c01663          	bne	zero,t3,326c <test_3>
    3264:	fe209ee3          	bne	ra,sp,3260 <test_2+0x14>
    3268:	2bc01463          	bne	zero,t3,3510 <fail>

0000326c <test_3>:
    326c:	00300e13          	li	t3,3
    3270:	00100093          	li	ra,1
    3274:	00000113          	li	sp,0
    3278:	00209663          	bne	ra,sp,3284 <test_3+0x18>
    327c:	29c01a63          	bne	zero,t3,3510 <fail>
    3280:	01c01663          	bne	zero,t3,328c <test_4>
    3284:	fe209ee3          	bne	ra,sp,3280 <test_3+0x14>
    3288:	29c01463          	bne	zero,t3,3510 <fail>

0000328c <test_4>:
    328c:	00400e13          	li	t3,4
    3290:	fff00093          	li	ra,-1
    3294:	00100113          	li	sp,1
    3298:	00209663          	bne	ra,sp,32a4 <test_4+0x18>
    329c:	27c01a63          	bne	zero,t3,3510 <fail>
    32a0:	01c01663          	bne	zero,t3,32ac <test_5>
    32a4:	fe209ee3          	bne	ra,sp,32a0 <test_4+0x14>
    32a8:	27c01463          	bne	zero,t3,3510 <fail>

000032ac <test_5>:
    32ac:	00500e13          	li	t3,5
    32b0:	00100093          	li	ra,1
    32b4:	fff00113          	li	sp,-1
    32b8:	00209663          	bne	ra,sp,32c4 <test_5+0x18>
    32bc:	25c01a63          	bne	zero,t3,3510 <fail>
    32c0:	01c01663          	bne	zero,t3,32cc <test_6>
    32c4:	fe209ee3          	bne	ra,sp,32c0 <test_5+0x14>
    32c8:	25c01463          	bne	zero,t3,3510 <fail>

000032cc <test_6>:
    32cc:	00600e13          	li	t3,6
    32d0:	00000093          	li	ra,0
    32d4:	00000113          	li	sp,0
    32d8:	00209463          	bne	ra,sp,32e0 <test_6+0x14>
    32dc:	01c01463          	bne	zero,t3,32e4 <test_6+0x18>
    32e0:	23c01863          	bne	zero,t3,3510 <fail>
    32e4:	fe209ee3          	bne	ra,sp,32e0 <test_6+0x14>

000032e8 <test_7>:
    32e8:	00700e13          	li	t3,7
    32ec:	00100093          	li	ra,1
    32f0:	00100113          	li	sp,1
    32f4:	00209463          	bne	ra,sp,32fc <test_7+0x14>
    32f8:	01c01463          	bne	zero,t3,3300 <test_7+0x18>
    32fc:	21c01a63          	bne	zero,t3,3510 <fail>
    3300:	fe209ee3          	bne	ra,sp,32fc <test_7+0x14>

00003304 <test_8>:
    3304:	00800e13          	li	t3,8
    3308:	fff00093          	li	ra,-1
    330c:	fff00113          	li	sp,-1
    3310:	00209463          	bne	ra,sp,3318 <test_8+0x14>
    3314:	01c01463          	bne	zero,t3,331c <test_8+0x18>
    3318:	1fc01c63          	bne	zero,t3,3510 <fail>
    331c:	fe209ee3          	bne	ra,sp,3318 <test_8+0x14>

00003320 <test_9>:
    3320:	00900e13          	li	t3,9
    3324:	00000213          	li	tp,0
    3328:	00000093          	li	ra,0
    332c:	00000113          	li	sp,0
    3330:	1e209063          	bne	ra,sp,3510 <fail>
    3334:	00120213          	addi	tp,tp,1 # 1 <reset_vec+0x1>
    3338:	00200293          	li	t0,2
    333c:	fe5216e3          	bne	tp,t0,3328 <test_9+0x8>

00003340 <test_10>:
    3340:	00a00e13          	li	t3,10
    3344:	00000213          	li	tp,0
    3348:	00000093          	li	ra,0
    334c:	00000113          	li	sp,0
    3350:	00000013          	nop
    3354:	1a209e63          	bne	ra,sp,3510 <fail>
    3358:	00120213          	addi	tp,tp,1 # 1 <reset_vec+0x1>
    335c:	00200293          	li	t0,2
    3360:	fe5214e3          	bne	tp,t0,3348 <test_10+0x8>

00003364 <test_11>:
    3364:	00b00e13          	li	t3,11
    3368:	00000213          	li	tp,0
    336c:	00000093          	li	ra,0
    3370:	00000113          	li	sp,0
    3374:	00000013          	nop
    3378:	00000013          	nop
    337c:	18209a63          	bne	ra,sp,3510 <fail>
    3380:	00120213          	addi	tp,tp,1 # 1 <reset_vec+0x1>
    3384:	00200293          	li	t0,2
    3388:	fe5212e3          	bne	tp,t0,336c <test_11+0x8>

0000338c <test_12>:
    338c:	00c00e13          	li	t3,12
    3390:	00000213          	li	tp,0
    3394:	00000093          	li	ra,0
    3398:	00000013          	nop
    339c:	00000113          	li	sp,0
    33a0:	16209863          	bne	ra,sp,3510 <fail>
    33a4:	00120213          	addi	tp,tp,1 # 1 <reset_vec+0x1>
    33a8:	00200293          	li	t0,2
    33ac:	fe5214e3          	bne	tp,t0,3394 <test_12+0x8>

000033b0 <test_13>:
    33b0:	00d00e13          	li	t3,13
    33b4:	00000213          	li	tp,0
    33b8:	00000093          	li	ra,0
    33bc:	00000013          	nop
    33c0:	00000113          	li	sp,0
    33c4:	00000013          	nop
    33c8:	14209463          	bne	ra,sp,3510 <fail>
    33cc:	00120213          	addi	tp,tp,1 # 1 <reset_vec+0x1>
    33d0:	00200293          	li	t0,2
    33d4:	fe5212e3          	bne	tp,t0,33b8 <test_13+0x8>

000033d8 <test_14>:
    33d8:	00e00e13          	li	t3,14
    33dc:	00000213          	li	tp,0
    33e0:	00000093          	li	ra,0
    33e4:	00000013          	nop
    33e8:	00000013          	nop
    33ec:	00000113          	li	sp,0
    33f0:	12209063          	bne	ra,sp,3510 <fail>
    33f4:	00120213          	addi	tp,tp,1 # 1 <reset_vec+0x1>
    33f8:	00200293          	li	t0,2
    33fc:	fe5212e3          	bne	tp,t0,33e0 <test_14+0x8>

00003400 <test_15>:
    3400:	00f00e13          	li	t3,15
    3404:	00000213          	li	tp,0
    3408:	00000093          	li	ra,0
    340c:	00000113          	li	sp,0
    3410:	10209063          	bne	ra,sp,3510 <fail>
    3414:	00120213          	addi	tp,tp,1 # 1 <reset_vec+0x1>
    3418:	00200293          	li	t0,2
    341c:	fe5216e3          	bne	tp,t0,3408 <test_15+0x8>

00003420 <test_16>:
    3420:	01000e13          	li	t3,16
    3424:	00000213          	li	tp,0
    3428:	00000093          	li	ra,0
    342c:	00000113          	li	sp,0
    3430:	00000013          	nop
    3434:	0c209e63          	bne	ra,sp,3510 <fail>
    3438:	00120213          	addi	tp,tp,1 # 1 <reset_vec+0x1>
    343c:	00200293          	li	t0,2
    3440:	fe5214e3          	bne	tp,t0,3428 <test_16+0x8>

00003444 <test_17>:
    3444:	01100e13          	li	t3,17
    3448:	00000213          	li	tp,0
    344c:	00000093          	li	ra,0
    3450:	00000113          	li	sp,0
    3454:	00000013          	nop
    3458:	00000013          	nop
    345c:	0a209a63          	bne	ra,sp,3510 <fail>
    3460:	00120213          	addi	tp,tp,1 # 1 <reset_vec+0x1>
    3464:	00200293          	li	t0,2
    3468:	fe5212e3          	bne	tp,t0,344c <test_17+0x8>

0000346c <test_18>:
    346c:	01200e13          	li	t3,18
    3470:	00000213          	li	tp,0
    3474:	00000093          	li	ra,0
    3478:	00000013          	nop
    347c:	00000113          	li	sp,0
    3480:	08209863          	bne	ra,sp,3510 <fail>
    3484:	00120213          	addi	tp,tp,1 # 1 <reset_vec+0x1>
    3488:	00200293          	li	t0,2
    348c:	fe5214e3          	bne	tp,t0,3474 <test_18+0x8>

00003490 <test_19>:
    3490:	01300e13          	li	t3,19
    3494:	00000213          	li	tp,0
    3498:	00000093          	li	ra,0
    349c:	00000013          	nop
    34a0:	00000113          	li	sp,0
    34a4:	00000013          	nop
    34a8:	06209463          	bne	ra,sp,3510 <fail>
    34ac:	00120213          	addi	tp,tp,1 # 1 <reset_vec+0x1>
    34b0:	00200293          	li	t0,2
    34b4:	fe5212e3          	bne	tp,t0,3498 <test_19+0x8>

000034b8 <test_20>:
    34b8:	01400e13          	li	t3,20
    34bc:	00000213          	li	tp,0
    34c0:	00000093          	li	ra,0
    34c4:	00000013          	nop
    34c8:	00000013          	nop
    34cc:	00000113          	li	sp,0
    34d0:	04209063          	bne	ra,sp,3510 <fail>
    34d4:	00120213          	addi	tp,tp,1 # 1 <reset_vec+0x1>
    34d8:	00200293          	li	t0,2
    34dc:	fe5212e3          	bne	tp,t0,34c0 <test_20+0x8>

000034e0 <test_21>:
    34e0:	00100093          	li	ra,1
    34e4:	00009a63          	bnez	ra,34f8 <test_21+0x18>
    34e8:	00108093          	addi	ra,ra,1
    34ec:	00108093          	addi	ra,ra,1
    34f0:	00108093          	addi	ra,ra,1
    34f4:	00108093          	addi	ra,ra,1
    34f8:	00108093          	addi	ra,ra,1
    34fc:	00108093          	addi	ra,ra,1
    3500:	00300e93          	li	t4,3
    3504:	01500e13          	li	t3,21
    3508:	01d09463          	bne	ra,t4,3510 <fail>
    350c:	03c01a63          	bne	zero,t3,3540 <pass>

00003510 <fail>:
    3510:	10000537          	lui	a0,0x10000
    3514:	04500593          	li	a1,69
    3518:	05200613          	li	a2,82
    351c:	04f00693          	li	a3,79
    3520:	00a00713          	li	a4,10
    3524:	00b52023          	sw	a1,0(a0) # 10000000 <end+0xfff3f28>
    3528:	00c52023          	sw	a2,0(a0)
    352c:	00c52023          	sw	a2,0(a0)
    3530:	00d52023          	sw	a3,0(a0)
    3534:	00c52023          	sw	a2,0(a0)
    3538:	00e52023          	sw	a4,0(a0)
    353c:	00100073          	ebreak

00003540 <pass>:
    3540:	10000537          	lui	a0,0x10000
    3544:	04f00593          	li	a1,79
    3548:	04b00613          	li	a2,75
    354c:	00a00693          	li	a3,10
    3550:	00b52023          	sw	a1,0(a0) # 10000000 <end+0xfff3f28>
    3554:	00c52023          	sw	a2,0(a0)
    3558:	00d52023          	sw	a3,0(a0)
    355c:	f5dfc06f          	j	4b8 <bne_ret>

00003560 <div>:
    3560:	00003537          	lui	a0,0x3
    3564:	58050513          	addi	a0,a0,1408 # 3580 <.test_name>
    3568:	10000637          	lui	a2,0x10000

0000356c <.prname_next>:
    356c:	00050583          	lb	a1,0(a0)
    3570:	00058a63          	beqz	a1,3584 <.prname_done>
    3574:	00b62023          	sw	a1,0(a2) # 10000000 <end+0xfff3f28>
    3578:	00150513          	addi	a0,a0,1
    357c:	ff1ff06f          	j	356c <.prname_next>

00003580 <.test_name>:
    3580:	6964                	flw	fs1,84(a0)
    3582:	0076                	c.slli	zero,0x1d

00003584 <.prname_done>:
    3584:	02e00593          	li	a1,46
    3588:	00b62023          	sw	a1,0(a2)
    358c:	00b62023          	sw	a1,0(a2)

00003590 <test_2>:
    3590:	01400093          	li	ra,20
    3594:	00600113          	li	sp,6
    3598:	0220c1b3          	div	gp,ra,sp
    359c:	00300e93          	li	t4,3
    35a0:	00200e13          	li	t3,2
    35a4:	0dd19463          	bne	gp,t4,366c <fail>

000035a8 <test_3>:
    35a8:	fec00093          	li	ra,-20
    35ac:	00600113          	li	sp,6
    35b0:	0220c1b3          	div	gp,ra,sp
    35b4:	ffd00e93          	li	t4,-3
    35b8:	00300e13          	li	t3,3
    35bc:	0bd19863          	bne	gp,t4,366c <fail>

000035c0 <test_4>:
    35c0:	01400093          	li	ra,20
    35c4:	ffa00113          	li	sp,-6
    35c8:	0220c1b3          	div	gp,ra,sp
    35cc:	ffd00e93          	li	t4,-3
    35d0:	00400e13          	li	t3,4
    35d4:	09d19c63          	bne	gp,t4,366c <fail>

000035d8 <test_5>:
    35d8:	fec00093          	li	ra,-20
    35dc:	ffa00113          	li	sp,-6
    35e0:	0220c1b3          	div	gp,ra,sp
    35e4:	00300e93          	li	t4,3
    35e8:	00500e13          	li	t3,5
    35ec:	09d19063          	bne	gp,t4,366c <fail>

000035f0 <test_6>:
    35f0:	800000b7          	lui	ra,0x80000
    35f4:	00100113          	li	sp,1
    35f8:	0220c1b3          	div	gp,ra,sp
    35fc:	80000eb7          	lui	t4,0x80000
    3600:	00600e13          	li	t3,6
    3604:	07d19463          	bne	gp,t4,366c <fail>

00003608 <test_7>:
    3608:	800000b7          	lui	ra,0x80000
    360c:	fff00113          	li	sp,-1
    3610:	0220c1b3          	div	gp,ra,sp
    3614:	80000eb7          	lui	t4,0x80000
    3618:	00700e13          	li	t3,7
    361c:	05d19863          	bne	gp,t4,366c <fail>

00003620 <test_8>:
    3620:	800000b7          	lui	ra,0x80000
    3624:	00000113          	li	sp,0
    3628:	0220c1b3          	div	gp,ra,sp
    362c:	fff00e93          	li	t4,-1
    3630:	00800e13          	li	t3,8
    3634:	03d19c63          	bne	gp,t4,366c <fail>

00003638 <test_9>:
    3638:	00100093          	li	ra,1
    363c:	00000113          	li	sp,0
    3640:	0220c1b3          	div	gp,ra,sp
    3644:	fff00e93          	li	t4,-1
    3648:	00900e13          	li	t3,9
    364c:	03d19063          	bne	gp,t4,366c <fail>

00003650 <test_10>:
    3650:	00000093          	li	ra,0
    3654:	00000113          	li	sp,0
    3658:	0220c1b3          	div	gp,ra,sp
    365c:	fff00e93          	li	t4,-1
    3660:	00a00e13          	li	t3,10
    3664:	01d19463          	bne	gp,t4,366c <fail>
    3668:	03c01a63          	bne	zero,t3,369c <pass>

0000366c <fail>:
    366c:	10000537          	lui	a0,0x10000
    3670:	04500593          	li	a1,69
    3674:	05200613          	li	a2,82
    3678:	04f00693          	li	a3,79
    367c:	00a00713          	li	a4,10
    3680:	00b52023          	sw	a1,0(a0) # 10000000 <end+0xfff3f28>
    3684:	00c52023          	sw	a2,0(a0)
    3688:	00c52023          	sw	a2,0(a0)
    368c:	00d52023          	sw	a3,0(a0)
    3690:	00c52023          	sw	a2,0(a0)
    3694:	00e52023          	sw	a4,0(a0)
    3698:	00100073          	ebreak

0000369c <pass>:
    369c:	10000537          	lui	a0,0x10000
    36a0:	04f00593          	li	a1,79
    36a4:	04b00613          	li	a2,75
    36a8:	00a00693          	li	a3,10
    36ac:	00b52023          	sw	a1,0(a0) # 10000000 <end+0xfff3f28>
    36b0:	00c52023          	sw	a2,0(a0)
    36b4:	00d52023          	sw	a3,0(a0)
    36b8:	f99fc06f          	j	650 <div_ret>

000036bc <divu>:
    36bc:	00003537          	lui	a0,0x3
    36c0:	6dc50513          	addi	a0,a0,1756 # 36dc <.test_name>
    36c4:	10000637          	lui	a2,0x10000

000036c8 <.prname_next>:
    36c8:	00050583          	lb	a1,0(a0)
    36cc:	00058c63          	beqz	a1,36e4 <.prname_done>
    36d0:	00b62023          	sw	a1,0(a2) # 10000000 <end+0xfff3f28>
    36d4:	00150513          	addi	a0,a0,1
    36d8:	ff1ff06f          	j	36c8 <.prname_next>

000036dc <.test_name>:
    36dc:	6964                	flw	fs1,84(a0)
    36de:	7576                	flw	fa0,124(sp)
    36e0:	0000                	unimp
	...

000036e4 <.prname_done>:
    36e4:	02e00593          	li	a1,46
    36e8:	00b62023          	sw	a1,0(a2)
    36ec:	00b62023          	sw	a1,0(a2)

000036f0 <test_2>:
    36f0:	01400093          	li	ra,20
    36f4:	00600113          	li	sp,6
    36f8:	0220d1b3          	divu	gp,ra,sp
    36fc:	00300e93          	li	t4,3
    3700:	00200e13          	li	t3,2
    3704:	0dd19663          	bne	gp,t4,37d0 <fail>

00003708 <test_3>:
    3708:	fec00093          	li	ra,-20
    370c:	00600113          	li	sp,6
    3710:	0220d1b3          	divu	gp,ra,sp
    3714:	2aaabeb7          	lui	t4,0x2aaab
    3718:	aa7e8e93          	addi	t4,t4,-1369 # 2aaaaaa7 <end+0x2aa9e9cf>
    371c:	00300e13          	li	t3,3
    3720:	0bd19863          	bne	gp,t4,37d0 <fail>

00003724 <test_4>:
    3724:	01400093          	li	ra,20
    3728:	ffa00113          	li	sp,-6
    372c:	0220d1b3          	divu	gp,ra,sp
    3730:	00000e93          	li	t4,0
    3734:	00400e13          	li	t3,4
    3738:	09d19c63          	bne	gp,t4,37d0 <fail>

0000373c <test_5>:
    373c:	fec00093          	li	ra,-20
    3740:	ffa00113          	li	sp,-6
    3744:	0220d1b3          	divu	gp,ra,sp
    3748:	00000e93          	li	t4,0
    374c:	00500e13          	li	t3,5
    3750:	09d19063          	bne	gp,t4,37d0 <fail>

00003754 <test_6>:
    3754:	800000b7          	lui	ra,0x80000
    3758:	00100113          	li	sp,1
    375c:	0220d1b3          	divu	gp,ra,sp
    3760:	80000eb7          	lui	t4,0x80000
    3764:	00600e13          	li	t3,6
    3768:	07d19463          	bne	gp,t4,37d0 <fail>

0000376c <test_7>:
    376c:	800000b7          	lui	ra,0x80000
    3770:	fff00113          	li	sp,-1
    3774:	0220d1b3          	divu	gp,ra,sp
    3778:	00000e93          	li	t4,0
    377c:	00700e13          	li	t3,7
    3780:	05d19863          	bne	gp,t4,37d0 <fail>

00003784 <test_8>:
    3784:	800000b7          	lui	ra,0x80000
    3788:	00000113          	li	sp,0
    378c:	0220d1b3          	divu	gp,ra,sp
    3790:	fff00e93          	li	t4,-1
    3794:	00800e13          	li	t3,8
    3798:	03d19c63          	bne	gp,t4,37d0 <fail>

0000379c <test_9>:
    379c:	00100093          	li	ra,1
    37a0:	00000113          	li	sp,0
    37a4:	0220d1b3          	divu	gp,ra,sp
    37a8:	fff00e93          	li	t4,-1
    37ac:	00900e13          	li	t3,9
    37b0:	03d19063          	bne	gp,t4,37d0 <fail>

000037b4 <test_10>:
    37b4:	00000093          	li	ra,0
    37b8:	00000113          	li	sp,0
    37bc:	0220d1b3          	divu	gp,ra,sp
    37c0:	fff00e93          	li	t4,-1
    37c4:	00a00e13          	li	t3,10
    37c8:	01d19463          	bne	gp,t4,37d0 <fail>
    37cc:	03c01a63          	bne	zero,t3,3800 <pass>

000037d0 <fail>:
    37d0:	10000537          	lui	a0,0x10000
    37d4:	04500593          	li	a1,69
    37d8:	05200613          	li	a2,82
    37dc:	04f00693          	li	a3,79
    37e0:	00a00713          	li	a4,10
    37e4:	00b52023          	sw	a1,0(a0) # 10000000 <end+0xfff3f28>
    37e8:	00c52023          	sw	a2,0(a0)
    37ec:	00c52023          	sw	a2,0(a0)
    37f0:	00d52023          	sw	a3,0(a0)
    37f4:	00c52023          	sw	a2,0(a0)
    37f8:	00e52023          	sw	a4,0(a0)
    37fc:	00100073          	ebreak

00003800 <pass>:
    3800:	10000537          	lui	a0,0x10000
    3804:	04f00593          	li	a1,79
    3808:	04b00613          	li	a2,75
    380c:	00a00693          	li	a3,10
    3810:	00b52023          	sw	a1,0(a0) # 10000000 <end+0xfff3f28>
    3814:	00c52023          	sw	a2,0(a0)
    3818:	00d52023          	sw	a3,0(a0)
    381c:	e41fc06f          	j	65c <divu_ret>

00003820 <j>:
    3820:	00004537          	lui	a0,0x4
    3824:	84050513          	addi	a0,a0,-1984 # 3840 <.test_name>
    3828:	10000637          	lui	a2,0x10000

0000382c <.prname_next>:
    382c:	00050583          	lb	a1,0(a0)
    3830:	00058a63          	beqz	a1,3844 <.prname_done>
    3834:	00b62023          	sw	a1,0(a2) # 10000000 <end+0xfff3f28>
    3838:	00150513          	addi	a0,a0,1
    383c:	ff1ff06f          	j	382c <.prname_next>

00003840 <.test_name>:
    3840:	006a                	c.slli	zero,0x1a
	...

00003844 <.prname_done>:
    3844:	02e00593          	li	a1,46
    3848:	00b62023          	sw	a1,0(a2)
    384c:	00b62023          	sw	a1,0(a2)
    3850:	00200e13          	li	t3,2
    3854:	0080006f          	j	385c <test_2>
    3858:	0340006f          	j	388c <fail>

0000385c <test_2>:
    385c:	00100093          	li	ra,1
    3860:	0140006f          	j	3874 <test_2+0x18>
    3864:	00108093          	addi	ra,ra,1 # 80000001 <end+0x7fff3f29>
    3868:	00108093          	addi	ra,ra,1
    386c:	00108093          	addi	ra,ra,1
    3870:	00108093          	addi	ra,ra,1
    3874:	00108093          	addi	ra,ra,1
    3878:	00108093          	addi	ra,ra,1
    387c:	00300e93          	li	t4,3
    3880:	00300e13          	li	t3,3
    3884:	01d09463          	bne	ra,t4,388c <fail>
    3888:	03c01a63          	bne	zero,t3,38bc <pass>

0000388c <fail>:
    388c:	10000537          	lui	a0,0x10000
    3890:	04500593          	li	a1,69
    3894:	05200613          	li	a2,82
    3898:	04f00693          	li	a3,79
    389c:	00a00713          	li	a4,10
    38a0:	00b52023          	sw	a1,0(a0) # 10000000 <end+0xfff3f28>
    38a4:	00c52023          	sw	a2,0(a0)
    38a8:	00c52023          	sw	a2,0(a0)
    38ac:	00d52023          	sw	a3,0(a0)
    38b0:	00c52023          	sw	a2,0(a0)
    38b4:	00e52023          	sw	a4,0(a0)
    38b8:	00100073          	ebreak

000038bc <pass>:
    38bc:	10000537          	lui	a0,0x10000
    38c0:	04f00593          	li	a1,79
    38c4:	04b00613          	li	a2,75
    38c8:	00a00693          	li	a3,10
    38cc:	00b52023          	sw	a1,0(a0) # 10000000 <end+0xfff3f28>
    38d0:	00c52023          	sw	a2,0(a0)
    38d4:	00d52023          	sw	a3,0(a0)
    38d8:	bb1fc06f          	j	488 <j_ret>

000038dc <jal>:
    38dc:	00004537          	lui	a0,0x4
    38e0:	8fc50513          	addi	a0,a0,-1796 # 38fc <.test_name>
    38e4:	10000637          	lui	a2,0x10000

000038e8 <.prname_next>:
    38e8:	00050583          	lb	a1,0(a0)
    38ec:	00058a63          	beqz	a1,3900 <.prname_done>
    38f0:	00b62023          	sw	a1,0(a2) # 10000000 <end+0xfff3f28>
    38f4:	00150513          	addi	a0,a0,1
    38f8:	ff1ff06f          	j	38e8 <.prname_next>

000038fc <.test_name>:
    38fc:	616a                	flw	ft2,152(sp)
    38fe:	006c                	addi	a1,sp,12

00003900 <.prname_done>:
    3900:	02e00593          	li	a1,46
    3904:	00b62023          	sw	a1,0(a2)
    3908:	00b62023          	sw	a1,0(a2)

0000390c <test_2>:
    390c:	00200e13          	li	t3,2
    3910:	00000093          	li	ra,0

00003914 <linkaddr_2>:
    3914:	010000ef          	jal	ra,3924 <target_2>
    3918:	00000013          	nop
    391c:	00000013          	nop
    3920:	0440006f          	j	3964 <fail>

00003924 <target_2>:
    3924:	00000117          	auipc	sp,0x0
    3928:	ff010113          	addi	sp,sp,-16 # 3914 <linkaddr_2>
    392c:	00410113          	addi	sp,sp,4
    3930:	02111a63          	bne	sp,ra,3964 <fail>

00003934 <test_3>:
    3934:	00100113          	li	sp,1
    3938:	014000ef          	jal	ra,394c <test_3+0x18>
    393c:	00110113          	addi	sp,sp,1
    3940:	00110113          	addi	sp,sp,1
    3944:	00110113          	addi	sp,sp,1
    3948:	00110113          	addi	sp,sp,1
    394c:	00110113          	addi	sp,sp,1
    3950:	00110113          	addi	sp,sp,1
    3954:	00300e93          	li	t4,3
    3958:	00300e13          	li	t3,3
    395c:	01d11463          	bne	sp,t4,3964 <fail>
    3960:	03c01a63          	bne	zero,t3,3994 <pass>

00003964 <fail>:
    3964:	10000537          	lui	a0,0x10000
    3968:	04500593          	li	a1,69
    396c:	05200613          	li	a2,82
    3970:	04f00693          	li	a3,79
    3974:	00a00713          	li	a4,10
    3978:	00b52023          	sw	a1,0(a0) # 10000000 <end+0xfff3f28>
    397c:	00c52023          	sw	a2,0(a0)
    3980:	00c52023          	sw	a2,0(a0)
    3984:	00d52023          	sw	a3,0(a0)
    3988:	00c52023          	sw	a2,0(a0)
    398c:	00e52023          	sw	a4,0(a0)
    3990:	00100073          	ebreak

00003994 <pass>:
    3994:	10000537          	lui	a0,0x10000
    3998:	04f00593          	li	a1,79
    399c:	04b00613          	li	a2,75
    39a0:	00a00693          	li	a3,10
    39a4:	00b52023          	sw	a1,0(a0) # 10000000 <end+0xfff3f28>
    39a8:	00c52023          	sw	a2,0(a0)
    39ac:	00d52023          	sw	a3,0(a0)
    39b0:	ae5fc06f          	j	494 <jal_ret>

000039b4 <jalr>:
    39b4:	00004537          	lui	a0,0x4
    39b8:	9d450513          	addi	a0,a0,-1580 # 39d4 <.test_name>
    39bc:	10000637          	lui	a2,0x10000

000039c0 <.prname_next>:
    39c0:	00050583          	lb	a1,0(a0)
    39c4:	00058c63          	beqz	a1,39dc <.prname_done>
    39c8:	00b62023          	sw	a1,0(a2) # 10000000 <end+0xfff3f28>
    39cc:	00150513          	addi	a0,a0,1
    39d0:	ff1ff06f          	j	39c0 <.prname_next>

000039d4 <.test_name>:
    39d4:	616a                	flw	ft2,152(sp)
    39d6:	726c                	flw	fa1,100(a2)
    39d8:	0000                	unimp
	...

000039dc <.prname_done>:
    39dc:	02e00593          	li	a1,46
    39e0:	00b62023          	sw	a1,0(a2)
    39e4:	00b62023          	sw	a1,0(a2)

000039e8 <test_2>:
    39e8:	00200e13          	li	t3,2
    39ec:	00000f93          	li	t6,0
    39f0:	00000117          	auipc	sp,0x0
    39f4:	01810113          	addi	sp,sp,24 # 3a08 <target_2>

000039f8 <linkaddr_2>:
    39f8:	000109e7          	jalr	s3,sp
    39fc:	00000013          	nop
    3a00:	00000013          	nop
    3a04:	0e40006f          	j	3ae8 <fail>

00003a08 <target_2>:
    3a08:	00000097          	auipc	ra,0x0
    3a0c:	ff008093          	addi	ra,ra,-16 # 39f8 <linkaddr_2>
    3a10:	00408093          	addi	ra,ra,4
    3a14:	0d309a63          	bne	ra,s3,3ae8 <fail>

00003a18 <test_3>:
    3a18:	00300e13          	li	t3,3
    3a1c:	00000f93          	li	t6,0
    3a20:	00000197          	auipc	gp,0x0
    3a24:	01418193          	addi	gp,gp,20 # 3a34 <target_3>

00003a28 <linkaddr_3>:
    3a28:	00018067          	jr	gp
    3a2c:	00000013          	nop
    3a30:	0b80006f          	j	3ae8 <fail>

00003a34 <target_3>:
    3a34:	0a0f9a63          	bnez	t6,3ae8 <fail>

00003a38 <test_4>:
    3a38:	00400e13          	li	t3,4
    3a3c:	00000213          	li	tp,0
    3a40:	00000317          	auipc	t1,0x0
    3a44:	01030313          	addi	t1,t1,16 # 3a50 <test_4+0x18>
    3a48:	000309e7          	jalr	s3,t1
    3a4c:	09c01e63          	bne	zero,t3,3ae8 <fail>
    3a50:	00120213          	addi	tp,tp,1 # 1 <reset_vec+0x1>
    3a54:	00200293          	li	t0,2
    3a58:	fe5214e3          	bne	tp,t0,3a40 <test_4+0x8>

00003a5c <test_5>:
    3a5c:	00500e13          	li	t3,5
    3a60:	00000213          	li	tp,0
    3a64:	00000317          	auipc	t1,0x0
    3a68:	01430313          	addi	t1,t1,20 # 3a78 <test_5+0x1c>
    3a6c:	00000013          	nop
    3a70:	000309e7          	jalr	s3,t1
    3a74:	07c01a63          	bne	zero,t3,3ae8 <fail>
    3a78:	00120213          	addi	tp,tp,1 # 1 <reset_vec+0x1>
    3a7c:	00200293          	li	t0,2
    3a80:	fe5212e3          	bne	tp,t0,3a64 <test_5+0x8>

00003a84 <test_6>:
    3a84:	00600e13          	li	t3,6
    3a88:	00000213          	li	tp,0
    3a8c:	00000317          	auipc	t1,0x0
    3a90:	01830313          	addi	t1,t1,24 # 3aa4 <test_6+0x20>
    3a94:	00000013          	nop
    3a98:	00000013          	nop
    3a9c:	000309e7          	jalr	s3,t1
    3aa0:	05c01463          	bne	zero,t3,3ae8 <fail>
    3aa4:	00120213          	addi	tp,tp,1 # 1 <reset_vec+0x1>
    3aa8:	00200293          	li	t0,2
    3aac:	fe5210e3          	bne	tp,t0,3a8c <test_6+0x8>

00003ab0 <test_7>:
    3ab0:	00100093          	li	ra,1
    3ab4:	00000117          	auipc	sp,0x0
    3ab8:	01c10113          	addi	sp,sp,28 # 3ad0 <test_7+0x20>
    3abc:	ffc109e7          	jalr	s3,-4(sp)
    3ac0:	00108093          	addi	ra,ra,1
    3ac4:	00108093          	addi	ra,ra,1
    3ac8:	00108093          	addi	ra,ra,1
    3acc:	00108093          	addi	ra,ra,1
    3ad0:	00108093          	addi	ra,ra,1
    3ad4:	00108093          	addi	ra,ra,1
    3ad8:	00400e93          	li	t4,4
    3adc:	00700e13          	li	t3,7
    3ae0:	01d09463          	bne	ra,t4,3ae8 <fail>
    3ae4:	03c01a63          	bne	zero,t3,3b18 <pass>

00003ae8 <fail>:
    3ae8:	10000537          	lui	a0,0x10000
    3aec:	04500593          	li	a1,69
    3af0:	05200613          	li	a2,82
    3af4:	04f00693          	li	a3,79
    3af8:	00a00713          	li	a4,10
    3afc:	00b52023          	sw	a1,0(a0) # 10000000 <end+0xfff3f28>
    3b00:	00c52023          	sw	a2,0(a0)
    3b04:	00c52023          	sw	a2,0(a0)
    3b08:	00d52023          	sw	a3,0(a0)
    3b0c:	00c52023          	sw	a2,0(a0)
    3b10:	00e52023          	sw	a4,0(a0)
    3b14:	00100073          	ebreak

00003b18 <pass>:
    3b18:	10000537          	lui	a0,0x10000
    3b1c:	04f00593          	li	a1,79
    3b20:	04b00613          	li	a2,75
    3b24:	00a00693          	li	a3,10
    3b28:	00b52023          	sw	a1,0(a0) # 10000000 <end+0xfff3f28>
    3b2c:	00c52023          	sw	a2,0(a0)
    3b30:	00d52023          	sw	a3,0(a0)
    3b34:	96dfc06f          	j	4a0 <jalr_ret>

00003b38 <lb>:
    3b38:	00004537          	lui	a0,0x4
    3b3c:	b5850513          	addi	a0,a0,-1192 # 3b58 <.test_name>
    3b40:	10000637          	lui	a2,0x10000

00003b44 <.prname_next>:
    3b44:	00050583          	lb	a1,0(a0)
    3b48:	00058a63          	beqz	a1,3b5c <.prname_done>
    3b4c:	00b62023          	sw	a1,0(a2) # 10000000 <end+0xfff3f28>
    3b50:	00150513          	addi	a0,a0,1
    3b54:	ff1ff06f          	j	3b44 <.prname_next>

00003b58 <.test_name>:
    3b58:	626c                	flw	fa1,68(a2)
	...

00003b5c <.prname_done>:
    3b5c:	02e00593          	li	a1,46
    3b60:	00b62023          	sw	a1,0(a2)
    3b64:	00b62023          	sw	a1,0(a2)

00003b68 <test_2>:
    3b68:	00008097          	auipc	ra,0x8
    3b6c:	36008093          	addi	ra,ra,864 # bec8 <tdat>
    3b70:	00008183          	lb	gp,0(ra)
    3b74:	fff00e93          	li	t4,-1
    3b78:	00200e13          	li	t3,2
    3b7c:	23d19c63          	bne	gp,t4,3db4 <fail>

00003b80 <test_3>:
    3b80:	00008097          	auipc	ra,0x8
    3b84:	34808093          	addi	ra,ra,840 # bec8 <tdat>
    3b88:	00108183          	lb	gp,1(ra)
    3b8c:	00000e93          	li	t4,0
    3b90:	00300e13          	li	t3,3
    3b94:	23d19063          	bne	gp,t4,3db4 <fail>

00003b98 <test_4>:
    3b98:	00008097          	auipc	ra,0x8
    3b9c:	33008093          	addi	ra,ra,816 # bec8 <tdat>
    3ba0:	00208183          	lb	gp,2(ra)
    3ba4:	ff000e93          	li	t4,-16
    3ba8:	00400e13          	li	t3,4
    3bac:	21d19463          	bne	gp,t4,3db4 <fail>

00003bb0 <test_5>:
    3bb0:	00008097          	auipc	ra,0x8
    3bb4:	31808093          	addi	ra,ra,792 # bec8 <tdat>
    3bb8:	00308183          	lb	gp,3(ra)
    3bbc:	00f00e93          	li	t4,15
    3bc0:	00500e13          	li	t3,5
    3bc4:	1fd19863          	bne	gp,t4,3db4 <fail>

00003bc8 <test_6>:
    3bc8:	00008097          	auipc	ra,0x8
    3bcc:	30308093          	addi	ra,ra,771 # becb <tdat4>
    3bd0:	ffd08183          	lb	gp,-3(ra)
    3bd4:	fff00e93          	li	t4,-1
    3bd8:	00600e13          	li	t3,6
    3bdc:	1dd19c63          	bne	gp,t4,3db4 <fail>

00003be0 <test_7>:
    3be0:	00008097          	auipc	ra,0x8
    3be4:	2eb08093          	addi	ra,ra,747 # becb <tdat4>
    3be8:	ffe08183          	lb	gp,-2(ra)
    3bec:	00000e93          	li	t4,0
    3bf0:	00700e13          	li	t3,7
    3bf4:	1dd19063          	bne	gp,t4,3db4 <fail>

00003bf8 <test_8>:
    3bf8:	00008097          	auipc	ra,0x8
    3bfc:	2d308093          	addi	ra,ra,723 # becb <tdat4>
    3c00:	fff08183          	lb	gp,-1(ra)
    3c04:	ff000e93          	li	t4,-16
    3c08:	00800e13          	li	t3,8
    3c0c:	1bd19463          	bne	gp,t4,3db4 <fail>

00003c10 <test_9>:
    3c10:	00008097          	auipc	ra,0x8
    3c14:	2bb08093          	addi	ra,ra,699 # becb <tdat4>
    3c18:	00008183          	lb	gp,0(ra)
    3c1c:	00f00e93          	li	t4,15
    3c20:	00900e13          	li	t3,9
    3c24:	19d19863          	bne	gp,t4,3db4 <fail>

00003c28 <test_10>:
    3c28:	00008097          	auipc	ra,0x8
    3c2c:	2a008093          	addi	ra,ra,672 # bec8 <tdat>
    3c30:	fe008093          	addi	ra,ra,-32
    3c34:	02008183          	lb	gp,32(ra)
    3c38:	fff00e93          	li	t4,-1
    3c3c:	00a00e13          	li	t3,10
    3c40:	17d19a63          	bne	gp,t4,3db4 <fail>

00003c44 <test_11>:
    3c44:	00008097          	auipc	ra,0x8
    3c48:	28408093          	addi	ra,ra,644 # bec8 <tdat>
    3c4c:	ffa08093          	addi	ra,ra,-6
    3c50:	00708183          	lb	gp,7(ra)
    3c54:	00000e93          	li	t4,0
    3c58:	00b00e13          	li	t3,11
    3c5c:	15d19c63          	bne	gp,t4,3db4 <fail>

00003c60 <test_12>:
    3c60:	00c00e13          	li	t3,12
    3c64:	00000213          	li	tp,0
    3c68:	00008097          	auipc	ra,0x8
    3c6c:	26108093          	addi	ra,ra,609 # bec9 <tdat2>
    3c70:	00108183          	lb	gp,1(ra)
    3c74:	00018313          	mv	t1,gp
    3c78:	ff000e93          	li	t4,-16
    3c7c:	13d31c63          	bne	t1,t4,3db4 <fail>
    3c80:	00120213          	addi	tp,tp,1 # 1 <reset_vec+0x1>
    3c84:	00200293          	li	t0,2
    3c88:	fe5210e3          	bne	tp,t0,3c68 <test_12+0x8>

00003c8c <test_13>:
    3c8c:	00d00e13          	li	t3,13
    3c90:	00000213          	li	tp,0
    3c94:	00008097          	auipc	ra,0x8
    3c98:	23608093          	addi	ra,ra,566 # beca <tdat3>
    3c9c:	00108183          	lb	gp,1(ra)
    3ca0:	00000013          	nop
    3ca4:	00018313          	mv	t1,gp
    3ca8:	00f00e93          	li	t4,15
    3cac:	11d31463          	bne	t1,t4,3db4 <fail>
    3cb0:	00120213          	addi	tp,tp,1 # 1 <reset_vec+0x1>
    3cb4:	00200293          	li	t0,2
    3cb8:	fc521ee3          	bne	tp,t0,3c94 <test_13+0x8>

00003cbc <test_14>:
    3cbc:	00e00e13          	li	t3,14
    3cc0:	00000213          	li	tp,0
    3cc4:	00008097          	auipc	ra,0x8
    3cc8:	20408093          	addi	ra,ra,516 # bec8 <tdat>
    3ccc:	00108183          	lb	gp,1(ra)
    3cd0:	00000013          	nop
    3cd4:	00000013          	nop
    3cd8:	00018313          	mv	t1,gp
    3cdc:	00000e93          	li	t4,0
    3ce0:	0dd31a63          	bne	t1,t4,3db4 <fail>
    3ce4:	00120213          	addi	tp,tp,1 # 1 <reset_vec+0x1>
    3ce8:	00200293          	li	t0,2
    3cec:	fc521ce3          	bne	tp,t0,3cc4 <test_14+0x8>

00003cf0 <test_15>:
    3cf0:	00f00e13          	li	t3,15
    3cf4:	00000213          	li	tp,0
    3cf8:	00008097          	auipc	ra,0x8
    3cfc:	1d108093          	addi	ra,ra,465 # bec9 <tdat2>
    3d00:	00108183          	lb	gp,1(ra)
    3d04:	ff000e93          	li	t4,-16
    3d08:	0bd19663          	bne	gp,t4,3db4 <fail>
    3d0c:	00120213          	addi	tp,tp,1 # 1 <reset_vec+0x1>
    3d10:	00200293          	li	t0,2
    3d14:	fe5212e3          	bne	tp,t0,3cf8 <test_15+0x8>

00003d18 <test_16>:
    3d18:	01000e13          	li	t3,16
    3d1c:	00000213          	li	tp,0
    3d20:	00008097          	auipc	ra,0x8
    3d24:	1aa08093          	addi	ra,ra,426 # beca <tdat3>
    3d28:	00000013          	nop
    3d2c:	00108183          	lb	gp,1(ra)
    3d30:	00f00e93          	li	t4,15
    3d34:	09d19063          	bne	gp,t4,3db4 <fail>
    3d38:	00120213          	addi	tp,tp,1 # 1 <reset_vec+0x1>
    3d3c:	00200293          	li	t0,2
    3d40:	fe5210e3          	bne	tp,t0,3d20 <test_16+0x8>

00003d44 <test_17>:
    3d44:	01100e13          	li	t3,17
    3d48:	00000213          	li	tp,0
    3d4c:	00008097          	auipc	ra,0x8
    3d50:	17c08093          	addi	ra,ra,380 # bec8 <tdat>
    3d54:	00000013          	nop
    3d58:	00000013          	nop
    3d5c:	00108183          	lb	gp,1(ra)
    3d60:	00000e93          	li	t4,0
    3d64:	05d19863          	bne	gp,t4,3db4 <fail>
    3d68:	00120213          	addi	tp,tp,1 # 1 <reset_vec+0x1>
    3d6c:	00200293          	li	t0,2
    3d70:	fc521ee3          	bne	tp,t0,3d4c <test_17+0x8>

00003d74 <test_18>:
    3d74:	00008197          	auipc	gp,0x8
    3d78:	15418193          	addi	gp,gp,340 # bec8 <tdat>
    3d7c:	00018103          	lb	sp,0(gp)
    3d80:	00200113          	li	sp,2
    3d84:	00200e93          	li	t4,2
    3d88:	01200e13          	li	t3,18
    3d8c:	03d11463          	bne	sp,t4,3db4 <fail>

00003d90 <test_19>:
    3d90:	00008197          	auipc	gp,0x8
    3d94:	13818193          	addi	gp,gp,312 # bec8 <tdat>
    3d98:	00018103          	lb	sp,0(gp)
    3d9c:	00000013          	nop
    3da0:	00200113          	li	sp,2
    3da4:	00200e93          	li	t4,2
    3da8:	01300e13          	li	t3,19
    3dac:	01d11463          	bne	sp,t4,3db4 <fail>
    3db0:	03c01a63          	bne	zero,t3,3de4 <pass>

00003db4 <fail>:
    3db4:	10000537          	lui	a0,0x10000
    3db8:	04500593          	li	a1,69
    3dbc:	05200613          	li	a2,82
    3dc0:	04f00693          	li	a3,79
    3dc4:	00a00713          	li	a4,10
    3dc8:	00b52023          	sw	a1,0(a0) # 10000000 <end+0xfff3f28>
    3dcc:	00c52023          	sw	a2,0(a0)
    3dd0:	00c52023          	sw	a2,0(a0)
    3dd4:	00d52023          	sw	a3,0(a0)
    3dd8:	00c52023          	sw	a2,0(a0)
    3ddc:	00e52023          	sw	a4,0(a0)
    3de0:	00100073          	ebreak

00003de4 <pass>:
    3de4:	10000537          	lui	a0,0x10000
    3de8:	04f00593          	li	a1,79
    3dec:	04b00613          	li	a2,75
    3df0:	00a00693          	li	a3,10
    3df4:	00b52023          	sw	a1,0(a0) # 10000000 <end+0xfff3f28>
    3df8:	00c52023          	sw	a2,0(a0)
    3dfc:	00d52023          	sw	a3,0(a0)
    3e00:	ef4fc06f          	j	4f4 <lb_ret>

00003e04 <lbu>:
    3e04:	00004537          	lui	a0,0x4
    3e08:	e2450513          	addi	a0,a0,-476 # 3e24 <.test_name>
    3e0c:	10000637          	lui	a2,0x10000

00003e10 <.prname_next>:
    3e10:	00050583          	lb	a1,0(a0)
    3e14:	00058a63          	beqz	a1,3e28 <.prname_done>
    3e18:	00b62023          	sw	a1,0(a2) # 10000000 <end+0xfff3f28>
    3e1c:	00150513          	addi	a0,a0,1
    3e20:	ff1ff06f          	j	3e10 <.prname_next>

00003e24 <.test_name>:
    3e24:	626c                	flw	fa1,68(a2)
    3e26:	0075                	c.nop	29

00003e28 <.prname_done>:
    3e28:	02e00593          	li	a1,46
    3e2c:	00b62023          	sw	a1,0(a2)
    3e30:	00b62023          	sw	a1,0(a2)

00003e34 <test_2>:
    3e34:	00008097          	auipc	ra,0x8
    3e38:	09808093          	addi	ra,ra,152 # becc <tdat>
    3e3c:	0000c183          	lbu	gp,0(ra)
    3e40:	0ff00e93          	li	t4,255
    3e44:	00200e13          	li	t3,2
    3e48:	23d19c63          	bne	gp,t4,4080 <fail>

00003e4c <test_3>:
    3e4c:	00008097          	auipc	ra,0x8
    3e50:	08008093          	addi	ra,ra,128 # becc <tdat>
    3e54:	0010c183          	lbu	gp,1(ra)
    3e58:	00000e93          	li	t4,0
    3e5c:	00300e13          	li	t3,3
    3e60:	23d19063          	bne	gp,t4,4080 <fail>

00003e64 <test_4>:
    3e64:	00008097          	auipc	ra,0x8
    3e68:	06808093          	addi	ra,ra,104 # becc <tdat>
    3e6c:	0020c183          	lbu	gp,2(ra)
    3e70:	0f000e93          	li	t4,240
    3e74:	00400e13          	li	t3,4
    3e78:	21d19463          	bne	gp,t4,4080 <fail>

00003e7c <test_5>:
    3e7c:	00008097          	auipc	ra,0x8
    3e80:	05008093          	addi	ra,ra,80 # becc <tdat>
    3e84:	0030c183          	lbu	gp,3(ra)
    3e88:	00f00e93          	li	t4,15
    3e8c:	00500e13          	li	t3,5
    3e90:	1fd19863          	bne	gp,t4,4080 <fail>

00003e94 <test_6>:
    3e94:	00008097          	auipc	ra,0x8
    3e98:	03b08093          	addi	ra,ra,59 # becf <tdat4>
    3e9c:	ffd0c183          	lbu	gp,-3(ra)
    3ea0:	0ff00e93          	li	t4,255
    3ea4:	00600e13          	li	t3,6
    3ea8:	1dd19c63          	bne	gp,t4,4080 <fail>

00003eac <test_7>:
    3eac:	00008097          	auipc	ra,0x8
    3eb0:	02308093          	addi	ra,ra,35 # becf <tdat4>
    3eb4:	ffe0c183          	lbu	gp,-2(ra)
    3eb8:	00000e93          	li	t4,0
    3ebc:	00700e13          	li	t3,7
    3ec0:	1dd19063          	bne	gp,t4,4080 <fail>

00003ec4 <test_8>:
    3ec4:	00008097          	auipc	ra,0x8
    3ec8:	00b08093          	addi	ra,ra,11 # becf <tdat4>
    3ecc:	fff0c183          	lbu	gp,-1(ra)
    3ed0:	0f000e93          	li	t4,240
    3ed4:	00800e13          	li	t3,8
    3ed8:	1bd19463          	bne	gp,t4,4080 <fail>

00003edc <test_9>:
    3edc:	00008097          	auipc	ra,0x8
    3ee0:	ff308093          	addi	ra,ra,-13 # becf <tdat4>
    3ee4:	0000c183          	lbu	gp,0(ra)
    3ee8:	00f00e93          	li	t4,15
    3eec:	00900e13          	li	t3,9
    3ef0:	19d19863          	bne	gp,t4,4080 <fail>

00003ef4 <test_10>:
    3ef4:	00008097          	auipc	ra,0x8
    3ef8:	fd808093          	addi	ra,ra,-40 # becc <tdat>
    3efc:	fe008093          	addi	ra,ra,-32
    3f00:	0200c183          	lbu	gp,32(ra)
    3f04:	0ff00e93          	li	t4,255
    3f08:	00a00e13          	li	t3,10
    3f0c:	17d19a63          	bne	gp,t4,4080 <fail>

00003f10 <test_11>:
    3f10:	00008097          	auipc	ra,0x8
    3f14:	fbc08093          	addi	ra,ra,-68 # becc <tdat>
    3f18:	ffa08093          	addi	ra,ra,-6
    3f1c:	0070c183          	lbu	gp,7(ra)
    3f20:	00000e93          	li	t4,0
    3f24:	00b00e13          	li	t3,11
    3f28:	15d19c63          	bne	gp,t4,4080 <fail>

00003f2c <test_12>:
    3f2c:	00c00e13          	li	t3,12
    3f30:	00000213          	li	tp,0
    3f34:	00008097          	auipc	ra,0x8
    3f38:	f9908093          	addi	ra,ra,-103 # becd <tdat2>
    3f3c:	0010c183          	lbu	gp,1(ra)
    3f40:	00018313          	mv	t1,gp
    3f44:	0f000e93          	li	t4,240
    3f48:	13d31c63          	bne	t1,t4,4080 <fail>
    3f4c:	00120213          	addi	tp,tp,1 # 1 <reset_vec+0x1>
    3f50:	00200293          	li	t0,2
    3f54:	fe5210e3          	bne	tp,t0,3f34 <test_12+0x8>

00003f58 <test_13>:
    3f58:	00d00e13          	li	t3,13
    3f5c:	00000213          	li	tp,0
    3f60:	00008097          	auipc	ra,0x8
    3f64:	f6e08093          	addi	ra,ra,-146 # bece <tdat3>
    3f68:	0010c183          	lbu	gp,1(ra)
    3f6c:	00000013          	nop
    3f70:	00018313          	mv	t1,gp
    3f74:	00f00e93          	li	t4,15
    3f78:	11d31463          	bne	t1,t4,4080 <fail>
    3f7c:	00120213          	addi	tp,tp,1 # 1 <reset_vec+0x1>
    3f80:	00200293          	li	t0,2
    3f84:	fc521ee3          	bne	tp,t0,3f60 <test_13+0x8>

00003f88 <test_14>:
    3f88:	00e00e13          	li	t3,14
    3f8c:	00000213          	li	tp,0
    3f90:	00008097          	auipc	ra,0x8
    3f94:	f3c08093          	addi	ra,ra,-196 # becc <tdat>
    3f98:	0010c183          	lbu	gp,1(ra)
    3f9c:	00000013          	nop
    3fa0:	00000013          	nop
    3fa4:	00018313          	mv	t1,gp
    3fa8:	00000e93          	li	t4,0
    3fac:	0dd31a63          	bne	t1,t4,4080 <fail>
    3fb0:	00120213          	addi	tp,tp,1 # 1 <reset_vec+0x1>
    3fb4:	00200293          	li	t0,2
    3fb8:	fc521ce3          	bne	tp,t0,3f90 <test_14+0x8>

00003fbc <test_15>:
    3fbc:	00f00e13          	li	t3,15
    3fc0:	00000213          	li	tp,0
    3fc4:	00008097          	auipc	ra,0x8
    3fc8:	f0908093          	addi	ra,ra,-247 # becd <tdat2>
    3fcc:	0010c183          	lbu	gp,1(ra)
    3fd0:	0f000e93          	li	t4,240
    3fd4:	0bd19663          	bne	gp,t4,4080 <fail>
    3fd8:	00120213          	addi	tp,tp,1 # 1 <reset_vec+0x1>
    3fdc:	00200293          	li	t0,2
    3fe0:	fe5212e3          	bne	tp,t0,3fc4 <test_15+0x8>

00003fe4 <test_16>:
    3fe4:	01000e13          	li	t3,16
    3fe8:	00000213          	li	tp,0
    3fec:	00008097          	auipc	ra,0x8
    3ff0:	ee208093          	addi	ra,ra,-286 # bece <tdat3>
    3ff4:	00000013          	nop
    3ff8:	0010c183          	lbu	gp,1(ra)
    3ffc:	00f00e93          	li	t4,15
    4000:	09d19063          	bne	gp,t4,4080 <fail>
    4004:	00120213          	addi	tp,tp,1 # 1 <reset_vec+0x1>
    4008:	00200293          	li	t0,2
    400c:	fe5210e3          	bne	tp,t0,3fec <test_16+0x8>

00004010 <test_17>:
    4010:	01100e13          	li	t3,17
    4014:	00000213          	li	tp,0
    4018:	00008097          	auipc	ra,0x8
    401c:	eb408093          	addi	ra,ra,-332 # becc <tdat>
    4020:	00000013          	nop
    4024:	00000013          	nop
    4028:	0010c183          	lbu	gp,1(ra)
    402c:	00000e93          	li	t4,0
    4030:	05d19863          	bne	gp,t4,4080 <fail>
    4034:	00120213          	addi	tp,tp,1 # 1 <reset_vec+0x1>
    4038:	00200293          	li	t0,2
    403c:	fc521ee3          	bne	tp,t0,4018 <test_17+0x8>

00004040 <test_18>:
    4040:	00008197          	auipc	gp,0x8
    4044:	e8c18193          	addi	gp,gp,-372 # becc <tdat>
    4048:	0001c103          	lbu	sp,0(gp)
    404c:	00200113          	li	sp,2
    4050:	00200e93          	li	t4,2
    4054:	01200e13          	li	t3,18
    4058:	03d11463          	bne	sp,t4,4080 <fail>

0000405c <test_19>:
    405c:	00008197          	auipc	gp,0x8
    4060:	e7018193          	addi	gp,gp,-400 # becc <tdat>
    4064:	0001c103          	lbu	sp,0(gp)
    4068:	00000013          	nop
    406c:	00200113          	li	sp,2
    4070:	00200e93          	li	t4,2
    4074:	01300e13          	li	t3,19
    4078:	01d11463          	bne	sp,t4,4080 <fail>
    407c:	03c01a63          	bne	zero,t3,40b0 <pass>

00004080 <fail>:
    4080:	10000537          	lui	a0,0x10000
    4084:	04500593          	li	a1,69
    4088:	05200613          	li	a2,82
    408c:	04f00693          	li	a3,79
    4090:	00a00713          	li	a4,10
    4094:	00b52023          	sw	a1,0(a0) # 10000000 <end+0xfff3f28>
    4098:	00c52023          	sw	a2,0(a0)
    409c:	00c52023          	sw	a2,0(a0)
    40a0:	00d52023          	sw	a3,0(a0)
    40a4:	00c52023          	sw	a2,0(a0)
    40a8:	00e52023          	sw	a4,0(a0)
    40ac:	00100073          	ebreak

000040b0 <pass>:
    40b0:	10000537          	lui	a0,0x10000
    40b4:	04f00593          	li	a1,79
    40b8:	04b00613          	li	a2,75
    40bc:	00a00693          	li	a3,10
    40c0:	00b52023          	sw	a1,0(a0) # 10000000 <end+0xfff3f28>
    40c4:	00c52023          	sw	a2,0(a0)
    40c8:	00d52023          	sw	a3,0(a0)
    40cc:	c4cfc06f          	j	518 <lbu_ret>

000040d0 <lh>:
    40d0:	00004537          	lui	a0,0x4
    40d4:	0f050513          	addi	a0,a0,240 # 40f0 <.test_name>
    40d8:	10000637          	lui	a2,0x10000

000040dc <.prname_next>:
    40dc:	00050583          	lb	a1,0(a0)
    40e0:	00058a63          	beqz	a1,40f4 <.prname_done>
    40e4:	00b62023          	sw	a1,0(a2) # 10000000 <end+0xfff3f28>
    40e8:	00150513          	addi	a0,a0,1
    40ec:	ff1ff06f          	j	40dc <.prname_next>

000040f0 <.test_name>:
    40f0:	686c                	flw	fa1,84(s0)
	...

000040f4 <.prname_done>:
    40f4:	02e00593          	li	a1,46
    40f8:	00b62023          	sw	a1,0(a2)
    40fc:	00b62023          	sw	a1,0(a2)

00004100 <test_2>:
    4100:	00008097          	auipc	ra,0x8
    4104:	dd008093          	addi	ra,ra,-560 # bed0 <tdat>
    4108:	00009183          	lh	gp,0(ra)
    410c:	0ff00e93          	li	t4,255
    4110:	00200e13          	li	t3,2
    4114:	25d19c63          	bne	gp,t4,436c <fail>

00004118 <test_3>:
    4118:	00008097          	auipc	ra,0x8
    411c:	db808093          	addi	ra,ra,-584 # bed0 <tdat>
    4120:	00209183          	lh	gp,2(ra)
    4124:	f0000e93          	li	t4,-256
    4128:	00300e13          	li	t3,3
    412c:	25d19063          	bne	gp,t4,436c <fail>

00004130 <test_4>:
    4130:	00008097          	auipc	ra,0x8
    4134:	da008093          	addi	ra,ra,-608 # bed0 <tdat>
    4138:	00409183          	lh	gp,4(ra)
    413c:	00001eb7          	lui	t4,0x1
    4140:	ff0e8e93          	addi	t4,t4,-16 # ff0 <stats+0x8c>
    4144:	00400e13          	li	t3,4
    4148:	23d19263          	bne	gp,t4,436c <fail>

0000414c <test_5>:
    414c:	00008097          	auipc	ra,0x8
    4150:	d8408093          	addi	ra,ra,-636 # bed0 <tdat>
    4154:	00609183          	lh	gp,6(ra)
    4158:	fffffeb7          	lui	t4,0xfffff
    415c:	00fe8e93          	addi	t4,t4,15 # fffff00f <end+0xffff2f37>
    4160:	00500e13          	li	t3,5
    4164:	21d19463          	bne	gp,t4,436c <fail>

00004168 <test_6>:
    4168:	00008097          	auipc	ra,0x8
    416c:	d6e08093          	addi	ra,ra,-658 # bed6 <tdat4>
    4170:	ffa09183          	lh	gp,-6(ra)
    4174:	0ff00e93          	li	t4,255
    4178:	00600e13          	li	t3,6
    417c:	1fd19863          	bne	gp,t4,436c <fail>

00004180 <test_7>:
    4180:	00008097          	auipc	ra,0x8
    4184:	d5608093          	addi	ra,ra,-682 # bed6 <tdat4>
    4188:	ffc09183          	lh	gp,-4(ra)
    418c:	f0000e93          	li	t4,-256
    4190:	00700e13          	li	t3,7
    4194:	1dd19c63          	bne	gp,t4,436c <fail>

00004198 <test_8>:
    4198:	00008097          	auipc	ra,0x8
    419c:	d3e08093          	addi	ra,ra,-706 # bed6 <tdat4>
    41a0:	ffe09183          	lh	gp,-2(ra)
    41a4:	00001eb7          	lui	t4,0x1
    41a8:	ff0e8e93          	addi	t4,t4,-16 # ff0 <stats+0x8c>
    41ac:	00800e13          	li	t3,8
    41b0:	1bd19e63          	bne	gp,t4,436c <fail>

000041b4 <test_9>:
    41b4:	00008097          	auipc	ra,0x8
    41b8:	d2208093          	addi	ra,ra,-734 # bed6 <tdat4>
    41bc:	00009183          	lh	gp,0(ra)
    41c0:	fffffeb7          	lui	t4,0xfffff
    41c4:	00fe8e93          	addi	t4,t4,15 # fffff00f <end+0xffff2f37>
    41c8:	00900e13          	li	t3,9
    41cc:	1bd19063          	bne	gp,t4,436c <fail>

000041d0 <test_10>:
    41d0:	00008097          	auipc	ra,0x8
    41d4:	d0008093          	addi	ra,ra,-768 # bed0 <tdat>
    41d8:	fe008093          	addi	ra,ra,-32
    41dc:	02009183          	lh	gp,32(ra)
    41e0:	0ff00e93          	li	t4,255
    41e4:	00a00e13          	li	t3,10
    41e8:	19d19263          	bne	gp,t4,436c <fail>

000041ec <test_11>:
    41ec:	00008097          	auipc	ra,0x8
    41f0:	ce408093          	addi	ra,ra,-796 # bed0 <tdat>
    41f4:	ffb08093          	addi	ra,ra,-5
    41f8:	00709183          	lh	gp,7(ra)
    41fc:	f0000e93          	li	t4,-256
    4200:	00b00e13          	li	t3,11
    4204:	17d19463          	bne	gp,t4,436c <fail>

00004208 <test_12>:
    4208:	00c00e13          	li	t3,12
    420c:	00000213          	li	tp,0
    4210:	00008097          	auipc	ra,0x8
    4214:	cc208093          	addi	ra,ra,-830 # bed2 <tdat2>
    4218:	00209183          	lh	gp,2(ra)
    421c:	00018313          	mv	t1,gp
    4220:	00001eb7          	lui	t4,0x1
    4224:	ff0e8e93          	addi	t4,t4,-16 # ff0 <stats+0x8c>
    4228:	15d31263          	bne	t1,t4,436c <fail>
    422c:	00120213          	addi	tp,tp,1 # 1 <reset_vec+0x1>
    4230:	00200293          	li	t0,2
    4234:	fc521ee3          	bne	tp,t0,4210 <test_12+0x8>

00004238 <test_13>:
    4238:	00d00e13          	li	t3,13
    423c:	00000213          	li	tp,0
    4240:	00008097          	auipc	ra,0x8
    4244:	c9408093          	addi	ra,ra,-876 # bed4 <tdat3>
    4248:	00209183          	lh	gp,2(ra)
    424c:	00000013          	nop
    4250:	00018313          	mv	t1,gp
    4254:	fffffeb7          	lui	t4,0xfffff
    4258:	00fe8e93          	addi	t4,t4,15 # fffff00f <end+0xffff2f37>
    425c:	11d31863          	bne	t1,t4,436c <fail>
    4260:	00120213          	addi	tp,tp,1 # 1 <reset_vec+0x1>
    4264:	00200293          	li	t0,2
    4268:	fc521ce3          	bne	tp,t0,4240 <test_13+0x8>

0000426c <test_14>:
    426c:	00e00e13          	li	t3,14
    4270:	00000213          	li	tp,0
    4274:	00008097          	auipc	ra,0x8
    4278:	c5c08093          	addi	ra,ra,-932 # bed0 <tdat>
    427c:	00209183          	lh	gp,2(ra)
    4280:	00000013          	nop
    4284:	00000013          	nop
    4288:	00018313          	mv	t1,gp
    428c:	f0000e93          	li	t4,-256
    4290:	0dd31e63          	bne	t1,t4,436c <fail>
    4294:	00120213          	addi	tp,tp,1 # 1 <reset_vec+0x1>
    4298:	00200293          	li	t0,2
    429c:	fc521ce3          	bne	tp,t0,4274 <test_14+0x8>

000042a0 <test_15>:
    42a0:	00f00e13          	li	t3,15
    42a4:	00000213          	li	tp,0
    42a8:	00008097          	auipc	ra,0x8
    42ac:	c2a08093          	addi	ra,ra,-982 # bed2 <tdat2>
    42b0:	00209183          	lh	gp,2(ra)
    42b4:	00001eb7          	lui	t4,0x1
    42b8:	ff0e8e93          	addi	t4,t4,-16 # ff0 <stats+0x8c>
    42bc:	0bd19863          	bne	gp,t4,436c <fail>
    42c0:	00120213          	addi	tp,tp,1 # 1 <reset_vec+0x1>
    42c4:	00200293          	li	t0,2
    42c8:	fe5210e3          	bne	tp,t0,42a8 <test_15+0x8>

000042cc <test_16>:
    42cc:	01000e13          	li	t3,16
    42d0:	00000213          	li	tp,0
    42d4:	00008097          	auipc	ra,0x8
    42d8:	c0008093          	addi	ra,ra,-1024 # bed4 <tdat3>
    42dc:	00000013          	nop
    42e0:	00209183          	lh	gp,2(ra)
    42e4:	fffffeb7          	lui	t4,0xfffff
    42e8:	00fe8e93          	addi	t4,t4,15 # fffff00f <end+0xffff2f37>
    42ec:	09d19063          	bne	gp,t4,436c <fail>
    42f0:	00120213          	addi	tp,tp,1 # 1 <reset_vec+0x1>
    42f4:	00200293          	li	t0,2
    42f8:	fc521ee3          	bne	tp,t0,42d4 <test_16+0x8>

000042fc <test_17>:
    42fc:	01100e13          	li	t3,17
    4300:	00000213          	li	tp,0
    4304:	00008097          	auipc	ra,0x8
    4308:	bcc08093          	addi	ra,ra,-1076 # bed0 <tdat>
    430c:	00000013          	nop
    4310:	00000013          	nop
    4314:	00209183          	lh	gp,2(ra)
    4318:	f0000e93          	li	t4,-256
    431c:	05d19863          	bne	gp,t4,436c <fail>
    4320:	00120213          	addi	tp,tp,1 # 1 <reset_vec+0x1>
    4324:	00200293          	li	t0,2
    4328:	fc521ee3          	bne	tp,t0,4304 <test_17+0x8>

0000432c <test_18>:
    432c:	00008197          	auipc	gp,0x8
    4330:	ba418193          	addi	gp,gp,-1116 # bed0 <tdat>
    4334:	00019103          	lh	sp,0(gp)
    4338:	00200113          	li	sp,2
    433c:	00200e93          	li	t4,2
    4340:	01200e13          	li	t3,18
    4344:	03d11463          	bne	sp,t4,436c <fail>

00004348 <test_19>:
    4348:	00008197          	auipc	gp,0x8
    434c:	b8818193          	addi	gp,gp,-1144 # bed0 <tdat>
    4350:	00019103          	lh	sp,0(gp)
    4354:	00000013          	nop
    4358:	00200113          	li	sp,2
    435c:	00200e93          	li	t4,2
    4360:	01300e13          	li	t3,19
    4364:	01d11463          	bne	sp,t4,436c <fail>
    4368:	03c01a63          	bne	zero,t3,439c <pass>

0000436c <fail>:
    436c:	10000537          	lui	a0,0x10000
    4370:	04500593          	li	a1,69
    4374:	05200613          	li	a2,82
    4378:	04f00693          	li	a3,79
    437c:	00a00713          	li	a4,10
    4380:	00b52023          	sw	a1,0(a0) # 10000000 <end+0xfff3f28>
    4384:	00c52023          	sw	a2,0(a0)
    4388:	00c52023          	sw	a2,0(a0)
    438c:	00d52023          	sw	a3,0(a0)
    4390:	00c52023          	sw	a2,0(a0)
    4394:	00e52023          	sw	a4,0(a0)
    4398:	00100073          	ebreak

0000439c <pass>:
    439c:	10000537          	lui	a0,0x10000
    43a0:	04f00593          	li	a1,79
    43a4:	04b00613          	li	a2,75
    43a8:	00a00693          	li	a3,10
    43ac:	00b52023          	sw	a1,0(a0) # 10000000 <end+0xfff3f28>
    43b0:	00c52023          	sw	a2,0(a0)
    43b4:	00d52023          	sw	a3,0(a0)
    43b8:	948fc06f          	j	500 <lh_ret>

000043bc <lhu>:
    43bc:	00004537          	lui	a0,0x4
    43c0:	3dc50513          	addi	a0,a0,988 # 43dc <.test_name>
    43c4:	10000637          	lui	a2,0x10000

000043c8 <.prname_next>:
    43c8:	00050583          	lb	a1,0(a0)
    43cc:	00058a63          	beqz	a1,43e0 <.prname_done>
    43d0:	00b62023          	sw	a1,0(a2) # 10000000 <end+0xfff3f28>
    43d4:	00150513          	addi	a0,a0,1
    43d8:	ff1ff06f          	j	43c8 <.prname_next>

000043dc <.test_name>:
    43dc:	686c                	flw	fa1,84(s0)
    43de:	0075                	c.nop	29

000043e0 <.prname_done>:
    43e0:	02e00593          	li	a1,46
    43e4:	00b62023          	sw	a1,0(a2)
    43e8:	00b62023          	sw	a1,0(a2)

000043ec <test_2>:
    43ec:	00008097          	auipc	ra,0x8
    43f0:	aec08093          	addi	ra,ra,-1300 # bed8 <tdat>
    43f4:	0000d183          	lhu	gp,0(ra)
    43f8:	0ff00e93          	li	t4,255
    43fc:	00200e13          	li	t3,2
    4400:	27d19663          	bne	gp,t4,466c <fail>

00004404 <test_3>:
    4404:	00008097          	auipc	ra,0x8
    4408:	ad408093          	addi	ra,ra,-1324 # bed8 <tdat>
    440c:	0020d183          	lhu	gp,2(ra)
    4410:	00010eb7          	lui	t4,0x10
    4414:	f00e8e93          	addi	t4,t4,-256 # ff00 <end+0x3e28>
    4418:	00300e13          	li	t3,3
    441c:	25d19863          	bne	gp,t4,466c <fail>

00004420 <test_4>:
    4420:	00008097          	auipc	ra,0x8
    4424:	ab808093          	addi	ra,ra,-1352 # bed8 <tdat>
    4428:	0040d183          	lhu	gp,4(ra)
    442c:	00001eb7          	lui	t4,0x1
    4430:	ff0e8e93          	addi	t4,t4,-16 # ff0 <stats+0x8c>
    4434:	00400e13          	li	t3,4
    4438:	23d19a63          	bne	gp,t4,466c <fail>

0000443c <test_5>:
    443c:	00008097          	auipc	ra,0x8
    4440:	a9c08093          	addi	ra,ra,-1380 # bed8 <tdat>
    4444:	0060d183          	lhu	gp,6(ra)
    4448:	0000feb7          	lui	t4,0xf
    444c:	00fe8e93          	addi	t4,t4,15 # f00f <end+0x2f37>
    4450:	00500e13          	li	t3,5
    4454:	21d19c63          	bne	gp,t4,466c <fail>

00004458 <test_6>:
    4458:	00008097          	auipc	ra,0x8
    445c:	a8608093          	addi	ra,ra,-1402 # bede <tdat4>
    4460:	ffa0d183          	lhu	gp,-6(ra)
    4464:	0ff00e93          	li	t4,255
    4468:	00600e13          	li	t3,6
    446c:	21d19063          	bne	gp,t4,466c <fail>

00004470 <test_7>:
    4470:	00008097          	auipc	ra,0x8
    4474:	a6e08093          	addi	ra,ra,-1426 # bede <tdat4>
    4478:	ffc0d183          	lhu	gp,-4(ra)
    447c:	00010eb7          	lui	t4,0x10
    4480:	f00e8e93          	addi	t4,t4,-256 # ff00 <end+0x3e28>
    4484:	00700e13          	li	t3,7
    4488:	1fd19263          	bne	gp,t4,466c <fail>

0000448c <test_8>:
    448c:	00008097          	auipc	ra,0x8
    4490:	a5208093          	addi	ra,ra,-1454 # bede <tdat4>
    4494:	ffe0d183          	lhu	gp,-2(ra)
    4498:	00001eb7          	lui	t4,0x1
    449c:	ff0e8e93          	addi	t4,t4,-16 # ff0 <stats+0x8c>
    44a0:	00800e13          	li	t3,8
    44a4:	1dd19463          	bne	gp,t4,466c <fail>

000044a8 <test_9>:
    44a8:	00008097          	auipc	ra,0x8
    44ac:	a3608093          	addi	ra,ra,-1482 # bede <tdat4>
    44b0:	0000d183          	lhu	gp,0(ra)
    44b4:	0000feb7          	lui	t4,0xf
    44b8:	00fe8e93          	addi	t4,t4,15 # f00f <end+0x2f37>
    44bc:	00900e13          	li	t3,9
    44c0:	1bd19663          	bne	gp,t4,466c <fail>

000044c4 <test_10>:
    44c4:	00008097          	auipc	ra,0x8
    44c8:	a1408093          	addi	ra,ra,-1516 # bed8 <tdat>
    44cc:	fe008093          	addi	ra,ra,-32
    44d0:	0200d183          	lhu	gp,32(ra)
    44d4:	0ff00e93          	li	t4,255
    44d8:	00a00e13          	li	t3,10
    44dc:	19d19863          	bne	gp,t4,466c <fail>

000044e0 <test_11>:
    44e0:	00008097          	auipc	ra,0x8
    44e4:	9f808093          	addi	ra,ra,-1544 # bed8 <tdat>
    44e8:	ffb08093          	addi	ra,ra,-5
    44ec:	0070d183          	lhu	gp,7(ra)
    44f0:	00010eb7          	lui	t4,0x10
    44f4:	f00e8e93          	addi	t4,t4,-256 # ff00 <end+0x3e28>
    44f8:	00b00e13          	li	t3,11
    44fc:	17d19863          	bne	gp,t4,466c <fail>

00004500 <test_12>:
    4500:	00c00e13          	li	t3,12
    4504:	00000213          	li	tp,0
    4508:	00008097          	auipc	ra,0x8
    450c:	9d208093          	addi	ra,ra,-1582 # beda <tdat2>
    4510:	0020d183          	lhu	gp,2(ra)
    4514:	00018313          	mv	t1,gp
    4518:	00001eb7          	lui	t4,0x1
    451c:	ff0e8e93          	addi	t4,t4,-16 # ff0 <stats+0x8c>
    4520:	15d31663          	bne	t1,t4,466c <fail>
    4524:	00120213          	addi	tp,tp,1 # 1 <reset_vec+0x1>
    4528:	00200293          	li	t0,2
    452c:	fc521ee3          	bne	tp,t0,4508 <test_12+0x8>

00004530 <test_13>:
    4530:	00d00e13          	li	t3,13
    4534:	00000213          	li	tp,0
    4538:	00008097          	auipc	ra,0x8
    453c:	9a408093          	addi	ra,ra,-1628 # bedc <tdat3>
    4540:	0020d183          	lhu	gp,2(ra)
    4544:	00000013          	nop
    4548:	00018313          	mv	t1,gp
    454c:	0000feb7          	lui	t4,0xf
    4550:	00fe8e93          	addi	t4,t4,15 # f00f <end+0x2f37>
    4554:	11d31c63          	bne	t1,t4,466c <fail>
    4558:	00120213          	addi	tp,tp,1 # 1 <reset_vec+0x1>
    455c:	00200293          	li	t0,2
    4560:	fc521ce3          	bne	tp,t0,4538 <test_13+0x8>

00004564 <test_14>:
    4564:	00e00e13          	li	t3,14
    4568:	00000213          	li	tp,0
    456c:	00008097          	auipc	ra,0x8
    4570:	96c08093          	addi	ra,ra,-1684 # bed8 <tdat>
    4574:	0020d183          	lhu	gp,2(ra)
    4578:	00000013          	nop
    457c:	00000013          	nop
    4580:	00018313          	mv	t1,gp
    4584:	00010eb7          	lui	t4,0x10
    4588:	f00e8e93          	addi	t4,t4,-256 # ff00 <end+0x3e28>
    458c:	0fd31063          	bne	t1,t4,466c <fail>
    4590:	00120213          	addi	tp,tp,1 # 1 <reset_vec+0x1>
    4594:	00200293          	li	t0,2
    4598:	fc521ae3          	bne	tp,t0,456c <test_14+0x8>

0000459c <test_15>:
    459c:	00f00e13          	li	t3,15
    45a0:	00000213          	li	tp,0
    45a4:	00008097          	auipc	ra,0x8
    45a8:	93608093          	addi	ra,ra,-1738 # beda <tdat2>
    45ac:	0020d183          	lhu	gp,2(ra)
    45b0:	00001eb7          	lui	t4,0x1
    45b4:	ff0e8e93          	addi	t4,t4,-16 # ff0 <stats+0x8c>
    45b8:	0bd19a63          	bne	gp,t4,466c <fail>
    45bc:	00120213          	addi	tp,tp,1 # 1 <reset_vec+0x1>
    45c0:	00200293          	li	t0,2
    45c4:	fe5210e3          	bne	tp,t0,45a4 <test_15+0x8>

000045c8 <test_16>:
    45c8:	01000e13          	li	t3,16
    45cc:	00000213          	li	tp,0
    45d0:	00008097          	auipc	ra,0x8
    45d4:	90c08093          	addi	ra,ra,-1780 # bedc <tdat3>
    45d8:	00000013          	nop
    45dc:	0020d183          	lhu	gp,2(ra)
    45e0:	0000feb7          	lui	t4,0xf
    45e4:	00fe8e93          	addi	t4,t4,15 # f00f <end+0x2f37>
    45e8:	09d19263          	bne	gp,t4,466c <fail>
    45ec:	00120213          	addi	tp,tp,1 # 1 <reset_vec+0x1>
    45f0:	00200293          	li	t0,2
    45f4:	fc521ee3          	bne	tp,t0,45d0 <test_16+0x8>

000045f8 <test_17>:
    45f8:	01100e13          	li	t3,17
    45fc:	00000213          	li	tp,0
    4600:	00008097          	auipc	ra,0x8
    4604:	8d808093          	addi	ra,ra,-1832 # bed8 <tdat>
    4608:	00000013          	nop
    460c:	00000013          	nop
    4610:	0020d183          	lhu	gp,2(ra)
    4614:	00010eb7          	lui	t4,0x10
    4618:	f00e8e93          	addi	t4,t4,-256 # ff00 <end+0x3e28>
    461c:	05d19863          	bne	gp,t4,466c <fail>
    4620:	00120213          	addi	tp,tp,1 # 1 <reset_vec+0x1>
    4624:	00200293          	li	t0,2
    4628:	fc521ce3          	bne	tp,t0,4600 <test_17+0x8>

0000462c <test_18>:
    462c:	00008197          	auipc	gp,0x8
    4630:	8ac18193          	addi	gp,gp,-1876 # bed8 <tdat>
    4634:	0001d103          	lhu	sp,0(gp)
    4638:	00200113          	li	sp,2
    463c:	00200e93          	li	t4,2
    4640:	01200e13          	li	t3,18
    4644:	03d11463          	bne	sp,t4,466c <fail>

00004648 <test_19>:
    4648:	00008197          	auipc	gp,0x8
    464c:	89018193          	addi	gp,gp,-1904 # bed8 <tdat>
    4650:	0001d103          	lhu	sp,0(gp)
    4654:	00000013          	nop
    4658:	00200113          	li	sp,2
    465c:	00200e93          	li	t4,2
    4660:	01300e13          	li	t3,19
    4664:	01d11463          	bne	sp,t4,466c <fail>
    4668:	03c01a63          	bne	zero,t3,469c <pass>

0000466c <fail>:
    466c:	10000537          	lui	a0,0x10000
    4670:	04500593          	li	a1,69
    4674:	05200613          	li	a2,82
    4678:	04f00693          	li	a3,79
    467c:	00a00713          	li	a4,10
    4680:	00b52023          	sw	a1,0(a0) # 10000000 <end+0xfff3f28>
    4684:	00c52023          	sw	a2,0(a0)
    4688:	00c52023          	sw	a2,0(a0)
    468c:	00d52023          	sw	a3,0(a0)
    4690:	00c52023          	sw	a2,0(a0)
    4694:	00e52023          	sw	a4,0(a0)
    4698:	00100073          	ebreak

0000469c <pass>:
    469c:	10000537          	lui	a0,0x10000
    46a0:	04f00593          	li	a1,79
    46a4:	04b00613          	li	a2,75
    46a8:	00a00693          	li	a3,10
    46ac:	00b52023          	sw	a1,0(a0) # 10000000 <end+0xfff3f28>
    46b0:	00c52023          	sw	a2,0(a0)
    46b4:	00d52023          	sw	a3,0(a0)
    46b8:	e6dfb06f          	j	524 <lhu_ret>

000046bc <lui>:
    46bc:	00004537          	lui	a0,0x4
    46c0:	6dc50513          	addi	a0,a0,1756 # 46dc <.test_name>
    46c4:	10000637          	lui	a2,0x10000

000046c8 <.prname_next>:
    46c8:	00050583          	lb	a1,0(a0)
    46cc:	00058a63          	beqz	a1,46e0 <.prname_done>
    46d0:	00b62023          	sw	a1,0(a2) # 10000000 <end+0xfff3f28>
    46d4:	00150513          	addi	a0,a0,1
    46d8:	ff1ff06f          	j	46c8 <.prname_next>

000046dc <.test_name>:
    46dc:	756c                	flw	fa1,108(a0)
    46de:	0069                	c.nop	26

000046e0 <.prname_done>:
    46e0:	02e00593          	li	a1,46
    46e4:	00b62023          	sw	a1,0(a2)
    46e8:	00b62023          	sw	a1,0(a2)

000046ec <test_2>:
    46ec:	000000b7          	lui	ra,0x0
    46f0:	00000e93          	li	t4,0
    46f4:	00200e13          	li	t3,2
    46f8:	05d09a63          	bne	ra,t4,474c <fail>

000046fc <test_3>:
    46fc:	fffff0b7          	lui	ra,0xfffff
    4700:	4010d093          	srai	ra,ra,0x1
    4704:	80000e93          	li	t4,-2048
    4708:	00300e13          	li	t3,3
    470c:	05d09063          	bne	ra,t4,474c <fail>

00004710 <test_4>:
    4710:	7ffff0b7          	lui	ra,0x7ffff
    4714:	4140d093          	srai	ra,ra,0x14
    4718:	7ff00e93          	li	t4,2047
    471c:	00400e13          	li	t3,4
    4720:	03d09663          	bne	ra,t4,474c <fail>

00004724 <test_5>:
    4724:	800000b7          	lui	ra,0x80000
    4728:	4140d093          	srai	ra,ra,0x14
    472c:	80000e93          	li	t4,-2048
    4730:	00500e13          	li	t3,5
    4734:	01d09c63          	bne	ra,t4,474c <fail>

00004738 <test_6>:
    4738:	80000037          	lui	zero,0x80000
    473c:	00000e93          	li	t4,0
    4740:	00600e13          	li	t3,6
    4744:	01d01463          	bne	zero,t4,474c <fail>
    4748:	03c01a63          	bne	zero,t3,477c <pass>

0000474c <fail>:
    474c:	10000537          	lui	a0,0x10000
    4750:	04500593          	li	a1,69
    4754:	05200613          	li	a2,82
    4758:	04f00693          	li	a3,79
    475c:	00a00713          	li	a4,10
    4760:	00b52023          	sw	a1,0(a0) # 10000000 <end+0xfff3f28>
    4764:	00c52023          	sw	a2,0(a0)
    4768:	00c52023          	sw	a2,0(a0)
    476c:	00d52023          	sw	a3,0(a0)
    4770:	00c52023          	sw	a2,0(a0)
    4774:	00e52023          	sw	a4,0(a0)
    4778:	00100073          	ebreak

0000477c <pass>:
    477c:	10000537          	lui	a0,0x10000
    4780:	04f00593          	li	a1,79
    4784:	04b00613          	li	a2,75
    4788:	00a00693          	li	a3,10
    478c:	00b52023          	sw	a1,0(a0) # 10000000 <end+0xfff3f28>
    4790:	00c52023          	sw	a2,0(a0)
    4794:	00d52023          	sw	a3,0(a0)
    4798:	cd9fb06f          	j	470 <lui_ret>

0000479c <lw>:
    479c:	00004537          	lui	a0,0x4
    47a0:	7bc50513          	addi	a0,a0,1980 # 47bc <.test_name>
    47a4:	10000637          	lui	a2,0x10000

000047a8 <.prname_next>:
    47a8:	00050583          	lb	a1,0(a0)
    47ac:	00058a63          	beqz	a1,47c0 <.prname_done>
    47b0:	00b62023          	sw	a1,0(a2) # 10000000 <end+0xfff3f28>
    47b4:	00150513          	addi	a0,a0,1
    47b8:	ff1ff06f          	j	47a8 <.prname_next>

000047bc <.test_name>:
    47bc:	776c                	flw	fa1,108(a4)
	...

000047c0 <.prname_done>:
    47c0:	02e00593          	li	a1,46
    47c4:	00b62023          	sw	a1,0(a2)
    47c8:	00b62023          	sw	a1,0(a2)

000047cc <test_2>:
    47cc:	00007097          	auipc	ra,0x7
    47d0:	71408093          	addi	ra,ra,1812 # bee0 <tdat>
    47d4:	0000a183          	lw	gp,0(ra)
    47d8:	00ff0eb7          	lui	t4,0xff0
    47dc:	0ffe8e93          	addi	t4,t4,255 # ff00ff <end+0xfe4027>
    47e0:	00200e13          	li	t3,2
    47e4:	27d19a63          	bne	gp,t4,4a58 <fail>

000047e8 <test_3>:
    47e8:	00007097          	auipc	ra,0x7
    47ec:	6f808093          	addi	ra,ra,1784 # bee0 <tdat>
    47f0:	0040a183          	lw	gp,4(ra)
    47f4:	ff010eb7          	lui	t4,0xff010
    47f8:	f00e8e93          	addi	t4,t4,-256 # ff00ff00 <end+0xff003e28>
    47fc:	00300e13          	li	t3,3
    4800:	25d19c63          	bne	gp,t4,4a58 <fail>

00004804 <test_4>:
    4804:	00007097          	auipc	ra,0x7
    4808:	6dc08093          	addi	ra,ra,1756 # bee0 <tdat>
    480c:	0080a183          	lw	gp,8(ra)
    4810:	0ff01eb7          	lui	t4,0xff01
    4814:	ff0e8e93          	addi	t4,t4,-16 # ff00ff0 <end+0xfef4f18>
    4818:	00400e13          	li	t3,4
    481c:	23d19e63          	bne	gp,t4,4a58 <fail>

00004820 <test_5>:
    4820:	00007097          	auipc	ra,0x7
    4824:	6c008093          	addi	ra,ra,1728 # bee0 <tdat>
    4828:	00c0a183          	lw	gp,12(ra)
    482c:	f00ffeb7          	lui	t4,0xf00ff
    4830:	00fe8e93          	addi	t4,t4,15 # f00ff00f <end+0xf00f2f37>
    4834:	00500e13          	li	t3,5
    4838:	23d19063          	bne	gp,t4,4a58 <fail>

0000483c <test_6>:
    483c:	00007097          	auipc	ra,0x7
    4840:	6b008093          	addi	ra,ra,1712 # beec <tdat4>
    4844:	ff40a183          	lw	gp,-12(ra)
    4848:	00ff0eb7          	lui	t4,0xff0
    484c:	0ffe8e93          	addi	t4,t4,255 # ff00ff <end+0xfe4027>
    4850:	00600e13          	li	t3,6
    4854:	21d19263          	bne	gp,t4,4a58 <fail>

00004858 <test_7>:
    4858:	00007097          	auipc	ra,0x7
    485c:	69408093          	addi	ra,ra,1684 # beec <tdat4>
    4860:	ff80a183          	lw	gp,-8(ra)
    4864:	ff010eb7          	lui	t4,0xff010
    4868:	f00e8e93          	addi	t4,t4,-256 # ff00ff00 <end+0xff003e28>
    486c:	00700e13          	li	t3,7
    4870:	1fd19463          	bne	gp,t4,4a58 <fail>

00004874 <test_8>:
    4874:	00007097          	auipc	ra,0x7
    4878:	67808093          	addi	ra,ra,1656 # beec <tdat4>
    487c:	ffc0a183          	lw	gp,-4(ra)
    4880:	0ff01eb7          	lui	t4,0xff01
    4884:	ff0e8e93          	addi	t4,t4,-16 # ff00ff0 <end+0xfef4f18>
    4888:	00800e13          	li	t3,8
    488c:	1dd19663          	bne	gp,t4,4a58 <fail>

00004890 <test_9>:
    4890:	00007097          	auipc	ra,0x7
    4894:	65c08093          	addi	ra,ra,1628 # beec <tdat4>
    4898:	0000a183          	lw	gp,0(ra)
    489c:	f00ffeb7          	lui	t4,0xf00ff
    48a0:	00fe8e93          	addi	t4,t4,15 # f00ff00f <end+0xf00f2f37>
    48a4:	00900e13          	li	t3,9
    48a8:	1bd19863          	bne	gp,t4,4a58 <fail>

000048ac <test_10>:
    48ac:	00007097          	auipc	ra,0x7
    48b0:	63408093          	addi	ra,ra,1588 # bee0 <tdat>
    48b4:	fe008093          	addi	ra,ra,-32
    48b8:	0200a183          	lw	gp,32(ra)
    48bc:	00ff0eb7          	lui	t4,0xff0
    48c0:	0ffe8e93          	addi	t4,t4,255 # ff00ff <end+0xfe4027>
    48c4:	00a00e13          	li	t3,10
    48c8:	19d19863          	bne	gp,t4,4a58 <fail>

000048cc <test_11>:
    48cc:	00007097          	auipc	ra,0x7
    48d0:	61408093          	addi	ra,ra,1556 # bee0 <tdat>
    48d4:	ffd08093          	addi	ra,ra,-3
    48d8:	0070a183          	lw	gp,7(ra)
    48dc:	ff010eb7          	lui	t4,0xff010
    48e0:	f00e8e93          	addi	t4,t4,-256 # ff00ff00 <end+0xff003e28>
    48e4:	00b00e13          	li	t3,11
    48e8:	17d19863          	bne	gp,t4,4a58 <fail>

000048ec <test_12>:
    48ec:	00c00e13          	li	t3,12
    48f0:	00000213          	li	tp,0
    48f4:	00007097          	auipc	ra,0x7
    48f8:	5f008093          	addi	ra,ra,1520 # bee4 <tdat2>
    48fc:	0040a183          	lw	gp,4(ra)
    4900:	00018313          	mv	t1,gp
    4904:	0ff01eb7          	lui	t4,0xff01
    4908:	ff0e8e93          	addi	t4,t4,-16 # ff00ff0 <end+0xfef4f18>
    490c:	15d31663          	bne	t1,t4,4a58 <fail>
    4910:	00120213          	addi	tp,tp,1 # 1 <reset_vec+0x1>
    4914:	00200293          	li	t0,2
    4918:	fc521ee3          	bne	tp,t0,48f4 <test_12+0x8>

0000491c <test_13>:
    491c:	00d00e13          	li	t3,13
    4920:	00000213          	li	tp,0
    4924:	00007097          	auipc	ra,0x7
    4928:	5c408093          	addi	ra,ra,1476 # bee8 <tdat3>
    492c:	0040a183          	lw	gp,4(ra)
    4930:	00000013          	nop
    4934:	00018313          	mv	t1,gp
    4938:	f00ffeb7          	lui	t4,0xf00ff
    493c:	00fe8e93          	addi	t4,t4,15 # f00ff00f <end+0xf00f2f37>
    4940:	11d31c63          	bne	t1,t4,4a58 <fail>
    4944:	00120213          	addi	tp,tp,1 # 1 <reset_vec+0x1>
    4948:	00200293          	li	t0,2
    494c:	fc521ce3          	bne	tp,t0,4924 <test_13+0x8>

00004950 <test_14>:
    4950:	00e00e13          	li	t3,14
    4954:	00000213          	li	tp,0
    4958:	00007097          	auipc	ra,0x7
    495c:	58808093          	addi	ra,ra,1416 # bee0 <tdat>
    4960:	0040a183          	lw	gp,4(ra)
    4964:	00000013          	nop
    4968:	00000013          	nop
    496c:	00018313          	mv	t1,gp
    4970:	ff010eb7          	lui	t4,0xff010
    4974:	f00e8e93          	addi	t4,t4,-256 # ff00ff00 <end+0xff003e28>
    4978:	0fd31063          	bne	t1,t4,4a58 <fail>
    497c:	00120213          	addi	tp,tp,1 # 1 <reset_vec+0x1>
    4980:	00200293          	li	t0,2
    4984:	fc521ae3          	bne	tp,t0,4958 <test_14+0x8>

00004988 <test_15>:
    4988:	00f00e13          	li	t3,15
    498c:	00000213          	li	tp,0
    4990:	00007097          	auipc	ra,0x7
    4994:	55408093          	addi	ra,ra,1364 # bee4 <tdat2>
    4998:	0040a183          	lw	gp,4(ra)
    499c:	0ff01eb7          	lui	t4,0xff01
    49a0:	ff0e8e93          	addi	t4,t4,-16 # ff00ff0 <end+0xfef4f18>
    49a4:	0bd19a63          	bne	gp,t4,4a58 <fail>
    49a8:	00120213          	addi	tp,tp,1 # 1 <reset_vec+0x1>
    49ac:	00200293          	li	t0,2
    49b0:	fe5210e3          	bne	tp,t0,4990 <test_15+0x8>

000049b4 <test_16>:
    49b4:	01000e13          	li	t3,16
    49b8:	00000213          	li	tp,0
    49bc:	00007097          	auipc	ra,0x7
    49c0:	52c08093          	addi	ra,ra,1324 # bee8 <tdat3>
    49c4:	00000013          	nop
    49c8:	0040a183          	lw	gp,4(ra)
    49cc:	f00ffeb7          	lui	t4,0xf00ff
    49d0:	00fe8e93          	addi	t4,t4,15 # f00ff00f <end+0xf00f2f37>
    49d4:	09d19263          	bne	gp,t4,4a58 <fail>
    49d8:	00120213          	addi	tp,tp,1 # 1 <reset_vec+0x1>
    49dc:	00200293          	li	t0,2
    49e0:	fc521ee3          	bne	tp,t0,49bc <test_16+0x8>

000049e4 <test_17>:
    49e4:	01100e13          	li	t3,17
    49e8:	00000213          	li	tp,0
    49ec:	00007097          	auipc	ra,0x7
    49f0:	4f408093          	addi	ra,ra,1268 # bee0 <tdat>
    49f4:	00000013          	nop
    49f8:	00000013          	nop
    49fc:	0040a183          	lw	gp,4(ra)
    4a00:	ff010eb7          	lui	t4,0xff010
    4a04:	f00e8e93          	addi	t4,t4,-256 # ff00ff00 <end+0xff003e28>
    4a08:	05d19863          	bne	gp,t4,4a58 <fail>
    4a0c:	00120213          	addi	tp,tp,1 # 1 <reset_vec+0x1>
    4a10:	00200293          	li	t0,2
    4a14:	fc521ce3          	bne	tp,t0,49ec <test_17+0x8>

00004a18 <test_18>:
    4a18:	00007197          	auipc	gp,0x7
    4a1c:	4c818193          	addi	gp,gp,1224 # bee0 <tdat>
    4a20:	0001a103          	lw	sp,0(gp)
    4a24:	00200113          	li	sp,2
    4a28:	00200e93          	li	t4,2
    4a2c:	01200e13          	li	t3,18
    4a30:	03d11463          	bne	sp,t4,4a58 <fail>

00004a34 <test_19>:
    4a34:	00007197          	auipc	gp,0x7
    4a38:	4ac18193          	addi	gp,gp,1196 # bee0 <tdat>
    4a3c:	0001a103          	lw	sp,0(gp)
    4a40:	00000013          	nop
    4a44:	00200113          	li	sp,2
    4a48:	00200e93          	li	t4,2
    4a4c:	01300e13          	li	t3,19
    4a50:	01d11463          	bne	sp,t4,4a58 <fail>
    4a54:	03c01a63          	bne	zero,t3,4a88 <pass>

00004a58 <fail>:
    4a58:	10000537          	lui	a0,0x10000
    4a5c:	04500593          	li	a1,69
    4a60:	05200613          	li	a2,82
    4a64:	04f00693          	li	a3,79
    4a68:	00a00713          	li	a4,10
    4a6c:	00b52023          	sw	a1,0(a0) # 10000000 <end+0xfff3f28>
    4a70:	00c52023          	sw	a2,0(a0)
    4a74:	00c52023          	sw	a2,0(a0)
    4a78:	00d52023          	sw	a3,0(a0)
    4a7c:	00c52023          	sw	a2,0(a0)
    4a80:	00e52023          	sw	a4,0(a0)
    4a84:	00100073          	ebreak

00004a88 <pass>:
    4a88:	10000537          	lui	a0,0x10000
    4a8c:	04f00593          	li	a1,79
    4a90:	04b00613          	li	a2,75
    4a94:	00a00693          	li	a3,10
    4a98:	00b52023          	sw	a1,0(a0) # 10000000 <end+0xfff3f28>
    4a9c:	00c52023          	sw	a2,0(a0)
    4aa0:	00d52023          	sw	a3,0(a0)
    4aa4:	a69fb06f          	j	50c <lw_ret>

00004aa8 <mul>:
    4aa8:	00005537          	lui	a0,0x5
    4aac:	ac850513          	addi	a0,a0,-1336 # 4ac8 <.test_name>
    4ab0:	10000637          	lui	a2,0x10000

00004ab4 <.prname_next>:
    4ab4:	00050583          	lb	a1,0(a0)
    4ab8:	00058a63          	beqz	a1,4acc <.prname_done>
    4abc:	00b62023          	sw	a1,0(a2) # 10000000 <end+0xfff3f28>
    4ac0:	00150513          	addi	a0,a0,1
    4ac4:	ff1ff06f          	j	4ab4 <.prname_next>

00004ac8 <.test_name>:
    4ac8:	756d                	lui	a0,0xffffb
    4aca:	006c                	addi	a1,sp,12

00004acc <.prname_done>:
    4acc:	02e00593          	li	a1,46
    4ad0:	00b62023          	sw	a1,0(a2)
    4ad4:	00b62023          	sw	a1,0(a2)

00004ad8 <test_32>:
    4ad8:	000080b7          	lui	ra,0x8
    4adc:	e0008093          	addi	ra,ra,-512 # 7e00 <test_11+0xc>
    4ae0:	b6db7137          	lui	sp,0xb6db7
    4ae4:	db710113          	addi	sp,sp,-585 # b6db6db7 <end+0xb6daacdf>
    4ae8:	022081b3          	mul	gp,ra,sp
    4aec:	00001eb7          	lui	t4,0x1
    4af0:	200e8e93          	addi	t4,t4,512 # 1200 <test_19+0x10>
    4af4:	02000e13          	li	t3,32
    4af8:	4bd19463          	bne	gp,t4,4fa0 <fail>

00004afc <test_33>:
    4afc:	000080b7          	lui	ra,0x8
    4b00:	fc008093          	addi	ra,ra,-64 # 7fc0 <test_25+0x4>
    4b04:	b6db7137          	lui	sp,0xb6db7
    4b08:	db710113          	addi	sp,sp,-585 # b6db6db7 <end+0xb6daacdf>
    4b0c:	022081b3          	mul	gp,ra,sp
    4b10:	00001eb7          	lui	t4,0x1
    4b14:	240e8e93          	addi	t4,t4,576 # 1240 <test_21+0x10>
    4b18:	02100e13          	li	t3,33
    4b1c:	49d19263          	bne	gp,t4,4fa0 <fail>

00004b20 <test_2>:
    4b20:	00000093          	li	ra,0
    4b24:	00000113          	li	sp,0
    4b28:	022081b3          	mul	gp,ra,sp
    4b2c:	00000e93          	li	t4,0
    4b30:	00200e13          	li	t3,2
    4b34:	47d19663          	bne	gp,t4,4fa0 <fail>

00004b38 <test_3>:
    4b38:	00100093          	li	ra,1
    4b3c:	00100113          	li	sp,1
    4b40:	022081b3          	mul	gp,ra,sp
    4b44:	00100e93          	li	t4,1
    4b48:	00300e13          	li	t3,3
    4b4c:	45d19a63          	bne	gp,t4,4fa0 <fail>

00004b50 <test_4>:
    4b50:	00300093          	li	ra,3
    4b54:	00700113          	li	sp,7
    4b58:	022081b3          	mul	gp,ra,sp
    4b5c:	01500e93          	li	t4,21
    4b60:	00400e13          	li	t3,4
    4b64:	43d19e63          	bne	gp,t4,4fa0 <fail>

00004b68 <test_5>:
    4b68:	00000093          	li	ra,0
    4b6c:	ffff8137          	lui	sp,0xffff8
    4b70:	022081b3          	mul	gp,ra,sp
    4b74:	00000e93          	li	t4,0
    4b78:	00500e13          	li	t3,5
    4b7c:	43d19263          	bne	gp,t4,4fa0 <fail>

00004b80 <test_6>:
    4b80:	800000b7          	lui	ra,0x80000
    4b84:	00000113          	li	sp,0
    4b88:	022081b3          	mul	gp,ra,sp
    4b8c:	00000e93          	li	t4,0
    4b90:	00600e13          	li	t3,6
    4b94:	41d19663          	bne	gp,t4,4fa0 <fail>

00004b98 <test_7>:
    4b98:	800000b7          	lui	ra,0x80000
    4b9c:	ffff8137          	lui	sp,0xffff8
    4ba0:	022081b3          	mul	gp,ra,sp
    4ba4:	00000e93          	li	t4,0
    4ba8:	00700e13          	li	t3,7
    4bac:	3fd19a63          	bne	gp,t4,4fa0 <fail>

00004bb0 <test_30>:
    4bb0:	aaaab0b7          	lui	ra,0xaaaab
    4bb4:	aab08093          	addi	ra,ra,-1365 # aaaaaaab <end+0xaaa9e9d3>
    4bb8:	00030137          	lui	sp,0x30
    4bbc:	e7d10113          	addi	sp,sp,-387 # 2fe7d <end+0x23da5>
    4bc0:	022081b3          	mul	gp,ra,sp
    4bc4:	00010eb7          	lui	t4,0x10
    4bc8:	f7fe8e93          	addi	t4,t4,-129 # ff7f <end+0x3ea7>
    4bcc:	01e00e13          	li	t3,30
    4bd0:	3dd19863          	bne	gp,t4,4fa0 <fail>

00004bd4 <test_31>:
    4bd4:	000300b7          	lui	ra,0x30
    4bd8:	e7d08093          	addi	ra,ra,-387 # 2fe7d <end+0x23da5>
    4bdc:	aaaab137          	lui	sp,0xaaaab
    4be0:	aab10113          	addi	sp,sp,-1365 # aaaaaaab <end+0xaaa9e9d3>
    4be4:	022081b3          	mul	gp,ra,sp
    4be8:	00010eb7          	lui	t4,0x10
    4bec:	f7fe8e93          	addi	t4,t4,-129 # ff7f <end+0x3ea7>
    4bf0:	01f00e13          	li	t3,31
    4bf4:	3bd19663          	bne	gp,t4,4fa0 <fail>

00004bf8 <test_34>:
    4bf8:	ff0000b7          	lui	ra,0xff000
    4bfc:	ff000137          	lui	sp,0xff000
    4c00:	022081b3          	mul	gp,ra,sp
    4c04:	00000e93          	li	t4,0
    4c08:	02200e13          	li	t3,34
    4c0c:	39d19a63          	bne	gp,t4,4fa0 <fail>

00004c10 <test_35>:
    4c10:	fff00093          	li	ra,-1
    4c14:	fff00113          	li	sp,-1
    4c18:	022081b3          	mul	gp,ra,sp
    4c1c:	00100e93          	li	t4,1
    4c20:	02300e13          	li	t3,35
    4c24:	37d19e63          	bne	gp,t4,4fa0 <fail>

00004c28 <test_36>:
    4c28:	fff00093          	li	ra,-1
    4c2c:	00100113          	li	sp,1
    4c30:	022081b3          	mul	gp,ra,sp
    4c34:	fff00e93          	li	t4,-1
    4c38:	02400e13          	li	t3,36
    4c3c:	37d19263          	bne	gp,t4,4fa0 <fail>

00004c40 <test_37>:
    4c40:	00100093          	li	ra,1
    4c44:	fff00113          	li	sp,-1
    4c48:	022081b3          	mul	gp,ra,sp
    4c4c:	fff00e93          	li	t4,-1
    4c50:	02500e13          	li	t3,37
    4c54:	35d19663          	bne	gp,t4,4fa0 <fail>

00004c58 <test_8>:
    4c58:	00d00093          	li	ra,13
    4c5c:	00b00113          	li	sp,11
    4c60:	022080b3          	mul	ra,ra,sp
    4c64:	08f00e93          	li	t4,143
    4c68:	00800e13          	li	t3,8
    4c6c:	33d09a63          	bne	ra,t4,4fa0 <fail>

00004c70 <test_9>:
    4c70:	00e00093          	li	ra,14
    4c74:	00b00113          	li	sp,11
    4c78:	02208133          	mul	sp,ra,sp
    4c7c:	09a00e93          	li	t4,154
    4c80:	00900e13          	li	t3,9
    4c84:	31d11e63          	bne	sp,t4,4fa0 <fail>

00004c88 <test_10>:
    4c88:	00d00093          	li	ra,13
    4c8c:	021080b3          	mul	ra,ra,ra
    4c90:	0a900e93          	li	t4,169
    4c94:	00a00e13          	li	t3,10
    4c98:	31d09463          	bne	ra,t4,4fa0 <fail>

00004c9c <test_11>:
    4c9c:	00000213          	li	tp,0
    4ca0:	00d00093          	li	ra,13
    4ca4:	00b00113          	li	sp,11
    4ca8:	022081b3          	mul	gp,ra,sp
    4cac:	00018313          	mv	t1,gp
    4cb0:	00120213          	addi	tp,tp,1 # 1 <reset_vec+0x1>
    4cb4:	00200293          	li	t0,2
    4cb8:	fe5214e3          	bne	tp,t0,4ca0 <test_11+0x4>
    4cbc:	08f00e93          	li	t4,143
    4cc0:	00b00e13          	li	t3,11
    4cc4:	2dd31e63          	bne	t1,t4,4fa0 <fail>

00004cc8 <test_12>:
    4cc8:	00000213          	li	tp,0
    4ccc:	00e00093          	li	ra,14
    4cd0:	00b00113          	li	sp,11
    4cd4:	022081b3          	mul	gp,ra,sp
    4cd8:	00000013          	nop
    4cdc:	00018313          	mv	t1,gp
    4ce0:	00120213          	addi	tp,tp,1 # 1 <reset_vec+0x1>
    4ce4:	00200293          	li	t0,2
    4ce8:	fe5212e3          	bne	tp,t0,4ccc <test_12+0x4>
    4cec:	09a00e93          	li	t4,154
    4cf0:	00c00e13          	li	t3,12
    4cf4:	2bd31663          	bne	t1,t4,4fa0 <fail>

00004cf8 <test_13>:
    4cf8:	00000213          	li	tp,0
    4cfc:	00f00093          	li	ra,15
    4d00:	00b00113          	li	sp,11
    4d04:	022081b3          	mul	gp,ra,sp
    4d08:	00000013          	nop
    4d0c:	00000013          	nop
    4d10:	00018313          	mv	t1,gp
    4d14:	00120213          	addi	tp,tp,1 # 1 <reset_vec+0x1>
    4d18:	00200293          	li	t0,2
    4d1c:	fe5210e3          	bne	tp,t0,4cfc <test_13+0x4>
    4d20:	0a500e93          	li	t4,165
    4d24:	00d00e13          	li	t3,13
    4d28:	27d31c63          	bne	t1,t4,4fa0 <fail>

00004d2c <test_14>:
    4d2c:	00000213          	li	tp,0
    4d30:	00d00093          	li	ra,13
    4d34:	00b00113          	li	sp,11
    4d38:	022081b3          	mul	gp,ra,sp
    4d3c:	00120213          	addi	tp,tp,1 # 1 <reset_vec+0x1>
    4d40:	00200293          	li	t0,2
    4d44:	fe5216e3          	bne	tp,t0,4d30 <test_14+0x4>
    4d48:	08f00e93          	li	t4,143
    4d4c:	00e00e13          	li	t3,14
    4d50:	25d19863          	bne	gp,t4,4fa0 <fail>

00004d54 <test_15>:
    4d54:	00000213          	li	tp,0
    4d58:	00e00093          	li	ra,14
    4d5c:	00b00113          	li	sp,11
    4d60:	00000013          	nop
    4d64:	022081b3          	mul	gp,ra,sp
    4d68:	00120213          	addi	tp,tp,1 # 1 <reset_vec+0x1>
    4d6c:	00200293          	li	t0,2
    4d70:	fe5214e3          	bne	tp,t0,4d58 <test_15+0x4>
    4d74:	09a00e93          	li	t4,154
    4d78:	00f00e13          	li	t3,15
    4d7c:	23d19263          	bne	gp,t4,4fa0 <fail>

00004d80 <test_16>:
    4d80:	00000213          	li	tp,0
    4d84:	00f00093          	li	ra,15
    4d88:	00b00113          	li	sp,11
    4d8c:	00000013          	nop
    4d90:	00000013          	nop
    4d94:	022081b3          	mul	gp,ra,sp
    4d98:	00120213          	addi	tp,tp,1 # 1 <reset_vec+0x1>
    4d9c:	00200293          	li	t0,2
    4da0:	fe5212e3          	bne	tp,t0,4d84 <test_16+0x4>
    4da4:	0a500e93          	li	t4,165
    4da8:	01000e13          	li	t3,16
    4dac:	1fd19a63          	bne	gp,t4,4fa0 <fail>

00004db0 <test_17>:
    4db0:	00000213          	li	tp,0
    4db4:	00d00093          	li	ra,13
    4db8:	00000013          	nop
    4dbc:	00b00113          	li	sp,11
    4dc0:	022081b3          	mul	gp,ra,sp
    4dc4:	00120213          	addi	tp,tp,1 # 1 <reset_vec+0x1>
    4dc8:	00200293          	li	t0,2
    4dcc:	fe5214e3          	bne	tp,t0,4db4 <test_17+0x4>
    4dd0:	08f00e93          	li	t4,143
    4dd4:	01100e13          	li	t3,17
    4dd8:	1dd19463          	bne	gp,t4,4fa0 <fail>

00004ddc <test_18>:
    4ddc:	00000213          	li	tp,0
    4de0:	00e00093          	li	ra,14
    4de4:	00000013          	nop
    4de8:	00b00113          	li	sp,11
    4dec:	00000013          	nop
    4df0:	022081b3          	mul	gp,ra,sp
    4df4:	00120213          	addi	tp,tp,1 # 1 <reset_vec+0x1>
    4df8:	00200293          	li	t0,2
    4dfc:	fe5212e3          	bne	tp,t0,4de0 <test_18+0x4>
    4e00:	09a00e93          	li	t4,154
    4e04:	01200e13          	li	t3,18
    4e08:	19d19c63          	bne	gp,t4,4fa0 <fail>

00004e0c <test_19>:
    4e0c:	00000213          	li	tp,0
    4e10:	00f00093          	li	ra,15
    4e14:	00000013          	nop
    4e18:	00000013          	nop
    4e1c:	00b00113          	li	sp,11
    4e20:	022081b3          	mul	gp,ra,sp
    4e24:	00120213          	addi	tp,tp,1 # 1 <reset_vec+0x1>
    4e28:	00200293          	li	t0,2
    4e2c:	fe5212e3          	bne	tp,t0,4e10 <test_19+0x4>
    4e30:	0a500e93          	li	t4,165
    4e34:	01300e13          	li	t3,19
    4e38:	17d19463          	bne	gp,t4,4fa0 <fail>

00004e3c <test_20>:
    4e3c:	00000213          	li	tp,0
    4e40:	00b00113          	li	sp,11
    4e44:	00d00093          	li	ra,13
    4e48:	022081b3          	mul	gp,ra,sp
    4e4c:	00120213          	addi	tp,tp,1 # 1 <reset_vec+0x1>
    4e50:	00200293          	li	t0,2
    4e54:	fe5216e3          	bne	tp,t0,4e40 <test_20+0x4>
    4e58:	08f00e93          	li	t4,143
    4e5c:	01400e13          	li	t3,20
    4e60:	15d19063          	bne	gp,t4,4fa0 <fail>

00004e64 <test_21>:
    4e64:	00000213          	li	tp,0
    4e68:	00b00113          	li	sp,11
    4e6c:	00e00093          	li	ra,14
    4e70:	00000013          	nop
    4e74:	022081b3          	mul	gp,ra,sp
    4e78:	00120213          	addi	tp,tp,1 # 1 <reset_vec+0x1>
    4e7c:	00200293          	li	t0,2
    4e80:	fe5214e3          	bne	tp,t0,4e68 <test_21+0x4>
    4e84:	09a00e93          	li	t4,154
    4e88:	01500e13          	li	t3,21
    4e8c:	11d19a63          	bne	gp,t4,4fa0 <fail>

00004e90 <test_22>:
    4e90:	00000213          	li	tp,0
    4e94:	00b00113          	li	sp,11
    4e98:	00f00093          	li	ra,15
    4e9c:	00000013          	nop
    4ea0:	00000013          	nop
    4ea4:	022081b3          	mul	gp,ra,sp
    4ea8:	00120213          	addi	tp,tp,1 # 1 <reset_vec+0x1>
    4eac:	00200293          	li	t0,2
    4eb0:	fe5212e3          	bne	tp,t0,4e94 <test_22+0x4>
    4eb4:	0a500e93          	li	t4,165
    4eb8:	01600e13          	li	t3,22
    4ebc:	0fd19263          	bne	gp,t4,4fa0 <fail>

00004ec0 <test_23>:
    4ec0:	00000213          	li	tp,0
    4ec4:	00b00113          	li	sp,11
    4ec8:	00000013          	nop
    4ecc:	00d00093          	li	ra,13
    4ed0:	022081b3          	mul	gp,ra,sp
    4ed4:	00120213          	addi	tp,tp,1 # 1 <reset_vec+0x1>
    4ed8:	00200293          	li	t0,2
    4edc:	fe5214e3          	bne	tp,t0,4ec4 <test_23+0x4>
    4ee0:	08f00e93          	li	t4,143
    4ee4:	01700e13          	li	t3,23
    4ee8:	0bd19c63          	bne	gp,t4,4fa0 <fail>

00004eec <test_24>:
    4eec:	00000213          	li	tp,0
    4ef0:	00b00113          	li	sp,11
    4ef4:	00000013          	nop
    4ef8:	00e00093          	li	ra,14
    4efc:	00000013          	nop
    4f00:	022081b3          	mul	gp,ra,sp
    4f04:	00120213          	addi	tp,tp,1 # 1 <reset_vec+0x1>
    4f08:	00200293          	li	t0,2
    4f0c:	fe5212e3          	bne	tp,t0,4ef0 <test_24+0x4>
    4f10:	09a00e93          	li	t4,154
    4f14:	01800e13          	li	t3,24
    4f18:	09d19463          	bne	gp,t4,4fa0 <fail>

00004f1c <test_25>:
    4f1c:	00000213          	li	tp,0
    4f20:	00b00113          	li	sp,11
    4f24:	00000013          	nop
    4f28:	00000013          	nop
    4f2c:	00f00093          	li	ra,15
    4f30:	022081b3          	mul	gp,ra,sp
    4f34:	00120213          	addi	tp,tp,1 # 1 <reset_vec+0x1>
    4f38:	00200293          	li	t0,2
    4f3c:	fe5212e3          	bne	tp,t0,4f20 <test_25+0x4>
    4f40:	0a500e93          	li	t4,165
    4f44:	01900e13          	li	t3,25
    4f48:	05d19c63          	bne	gp,t4,4fa0 <fail>

00004f4c <test_26>:
    4f4c:	01f00093          	li	ra,31
    4f50:	02100133          	mul	sp,zero,ra
    4f54:	00000e93          	li	t4,0
    4f58:	01a00e13          	li	t3,26
    4f5c:	05d11263          	bne	sp,t4,4fa0 <fail>

00004f60 <test_27>:
    4f60:	02000093          	li	ra,32
    4f64:	02008133          	mul	sp,ra,zero
    4f68:	00000e93          	li	t4,0
    4f6c:	01b00e13          	li	t3,27
    4f70:	03d11863          	bne	sp,t4,4fa0 <fail>

00004f74 <test_28>:
    4f74:	020000b3          	mul	ra,zero,zero
    4f78:	00000e93          	li	t4,0
    4f7c:	01c00e13          	li	t3,28
    4f80:	03d09063          	bne	ra,t4,4fa0 <fail>

00004f84 <test_29>:
    4f84:	02100093          	li	ra,33
    4f88:	02200113          	li	sp,34
    4f8c:	02208033          	mul	zero,ra,sp
    4f90:	00000e93          	li	t4,0
    4f94:	01d00e13          	li	t3,29
    4f98:	01d01463          	bne	zero,t4,4fa0 <fail>
    4f9c:	03c01a63          	bne	zero,t3,4fd0 <pass>

00004fa0 <fail>:
    4fa0:	10000537          	lui	a0,0x10000
    4fa4:	04500593          	li	a1,69
    4fa8:	05200613          	li	a2,82
    4fac:	04f00693          	li	a3,79
    4fb0:	00a00713          	li	a4,10
    4fb4:	00b52023          	sw	a1,0(a0) # 10000000 <end+0xfff3f28>
    4fb8:	00c52023          	sw	a2,0(a0)
    4fbc:	00c52023          	sw	a2,0(a0)
    4fc0:	00d52023          	sw	a3,0(a0)
    4fc4:	00c52023          	sw	a2,0(a0)
    4fc8:	00e52023          	sw	a4,0(a0)
    4fcc:	00100073          	ebreak

00004fd0 <pass>:
    4fd0:	10000537          	lui	a0,0x10000
    4fd4:	04f00593          	li	a1,79
    4fd8:	04b00613          	li	a2,75
    4fdc:	00a00693          	li	a3,10
    4fe0:	00b52023          	sw	a1,0(a0) # 10000000 <end+0xfff3f28>
    4fe4:	00c52023          	sw	a2,0(a0)
    4fe8:	00d52023          	sw	a3,0(a0)
    4fec:	e58fb06f          	j	644 <mul_ret>

00004ff0 <mulh>:
    4ff0:	00005537          	lui	a0,0x5
    4ff4:	01050513          	addi	a0,a0,16 # 5010 <.test_name>
    4ff8:	10000637          	lui	a2,0x10000

00004ffc <.prname_next>:
    4ffc:	00050583          	lb	a1,0(a0)
    5000:	00058c63          	beqz	a1,5018 <.prname_done>
    5004:	00b62023          	sw	a1,0(a2) # 10000000 <end+0xfff3f28>
    5008:	00150513          	addi	a0,a0,1
    500c:	ff1ff06f          	j	4ffc <.prname_next>

00005010 <.test_name>:
    5010:	756d                	lui	a0,0xffffb
    5012:	686c                	flw	fa1,84(s0)
    5014:	0000                	unimp
	...

00005018 <.prname_done>:
    5018:	02e00593          	li	a1,46
    501c:	00b62023          	sw	a1,0(a2)
    5020:	00b62023          	sw	a1,0(a2)

00005024 <test_2>:
    5024:	00000093          	li	ra,0
    5028:	00000113          	li	sp,0
    502c:	022091b3          	mulh	gp,ra,sp
    5030:	00000e93          	li	t4,0
    5034:	00200e13          	li	t3,2
    5038:	4bd19a63          	bne	gp,t4,54ec <fail>

0000503c <test_3>:
    503c:	00100093          	li	ra,1
    5040:	00100113          	li	sp,1
    5044:	022091b3          	mulh	gp,ra,sp
    5048:	00000e93          	li	t4,0
    504c:	00300e13          	li	t3,3
    5050:	49d19e63          	bne	gp,t4,54ec <fail>

00005054 <test_4>:
    5054:	00300093          	li	ra,3
    5058:	00700113          	li	sp,7
    505c:	022091b3          	mulh	gp,ra,sp
    5060:	00000e93          	li	t4,0
    5064:	00400e13          	li	t3,4
    5068:	49d19263          	bne	gp,t4,54ec <fail>

0000506c <test_5>:
    506c:	00000093          	li	ra,0
    5070:	ffff8137          	lui	sp,0xffff8
    5074:	022091b3          	mulh	gp,ra,sp
    5078:	00000e93          	li	t4,0
    507c:	00500e13          	li	t3,5
    5080:	47d19663          	bne	gp,t4,54ec <fail>

00005084 <test_6>:
    5084:	800000b7          	lui	ra,0x80000
    5088:	00000113          	li	sp,0
    508c:	022091b3          	mulh	gp,ra,sp
    5090:	00000e93          	li	t4,0
    5094:	00600e13          	li	t3,6
    5098:	45d19a63          	bne	gp,t4,54ec <fail>

0000509c <test_7>:
    509c:	800000b7          	lui	ra,0x80000
    50a0:	00000113          	li	sp,0
    50a4:	022091b3          	mulh	gp,ra,sp
    50a8:	00000e93          	li	t4,0
    50ac:	00700e13          	li	t3,7
    50b0:	43d19e63          	bne	gp,t4,54ec <fail>

000050b4 <test_30>:
    50b4:	aaaab0b7          	lui	ra,0xaaaab
    50b8:	aab08093          	addi	ra,ra,-1365 # aaaaaaab <end+0xaaa9e9d3>
    50bc:	00030137          	lui	sp,0x30
    50c0:	e7d10113          	addi	sp,sp,-387 # 2fe7d <end+0x23da5>
    50c4:	022091b3          	mulh	gp,ra,sp
    50c8:	ffff0eb7          	lui	t4,0xffff0
    50cc:	081e8e93          	addi	t4,t4,129 # ffff0081 <end+0xfffe3fa9>
    50d0:	01e00e13          	li	t3,30
    50d4:	41d19c63          	bne	gp,t4,54ec <fail>

000050d8 <test_31>:
    50d8:	000300b7          	lui	ra,0x30
    50dc:	e7d08093          	addi	ra,ra,-387 # 2fe7d <end+0x23da5>
    50e0:	aaaab137          	lui	sp,0xaaaab
    50e4:	aab10113          	addi	sp,sp,-1365 # aaaaaaab <end+0xaaa9e9d3>
    50e8:	022091b3          	mulh	gp,ra,sp
    50ec:	ffff0eb7          	lui	t4,0xffff0
    50f0:	081e8e93          	addi	t4,t4,129 # ffff0081 <end+0xfffe3fa9>
    50f4:	01f00e13          	li	t3,31
    50f8:	3fd19a63          	bne	gp,t4,54ec <fail>

000050fc <test_32>:
    50fc:	ff0000b7          	lui	ra,0xff000
    5100:	ff000137          	lui	sp,0xff000
    5104:	022091b3          	mulh	gp,ra,sp
    5108:	00010eb7          	lui	t4,0x10
    510c:	02000e13          	li	t3,32
    5110:	3dd19e63          	bne	gp,t4,54ec <fail>

00005114 <test_33>:
    5114:	fff00093          	li	ra,-1
    5118:	fff00113          	li	sp,-1
    511c:	022091b3          	mulh	gp,ra,sp
    5120:	00000e93          	li	t4,0
    5124:	02100e13          	li	t3,33
    5128:	3dd19263          	bne	gp,t4,54ec <fail>

0000512c <test_34>:
    512c:	fff00093          	li	ra,-1
    5130:	00100113          	li	sp,1
    5134:	022091b3          	mulh	gp,ra,sp
    5138:	fff00e93          	li	t4,-1
    513c:	02200e13          	li	t3,34
    5140:	3bd19663          	bne	gp,t4,54ec <fail>

00005144 <test_35>:
    5144:	00100093          	li	ra,1
    5148:	fff00113          	li	sp,-1
    514c:	022091b3          	mulh	gp,ra,sp
    5150:	fff00e93          	li	t4,-1
    5154:	02300e13          	li	t3,35
    5158:	39d19a63          	bne	gp,t4,54ec <fail>

0000515c <test_8>:
    515c:	00d000b7          	lui	ra,0xd00
    5160:	00b00137          	lui	sp,0xb00
    5164:	022090b3          	mulh	ra,ra,sp
    5168:	00009eb7          	lui	t4,0x9
    516c:	f00e8e93          	addi	t4,t4,-256 # 8f00 <test_5+0x8>
    5170:	00800e13          	li	t3,8
    5174:	37d09c63          	bne	ra,t4,54ec <fail>

00005178 <test_9>:
    5178:	00e000b7          	lui	ra,0xe00
    517c:	00b00137          	lui	sp,0xb00
    5180:	02209133          	mulh	sp,ra,sp
    5184:	0000aeb7          	lui	t4,0xa
    5188:	a00e8e93          	addi	t4,t4,-1536 # 9a00 <test_19+0x24>
    518c:	00900e13          	li	t3,9
    5190:	35d11e63          	bne	sp,t4,54ec <fail>

00005194 <test_10>:
    5194:	00d000b7          	lui	ra,0xd00
    5198:	021090b3          	mulh	ra,ra,ra
    519c:	0000beb7          	lui	t4,0xb
    51a0:	900e8e93          	addi	t4,t4,-1792 # a900 <test_11+0x4>
    51a4:	00a00e13          	li	t3,10
    51a8:	35d09263          	bne	ra,t4,54ec <fail>

000051ac <test_11>:
    51ac:	00000213          	li	tp,0
    51b0:	00d000b7          	lui	ra,0xd00
    51b4:	00b00137          	lui	sp,0xb00
    51b8:	022091b3          	mulh	gp,ra,sp
    51bc:	00018313          	mv	t1,gp
    51c0:	00120213          	addi	tp,tp,1 # 1 <reset_vec+0x1>
    51c4:	00200293          	li	t0,2
    51c8:	fe5214e3          	bne	tp,t0,51b0 <test_11+0x4>
    51cc:	00009eb7          	lui	t4,0x9
    51d0:	f00e8e93          	addi	t4,t4,-256 # 8f00 <test_5+0x8>
    51d4:	00b00e13          	li	t3,11
    51d8:	31d31a63          	bne	t1,t4,54ec <fail>

000051dc <test_12>:
    51dc:	00000213          	li	tp,0
    51e0:	00e000b7          	lui	ra,0xe00
    51e4:	00b00137          	lui	sp,0xb00
    51e8:	022091b3          	mulh	gp,ra,sp
    51ec:	00000013          	nop
    51f0:	00018313          	mv	t1,gp
    51f4:	00120213          	addi	tp,tp,1 # 1 <reset_vec+0x1>
    51f8:	00200293          	li	t0,2
    51fc:	fe5212e3          	bne	tp,t0,51e0 <test_12+0x4>
    5200:	0000aeb7          	lui	t4,0xa
    5204:	a00e8e93          	addi	t4,t4,-1536 # 9a00 <test_19+0x24>
    5208:	00c00e13          	li	t3,12
    520c:	2fd31063          	bne	t1,t4,54ec <fail>

00005210 <test_13>:
    5210:	00000213          	li	tp,0
    5214:	00f000b7          	lui	ra,0xf00
    5218:	00b00137          	lui	sp,0xb00
    521c:	022091b3          	mulh	gp,ra,sp
    5220:	00000013          	nop
    5224:	00000013          	nop
    5228:	00018313          	mv	t1,gp
    522c:	00120213          	addi	tp,tp,1 # 1 <reset_vec+0x1>
    5230:	00200293          	li	t0,2
    5234:	fe5210e3          	bne	tp,t0,5214 <test_13+0x4>
    5238:	0000aeb7          	lui	t4,0xa
    523c:	500e8e93          	addi	t4,t4,1280 # a500 <test_16+0x18>
    5240:	00d00e13          	li	t3,13
    5244:	2bd31463          	bne	t1,t4,54ec <fail>

00005248 <test_14>:
    5248:	00000213          	li	tp,0
    524c:	00d000b7          	lui	ra,0xd00
    5250:	00b00137          	lui	sp,0xb00
    5254:	022091b3          	mulh	gp,ra,sp
    5258:	00120213          	addi	tp,tp,1 # 1 <reset_vec+0x1>
    525c:	00200293          	li	t0,2
    5260:	fe5216e3          	bne	tp,t0,524c <test_14+0x4>
    5264:	00009eb7          	lui	t4,0x9
    5268:	f00e8e93          	addi	t4,t4,-256 # 8f00 <test_5+0x8>
    526c:	00e00e13          	li	t3,14
    5270:	27d19e63          	bne	gp,t4,54ec <fail>

00005274 <test_15>:
    5274:	00000213          	li	tp,0
    5278:	00e000b7          	lui	ra,0xe00
    527c:	00b00137          	lui	sp,0xb00
    5280:	00000013          	nop
    5284:	022091b3          	mulh	gp,ra,sp
    5288:	00120213          	addi	tp,tp,1 # 1 <reset_vec+0x1>
    528c:	00200293          	li	t0,2
    5290:	fe5214e3          	bne	tp,t0,5278 <test_15+0x4>
    5294:	0000aeb7          	lui	t4,0xa
    5298:	a00e8e93          	addi	t4,t4,-1536 # 9a00 <test_19+0x24>
    529c:	00f00e13          	li	t3,15
    52a0:	25d19663          	bne	gp,t4,54ec <fail>

000052a4 <test_16>:
    52a4:	00000213          	li	tp,0
    52a8:	00f000b7          	lui	ra,0xf00
    52ac:	00b00137          	lui	sp,0xb00
    52b0:	00000013          	nop
    52b4:	00000013          	nop
    52b8:	022091b3          	mulh	gp,ra,sp
    52bc:	00120213          	addi	tp,tp,1 # 1 <reset_vec+0x1>
    52c0:	00200293          	li	t0,2
    52c4:	fe5212e3          	bne	tp,t0,52a8 <test_16+0x4>
    52c8:	0000aeb7          	lui	t4,0xa
    52cc:	500e8e93          	addi	t4,t4,1280 # a500 <test_16+0x18>
    52d0:	01000e13          	li	t3,16
    52d4:	21d19c63          	bne	gp,t4,54ec <fail>

000052d8 <test_17>:
    52d8:	00000213          	li	tp,0
    52dc:	00d000b7          	lui	ra,0xd00
    52e0:	00000013          	nop
    52e4:	00b00137          	lui	sp,0xb00
    52e8:	022091b3          	mulh	gp,ra,sp
    52ec:	00120213          	addi	tp,tp,1 # 1 <reset_vec+0x1>
    52f0:	00200293          	li	t0,2
    52f4:	fe5214e3          	bne	tp,t0,52dc <test_17+0x4>
    52f8:	00009eb7          	lui	t4,0x9
    52fc:	f00e8e93          	addi	t4,t4,-256 # 8f00 <test_5+0x8>
    5300:	01100e13          	li	t3,17
    5304:	1fd19463          	bne	gp,t4,54ec <fail>

00005308 <test_18>:
    5308:	00000213          	li	tp,0
    530c:	00e000b7          	lui	ra,0xe00
    5310:	00000013          	nop
    5314:	00b00137          	lui	sp,0xb00
    5318:	00000013          	nop
    531c:	022091b3          	mulh	gp,ra,sp
    5320:	00120213          	addi	tp,tp,1 # 1 <reset_vec+0x1>
    5324:	00200293          	li	t0,2
    5328:	fe5212e3          	bne	tp,t0,530c <test_18+0x4>
    532c:	0000aeb7          	lui	t4,0xa
    5330:	a00e8e93          	addi	t4,t4,-1536 # 9a00 <test_19+0x24>
    5334:	01200e13          	li	t3,18
    5338:	1bd19a63          	bne	gp,t4,54ec <fail>

0000533c <test_19>:
    533c:	00000213          	li	tp,0
    5340:	00f000b7          	lui	ra,0xf00
    5344:	00000013          	nop
    5348:	00000013          	nop
    534c:	00b00137          	lui	sp,0xb00
    5350:	022091b3          	mulh	gp,ra,sp
    5354:	00120213          	addi	tp,tp,1 # 1 <reset_vec+0x1>
    5358:	00200293          	li	t0,2
    535c:	fe5212e3          	bne	tp,t0,5340 <test_19+0x4>
    5360:	0000aeb7          	lui	t4,0xa
    5364:	500e8e93          	addi	t4,t4,1280 # a500 <test_16+0x18>
    5368:	01300e13          	li	t3,19
    536c:	19d19063          	bne	gp,t4,54ec <fail>

00005370 <test_20>:
    5370:	00000213          	li	tp,0
    5374:	00b00137          	lui	sp,0xb00
    5378:	00d000b7          	lui	ra,0xd00
    537c:	022091b3          	mulh	gp,ra,sp
    5380:	00120213          	addi	tp,tp,1 # 1 <reset_vec+0x1>
    5384:	00200293          	li	t0,2
    5388:	fe5216e3          	bne	tp,t0,5374 <test_20+0x4>
    538c:	00009eb7          	lui	t4,0x9
    5390:	f00e8e93          	addi	t4,t4,-256 # 8f00 <test_5+0x8>
    5394:	01400e13          	li	t3,20
    5398:	15d19a63          	bne	gp,t4,54ec <fail>

0000539c <test_21>:
    539c:	00000213          	li	tp,0
    53a0:	00b00137          	lui	sp,0xb00
    53a4:	00e000b7          	lui	ra,0xe00
    53a8:	00000013          	nop
    53ac:	022091b3          	mulh	gp,ra,sp
    53b0:	00120213          	addi	tp,tp,1 # 1 <reset_vec+0x1>
    53b4:	00200293          	li	t0,2
    53b8:	fe5214e3          	bne	tp,t0,53a0 <test_21+0x4>
    53bc:	0000aeb7          	lui	t4,0xa
    53c0:	a00e8e93          	addi	t4,t4,-1536 # 9a00 <test_19+0x24>
    53c4:	01500e13          	li	t3,21
    53c8:	13d19263          	bne	gp,t4,54ec <fail>

000053cc <test_22>:
    53cc:	00000213          	li	tp,0
    53d0:	00b00137          	lui	sp,0xb00
    53d4:	00f000b7          	lui	ra,0xf00
    53d8:	00000013          	nop
    53dc:	00000013          	nop
    53e0:	022091b3          	mulh	gp,ra,sp
    53e4:	00120213          	addi	tp,tp,1 # 1 <reset_vec+0x1>
    53e8:	00200293          	li	t0,2
    53ec:	fe5212e3          	bne	tp,t0,53d0 <test_22+0x4>
    53f0:	0000aeb7          	lui	t4,0xa
    53f4:	500e8e93          	addi	t4,t4,1280 # a500 <test_16+0x18>
    53f8:	01600e13          	li	t3,22
    53fc:	0fd19863          	bne	gp,t4,54ec <fail>

00005400 <test_23>:
    5400:	00000213          	li	tp,0
    5404:	00b00137          	lui	sp,0xb00
    5408:	00000013          	nop
    540c:	00d000b7          	lui	ra,0xd00
    5410:	022091b3          	mulh	gp,ra,sp
    5414:	00120213          	addi	tp,tp,1 # 1 <reset_vec+0x1>
    5418:	00200293          	li	t0,2
    541c:	fe5214e3          	bne	tp,t0,5404 <test_23+0x4>
    5420:	00009eb7          	lui	t4,0x9
    5424:	f00e8e93          	addi	t4,t4,-256 # 8f00 <test_5+0x8>
    5428:	01700e13          	li	t3,23
    542c:	0dd19063          	bne	gp,t4,54ec <fail>

00005430 <test_24>:
    5430:	00000213          	li	tp,0
    5434:	00b00137          	lui	sp,0xb00
    5438:	00000013          	nop
    543c:	00e000b7          	lui	ra,0xe00
    5440:	00000013          	nop
    5444:	022091b3          	mulh	gp,ra,sp
    5448:	00120213          	addi	tp,tp,1 # 1 <reset_vec+0x1>
    544c:	00200293          	li	t0,2
    5450:	fe5212e3          	bne	tp,t0,5434 <test_24+0x4>
    5454:	0000aeb7          	lui	t4,0xa
    5458:	a00e8e93          	addi	t4,t4,-1536 # 9a00 <test_19+0x24>
    545c:	01800e13          	li	t3,24
    5460:	09d19663          	bne	gp,t4,54ec <fail>

00005464 <test_25>:
    5464:	00000213          	li	tp,0
    5468:	00b00137          	lui	sp,0xb00
    546c:	00000013          	nop
    5470:	00000013          	nop
    5474:	00f000b7          	lui	ra,0xf00
    5478:	022091b3          	mulh	gp,ra,sp
    547c:	00120213          	addi	tp,tp,1 # 1 <reset_vec+0x1>
    5480:	00200293          	li	t0,2
    5484:	fe5212e3          	bne	tp,t0,5468 <test_25+0x4>
    5488:	0000aeb7          	lui	t4,0xa
    548c:	500e8e93          	addi	t4,t4,1280 # a500 <test_16+0x18>
    5490:	01900e13          	li	t3,25
    5494:	05d19c63          	bne	gp,t4,54ec <fail>

00005498 <test_26>:
    5498:	7c0000b7          	lui	ra,0x7c000
    549c:	02101133          	mulh	sp,zero,ra
    54a0:	00000e93          	li	t4,0
    54a4:	01a00e13          	li	t3,26
    54a8:	05d11263          	bne	sp,t4,54ec <fail>

000054ac <test_27>:
    54ac:	800000b7          	lui	ra,0x80000
    54b0:	02009133          	mulh	sp,ra,zero
    54b4:	00000e93          	li	t4,0
    54b8:	01b00e13          	li	t3,27
    54bc:	03d11863          	bne	sp,t4,54ec <fail>

000054c0 <test_28>:
    54c0:	020010b3          	mulh	ra,zero,zero
    54c4:	00000e93          	li	t4,0
    54c8:	01c00e13          	li	t3,28
    54cc:	03d09063          	bne	ra,t4,54ec <fail>

000054d0 <test_29>:
    54d0:	021000b7          	lui	ra,0x2100
    54d4:	02200137          	lui	sp,0x2200
    54d8:	02209033          	mulh	zero,ra,sp
    54dc:	00000e93          	li	t4,0
    54e0:	01d00e13          	li	t3,29
    54e4:	01d01463          	bne	zero,t4,54ec <fail>
    54e8:	03c01a63          	bne	zero,t3,551c <pass>

000054ec <fail>:
    54ec:	10000537          	lui	a0,0x10000
    54f0:	04500593          	li	a1,69
    54f4:	05200613          	li	a2,82
    54f8:	04f00693          	li	a3,79
    54fc:	00a00713          	li	a4,10
    5500:	00b52023          	sw	a1,0(a0) # 10000000 <end+0xfff3f28>
    5504:	00c52023          	sw	a2,0(a0)
    5508:	00c52023          	sw	a2,0(a0)
    550c:	00d52023          	sw	a3,0(a0)
    5510:	00c52023          	sw	a2,0(a0)
    5514:	00e52023          	sw	a4,0(a0)
    5518:	00100073          	ebreak

0000551c <pass>:
    551c:	10000537          	lui	a0,0x10000
    5520:	04f00593          	li	a1,79
    5524:	04b00613          	li	a2,75
    5528:	00a00693          	li	a3,10
    552c:	00b52023          	sw	a1,0(a0) # 10000000 <end+0xfff3f28>
    5530:	00c52023          	sw	a2,0(a0)
    5534:	00d52023          	sw	a3,0(a0)
    5538:	8e8fb06f          	j	620 <mulh_ret>

0000553c <mulhsu>:
    553c:	00005537          	lui	a0,0x5
    5540:	55c50513          	addi	a0,a0,1372 # 555c <.test_name>
    5544:	10000637          	lui	a2,0x10000

00005548 <.prname_next>:
    5548:	00050583          	lb	a1,0(a0)
    554c:	00058c63          	beqz	a1,5564 <.prname_done>
    5550:	00b62023          	sw	a1,0(a2) # 10000000 <end+0xfff3f28>
    5554:	00150513          	addi	a0,a0,1
    5558:	ff1ff06f          	j	5548 <.prname_next>

0000555c <.test_name>:
    555c:	756d                	lui	a0,0xffffb
    555e:	686c                	flw	fa1,84(s0)
    5560:	00007573          	csrrci	a0,ustatus,0

00005564 <.prname_done>:
    5564:	02e00593          	li	a1,46
    5568:	00b62023          	sw	a1,0(a2)
    556c:	00b62023          	sw	a1,0(a2)

00005570 <test_2>:
    5570:	00000093          	li	ra,0
    5574:	00000113          	li	sp,0
    5578:	0220a1b3          	mulhsu	gp,ra,sp
    557c:	00000e93          	li	t4,0
    5580:	00200e13          	li	t3,2
    5584:	4bd19a63          	bne	gp,t4,5a38 <fail>

00005588 <test_3>:
    5588:	00100093          	li	ra,1
    558c:	00100113          	li	sp,1
    5590:	0220a1b3          	mulhsu	gp,ra,sp
    5594:	00000e93          	li	t4,0
    5598:	00300e13          	li	t3,3
    559c:	49d19e63          	bne	gp,t4,5a38 <fail>

000055a0 <test_4>:
    55a0:	00300093          	li	ra,3
    55a4:	00700113          	li	sp,7
    55a8:	0220a1b3          	mulhsu	gp,ra,sp
    55ac:	00000e93          	li	t4,0
    55b0:	00400e13          	li	t3,4
    55b4:	49d19263          	bne	gp,t4,5a38 <fail>

000055b8 <test_5>:
    55b8:	00000093          	li	ra,0
    55bc:	ffff8137          	lui	sp,0xffff8
    55c0:	0220a1b3          	mulhsu	gp,ra,sp
    55c4:	00000e93          	li	t4,0
    55c8:	00500e13          	li	t3,5
    55cc:	47d19663          	bne	gp,t4,5a38 <fail>

000055d0 <test_6>:
    55d0:	800000b7          	lui	ra,0x80000
    55d4:	00000113          	li	sp,0
    55d8:	0220a1b3          	mulhsu	gp,ra,sp
    55dc:	00000e93          	li	t4,0
    55e0:	00600e13          	li	t3,6
    55e4:	45d19a63          	bne	gp,t4,5a38 <fail>

000055e8 <test_7>:
    55e8:	800000b7          	lui	ra,0x80000
    55ec:	ffff8137          	lui	sp,0xffff8
    55f0:	0220a1b3          	mulhsu	gp,ra,sp
    55f4:	80004eb7          	lui	t4,0x80004
    55f8:	00700e13          	li	t3,7
    55fc:	43d19e63          	bne	gp,t4,5a38 <fail>

00005600 <test_30>:
    5600:	aaaab0b7          	lui	ra,0xaaaab
    5604:	aab08093          	addi	ra,ra,-1365 # aaaaaaab <end+0xaaa9e9d3>
    5608:	00030137          	lui	sp,0x30
    560c:	e7d10113          	addi	sp,sp,-387 # 2fe7d <end+0x23da5>
    5610:	0220a1b3          	mulhsu	gp,ra,sp
    5614:	ffff0eb7          	lui	t4,0xffff0
    5618:	081e8e93          	addi	t4,t4,129 # ffff0081 <end+0xfffe3fa9>
    561c:	01e00e13          	li	t3,30
    5620:	41d19c63          	bne	gp,t4,5a38 <fail>

00005624 <test_31>:
    5624:	000300b7          	lui	ra,0x30
    5628:	e7d08093          	addi	ra,ra,-387 # 2fe7d <end+0x23da5>
    562c:	aaaab137          	lui	sp,0xaaaab
    5630:	aab10113          	addi	sp,sp,-1365 # aaaaaaab <end+0xaaa9e9d3>
    5634:	0220a1b3          	mulhsu	gp,ra,sp
    5638:	00020eb7          	lui	t4,0x20
    563c:	efee8e93          	addi	t4,t4,-258 # 1fefe <end+0x13e26>
    5640:	01f00e13          	li	t3,31
    5644:	3fd19a63          	bne	gp,t4,5a38 <fail>

00005648 <test_32>:
    5648:	ff0000b7          	lui	ra,0xff000
    564c:	ff000137          	lui	sp,0xff000
    5650:	0220a1b3          	mulhsu	gp,ra,sp
    5654:	ff010eb7          	lui	t4,0xff010
    5658:	02000e13          	li	t3,32
    565c:	3dd19e63          	bne	gp,t4,5a38 <fail>

00005660 <test_33>:
    5660:	fff00093          	li	ra,-1
    5664:	fff00113          	li	sp,-1
    5668:	0220a1b3          	mulhsu	gp,ra,sp
    566c:	fff00e93          	li	t4,-1
    5670:	02100e13          	li	t3,33
    5674:	3dd19263          	bne	gp,t4,5a38 <fail>

00005678 <test_34>:
    5678:	fff00093          	li	ra,-1
    567c:	00100113          	li	sp,1
    5680:	0220a1b3          	mulhsu	gp,ra,sp
    5684:	fff00e93          	li	t4,-1
    5688:	02200e13          	li	t3,34
    568c:	3bd19663          	bne	gp,t4,5a38 <fail>

00005690 <test_35>:
    5690:	00100093          	li	ra,1
    5694:	fff00113          	li	sp,-1
    5698:	0220a1b3          	mulhsu	gp,ra,sp
    569c:	00000e93          	li	t4,0
    56a0:	02300e13          	li	t3,35
    56a4:	39d19a63          	bne	gp,t4,5a38 <fail>

000056a8 <test_8>:
    56a8:	00d000b7          	lui	ra,0xd00
    56ac:	00b00137          	lui	sp,0xb00
    56b0:	0220a0b3          	mulhsu	ra,ra,sp
    56b4:	00009eb7          	lui	t4,0x9
    56b8:	f00e8e93          	addi	t4,t4,-256 # 8f00 <test_5+0x8>
    56bc:	00800e13          	li	t3,8
    56c0:	37d09c63          	bne	ra,t4,5a38 <fail>

000056c4 <test_9>:
    56c4:	00e000b7          	lui	ra,0xe00
    56c8:	00b00137          	lui	sp,0xb00
    56cc:	0220a133          	mulhsu	sp,ra,sp
    56d0:	0000aeb7          	lui	t4,0xa
    56d4:	a00e8e93          	addi	t4,t4,-1536 # 9a00 <test_19+0x24>
    56d8:	00900e13          	li	t3,9
    56dc:	35d11e63          	bne	sp,t4,5a38 <fail>

000056e0 <test_10>:
    56e0:	00d000b7          	lui	ra,0xd00
    56e4:	0210a0b3          	mulhsu	ra,ra,ra
    56e8:	0000beb7          	lui	t4,0xb
    56ec:	900e8e93          	addi	t4,t4,-1792 # a900 <test_11+0x4>
    56f0:	00a00e13          	li	t3,10
    56f4:	35d09263          	bne	ra,t4,5a38 <fail>

000056f8 <test_11>:
    56f8:	00000213          	li	tp,0
    56fc:	00d000b7          	lui	ra,0xd00
    5700:	00b00137          	lui	sp,0xb00
    5704:	0220a1b3          	mulhsu	gp,ra,sp
    5708:	00018313          	mv	t1,gp
    570c:	00120213          	addi	tp,tp,1 # 1 <reset_vec+0x1>
    5710:	00200293          	li	t0,2
    5714:	fe5214e3          	bne	tp,t0,56fc <test_11+0x4>
    5718:	00009eb7          	lui	t4,0x9
    571c:	f00e8e93          	addi	t4,t4,-256 # 8f00 <test_5+0x8>
    5720:	00b00e13          	li	t3,11
    5724:	31d31a63          	bne	t1,t4,5a38 <fail>

00005728 <test_12>:
    5728:	00000213          	li	tp,0
    572c:	00e000b7          	lui	ra,0xe00
    5730:	00b00137          	lui	sp,0xb00
    5734:	0220a1b3          	mulhsu	gp,ra,sp
    5738:	00000013          	nop
    573c:	00018313          	mv	t1,gp
    5740:	00120213          	addi	tp,tp,1 # 1 <reset_vec+0x1>
    5744:	00200293          	li	t0,2
    5748:	fe5212e3          	bne	tp,t0,572c <test_12+0x4>
    574c:	0000aeb7          	lui	t4,0xa
    5750:	a00e8e93          	addi	t4,t4,-1536 # 9a00 <test_19+0x24>
    5754:	00c00e13          	li	t3,12
    5758:	2fd31063          	bne	t1,t4,5a38 <fail>

0000575c <test_13>:
    575c:	00000213          	li	tp,0
    5760:	00f000b7          	lui	ra,0xf00
    5764:	00b00137          	lui	sp,0xb00
    5768:	0220a1b3          	mulhsu	gp,ra,sp
    576c:	00000013          	nop
    5770:	00000013          	nop
    5774:	00018313          	mv	t1,gp
    5778:	00120213          	addi	tp,tp,1 # 1 <reset_vec+0x1>
    577c:	00200293          	li	t0,2
    5780:	fe5210e3          	bne	tp,t0,5760 <test_13+0x4>
    5784:	0000aeb7          	lui	t4,0xa
    5788:	500e8e93          	addi	t4,t4,1280 # a500 <test_16+0x18>
    578c:	00d00e13          	li	t3,13
    5790:	2bd31463          	bne	t1,t4,5a38 <fail>

00005794 <test_14>:
    5794:	00000213          	li	tp,0
    5798:	00d000b7          	lui	ra,0xd00
    579c:	00b00137          	lui	sp,0xb00
    57a0:	0220a1b3          	mulhsu	gp,ra,sp
    57a4:	00120213          	addi	tp,tp,1 # 1 <reset_vec+0x1>
    57a8:	00200293          	li	t0,2
    57ac:	fe5216e3          	bne	tp,t0,5798 <test_14+0x4>
    57b0:	00009eb7          	lui	t4,0x9
    57b4:	f00e8e93          	addi	t4,t4,-256 # 8f00 <test_5+0x8>
    57b8:	00e00e13          	li	t3,14
    57bc:	27d19e63          	bne	gp,t4,5a38 <fail>

000057c0 <test_15>:
    57c0:	00000213          	li	tp,0
    57c4:	00e000b7          	lui	ra,0xe00
    57c8:	00b00137          	lui	sp,0xb00
    57cc:	00000013          	nop
    57d0:	0220a1b3          	mulhsu	gp,ra,sp
    57d4:	00120213          	addi	tp,tp,1 # 1 <reset_vec+0x1>
    57d8:	00200293          	li	t0,2
    57dc:	fe5214e3          	bne	tp,t0,57c4 <test_15+0x4>
    57e0:	0000aeb7          	lui	t4,0xa
    57e4:	a00e8e93          	addi	t4,t4,-1536 # 9a00 <test_19+0x24>
    57e8:	00f00e13          	li	t3,15
    57ec:	25d19663          	bne	gp,t4,5a38 <fail>

000057f0 <test_16>:
    57f0:	00000213          	li	tp,0
    57f4:	00f000b7          	lui	ra,0xf00
    57f8:	00b00137          	lui	sp,0xb00
    57fc:	00000013          	nop
    5800:	00000013          	nop
    5804:	0220a1b3          	mulhsu	gp,ra,sp
    5808:	00120213          	addi	tp,tp,1 # 1 <reset_vec+0x1>
    580c:	00200293          	li	t0,2
    5810:	fe5212e3          	bne	tp,t0,57f4 <test_16+0x4>
    5814:	0000aeb7          	lui	t4,0xa
    5818:	500e8e93          	addi	t4,t4,1280 # a500 <test_16+0x18>
    581c:	01000e13          	li	t3,16
    5820:	21d19c63          	bne	gp,t4,5a38 <fail>

00005824 <test_17>:
    5824:	00000213          	li	tp,0
    5828:	00d000b7          	lui	ra,0xd00
    582c:	00000013          	nop
    5830:	00b00137          	lui	sp,0xb00
    5834:	0220a1b3          	mulhsu	gp,ra,sp
    5838:	00120213          	addi	tp,tp,1 # 1 <reset_vec+0x1>
    583c:	00200293          	li	t0,2
    5840:	fe5214e3          	bne	tp,t0,5828 <test_17+0x4>
    5844:	00009eb7          	lui	t4,0x9
    5848:	f00e8e93          	addi	t4,t4,-256 # 8f00 <test_5+0x8>
    584c:	01100e13          	li	t3,17
    5850:	1fd19463          	bne	gp,t4,5a38 <fail>

00005854 <test_18>:
    5854:	00000213          	li	tp,0
    5858:	00e000b7          	lui	ra,0xe00
    585c:	00000013          	nop
    5860:	00b00137          	lui	sp,0xb00
    5864:	00000013          	nop
    5868:	0220a1b3          	mulhsu	gp,ra,sp
    586c:	00120213          	addi	tp,tp,1 # 1 <reset_vec+0x1>
    5870:	00200293          	li	t0,2
    5874:	fe5212e3          	bne	tp,t0,5858 <test_18+0x4>
    5878:	0000aeb7          	lui	t4,0xa
    587c:	a00e8e93          	addi	t4,t4,-1536 # 9a00 <test_19+0x24>
    5880:	01200e13          	li	t3,18
    5884:	1bd19a63          	bne	gp,t4,5a38 <fail>

00005888 <test_19>:
    5888:	00000213          	li	tp,0
    588c:	00f000b7          	lui	ra,0xf00
    5890:	00000013          	nop
    5894:	00000013          	nop
    5898:	00b00137          	lui	sp,0xb00
    589c:	0220a1b3          	mulhsu	gp,ra,sp
    58a0:	00120213          	addi	tp,tp,1 # 1 <reset_vec+0x1>
    58a4:	00200293          	li	t0,2
    58a8:	fe5212e3          	bne	tp,t0,588c <test_19+0x4>
    58ac:	0000aeb7          	lui	t4,0xa
    58b0:	500e8e93          	addi	t4,t4,1280 # a500 <test_16+0x18>
    58b4:	01300e13          	li	t3,19
    58b8:	19d19063          	bne	gp,t4,5a38 <fail>

000058bc <test_20>:
    58bc:	00000213          	li	tp,0
    58c0:	00b00137          	lui	sp,0xb00
    58c4:	00d000b7          	lui	ra,0xd00
    58c8:	0220a1b3          	mulhsu	gp,ra,sp
    58cc:	00120213          	addi	tp,tp,1 # 1 <reset_vec+0x1>
    58d0:	00200293          	li	t0,2
    58d4:	fe5216e3          	bne	tp,t0,58c0 <test_20+0x4>
    58d8:	00009eb7          	lui	t4,0x9
    58dc:	f00e8e93          	addi	t4,t4,-256 # 8f00 <test_5+0x8>
    58e0:	01400e13          	li	t3,20
    58e4:	15d19a63          	bne	gp,t4,5a38 <fail>

000058e8 <test_21>:
    58e8:	00000213          	li	tp,0
    58ec:	00b00137          	lui	sp,0xb00
    58f0:	00e000b7          	lui	ra,0xe00
    58f4:	00000013          	nop
    58f8:	0220a1b3          	mulhsu	gp,ra,sp
    58fc:	00120213          	addi	tp,tp,1 # 1 <reset_vec+0x1>
    5900:	00200293          	li	t0,2
    5904:	fe5214e3          	bne	tp,t0,58ec <test_21+0x4>
    5908:	0000aeb7          	lui	t4,0xa
    590c:	a00e8e93          	addi	t4,t4,-1536 # 9a00 <test_19+0x24>
    5910:	01500e13          	li	t3,21
    5914:	13d19263          	bne	gp,t4,5a38 <fail>

00005918 <test_22>:
    5918:	00000213          	li	tp,0
    591c:	00b00137          	lui	sp,0xb00
    5920:	00f000b7          	lui	ra,0xf00
    5924:	00000013          	nop
    5928:	00000013          	nop
    592c:	0220a1b3          	mulhsu	gp,ra,sp
    5930:	00120213          	addi	tp,tp,1 # 1 <reset_vec+0x1>
    5934:	00200293          	li	t0,2
    5938:	fe5212e3          	bne	tp,t0,591c <test_22+0x4>
    593c:	0000aeb7          	lui	t4,0xa
    5940:	500e8e93          	addi	t4,t4,1280 # a500 <test_16+0x18>
    5944:	01600e13          	li	t3,22
    5948:	0fd19863          	bne	gp,t4,5a38 <fail>

0000594c <test_23>:
    594c:	00000213          	li	tp,0
    5950:	00b00137          	lui	sp,0xb00
    5954:	00000013          	nop
    5958:	00d000b7          	lui	ra,0xd00
    595c:	0220a1b3          	mulhsu	gp,ra,sp
    5960:	00120213          	addi	tp,tp,1 # 1 <reset_vec+0x1>
    5964:	00200293          	li	t0,2
    5968:	fe5214e3          	bne	tp,t0,5950 <test_23+0x4>
    596c:	00009eb7          	lui	t4,0x9
    5970:	f00e8e93          	addi	t4,t4,-256 # 8f00 <test_5+0x8>
    5974:	01700e13          	li	t3,23
    5978:	0dd19063          	bne	gp,t4,5a38 <fail>

0000597c <test_24>:
    597c:	00000213          	li	tp,0
    5980:	00b00137          	lui	sp,0xb00
    5984:	00000013          	nop
    5988:	00e000b7          	lui	ra,0xe00
    598c:	00000013          	nop
    5990:	0220a1b3          	mulhsu	gp,ra,sp
    5994:	00120213          	addi	tp,tp,1 # 1 <reset_vec+0x1>
    5998:	00200293          	li	t0,2
    599c:	fe5212e3          	bne	tp,t0,5980 <test_24+0x4>
    59a0:	0000aeb7          	lui	t4,0xa
    59a4:	a00e8e93          	addi	t4,t4,-1536 # 9a00 <test_19+0x24>
    59a8:	01800e13          	li	t3,24
    59ac:	09d19663          	bne	gp,t4,5a38 <fail>

000059b0 <test_25>:
    59b0:	00000213          	li	tp,0
    59b4:	00b00137          	lui	sp,0xb00
    59b8:	00000013          	nop
    59bc:	00000013          	nop
    59c0:	00f000b7          	lui	ra,0xf00
    59c4:	0220a1b3          	mulhsu	gp,ra,sp
    59c8:	00120213          	addi	tp,tp,1 # 1 <reset_vec+0x1>
    59cc:	00200293          	li	t0,2
    59d0:	fe5212e3          	bne	tp,t0,59b4 <test_25+0x4>
    59d4:	0000aeb7          	lui	t4,0xa
    59d8:	500e8e93          	addi	t4,t4,1280 # a500 <test_16+0x18>
    59dc:	01900e13          	li	t3,25
    59e0:	05d19c63          	bne	gp,t4,5a38 <fail>

000059e4 <test_26>:
    59e4:	7c0000b7          	lui	ra,0x7c000
    59e8:	02102133          	mulhsu	sp,zero,ra
    59ec:	00000e93          	li	t4,0
    59f0:	01a00e13          	li	t3,26
    59f4:	05d11263          	bne	sp,t4,5a38 <fail>

000059f8 <test_27>:
    59f8:	800000b7          	lui	ra,0x80000
    59fc:	0200a133          	mulhsu	sp,ra,zero
    5a00:	00000e93          	li	t4,0
    5a04:	01b00e13          	li	t3,27
    5a08:	03d11863          	bne	sp,t4,5a38 <fail>

00005a0c <test_28>:
    5a0c:	020020b3          	mulhsu	ra,zero,zero
    5a10:	00000e93          	li	t4,0
    5a14:	01c00e13          	li	t3,28
    5a18:	03d09063          	bne	ra,t4,5a38 <fail>

00005a1c <test_29>:
    5a1c:	021000b7          	lui	ra,0x2100
    5a20:	02200137          	lui	sp,0x2200
    5a24:	0220a033          	mulhsu	zero,ra,sp
    5a28:	00000e93          	li	t4,0
    5a2c:	01d00e13          	li	t3,29
    5a30:	01d01463          	bne	zero,t4,5a38 <fail>
    5a34:	03c01a63          	bne	zero,t3,5a68 <pass>

00005a38 <fail>:
    5a38:	10000537          	lui	a0,0x10000
    5a3c:	04500593          	li	a1,69
    5a40:	05200613          	li	a2,82
    5a44:	04f00693          	li	a3,79
    5a48:	00a00713          	li	a4,10
    5a4c:	00b52023          	sw	a1,0(a0) # 10000000 <end+0xfff3f28>
    5a50:	00c52023          	sw	a2,0(a0)
    5a54:	00c52023          	sw	a2,0(a0)
    5a58:	00d52023          	sw	a3,0(a0)
    5a5c:	00c52023          	sw	a2,0(a0)
    5a60:	00e52023          	sw	a4,0(a0)
    5a64:	00100073          	ebreak

00005a68 <pass>:
    5a68:	10000537          	lui	a0,0x10000
    5a6c:	04f00593          	li	a1,79
    5a70:	04b00613          	li	a2,75
    5a74:	00a00693          	li	a3,10
    5a78:	00b52023          	sw	a1,0(a0) # 10000000 <end+0xfff3f28>
    5a7c:	00c52023          	sw	a2,0(a0)
    5a80:	00d52023          	sw	a3,0(a0)
    5a84:	ba9fa06f          	j	62c <mulhsu_ret>

00005a88 <mulhu>:
    5a88:	00006537          	lui	a0,0x6
    5a8c:	aa850513          	addi	a0,a0,-1368 # 5aa8 <.test_name>
    5a90:	10000637          	lui	a2,0x10000

00005a94 <.prname_next>:
    5a94:	00050583          	lb	a1,0(a0)
    5a98:	00058c63          	beqz	a1,5ab0 <.prname_done>
    5a9c:	00b62023          	sw	a1,0(a2) # 10000000 <end+0xfff3f28>
    5aa0:	00150513          	addi	a0,a0,1
    5aa4:	ff1ff06f          	j	5a94 <.prname_next>

00005aa8 <.test_name>:
    5aa8:	756d                	lui	a0,0xffffb
    5aaa:	686c                	flw	fa1,84(s0)
    5aac:	0075                	c.nop	29
	...

00005ab0 <.prname_done>:
    5ab0:	02e00593          	li	a1,46
    5ab4:	00b62023          	sw	a1,0(a2)
    5ab8:	00b62023          	sw	a1,0(a2)

00005abc <test_2>:
    5abc:	00000093          	li	ra,0
    5ac0:	00000113          	li	sp,0
    5ac4:	0220b1b3          	mulhu	gp,ra,sp
    5ac8:	00000e93          	li	t4,0
    5acc:	00200e13          	li	t3,2
    5ad0:	4bd19a63          	bne	gp,t4,5f84 <fail>

00005ad4 <test_3>:
    5ad4:	00100093          	li	ra,1
    5ad8:	00100113          	li	sp,1
    5adc:	0220b1b3          	mulhu	gp,ra,sp
    5ae0:	00000e93          	li	t4,0
    5ae4:	00300e13          	li	t3,3
    5ae8:	49d19e63          	bne	gp,t4,5f84 <fail>

00005aec <test_4>:
    5aec:	00300093          	li	ra,3
    5af0:	00700113          	li	sp,7
    5af4:	0220b1b3          	mulhu	gp,ra,sp
    5af8:	00000e93          	li	t4,0
    5afc:	00400e13          	li	t3,4
    5b00:	49d19263          	bne	gp,t4,5f84 <fail>

00005b04 <test_5>:
    5b04:	00000093          	li	ra,0
    5b08:	ffff8137          	lui	sp,0xffff8
    5b0c:	0220b1b3          	mulhu	gp,ra,sp
    5b10:	00000e93          	li	t4,0
    5b14:	00500e13          	li	t3,5
    5b18:	47d19663          	bne	gp,t4,5f84 <fail>

00005b1c <test_6>:
    5b1c:	800000b7          	lui	ra,0x80000
    5b20:	00000113          	li	sp,0
    5b24:	0220b1b3          	mulhu	gp,ra,sp
    5b28:	00000e93          	li	t4,0
    5b2c:	00600e13          	li	t3,6
    5b30:	45d19a63          	bne	gp,t4,5f84 <fail>

00005b34 <test_7>:
    5b34:	800000b7          	lui	ra,0x80000
    5b38:	ffff8137          	lui	sp,0xffff8
    5b3c:	0220b1b3          	mulhu	gp,ra,sp
    5b40:	7fffceb7          	lui	t4,0x7fffc
    5b44:	00700e13          	li	t3,7
    5b48:	43d19e63          	bne	gp,t4,5f84 <fail>

00005b4c <test_30>:
    5b4c:	aaaab0b7          	lui	ra,0xaaaab
    5b50:	aab08093          	addi	ra,ra,-1365 # aaaaaaab <end+0xaaa9e9d3>
    5b54:	00030137          	lui	sp,0x30
    5b58:	e7d10113          	addi	sp,sp,-387 # 2fe7d <end+0x23da5>
    5b5c:	0220b1b3          	mulhu	gp,ra,sp
    5b60:	00020eb7          	lui	t4,0x20
    5b64:	efee8e93          	addi	t4,t4,-258 # 1fefe <end+0x13e26>
    5b68:	01e00e13          	li	t3,30
    5b6c:	41d19c63          	bne	gp,t4,5f84 <fail>

00005b70 <test_31>:
    5b70:	000300b7          	lui	ra,0x30
    5b74:	e7d08093          	addi	ra,ra,-387 # 2fe7d <end+0x23da5>
    5b78:	aaaab137          	lui	sp,0xaaaab
    5b7c:	aab10113          	addi	sp,sp,-1365 # aaaaaaab <end+0xaaa9e9d3>
    5b80:	0220b1b3          	mulhu	gp,ra,sp
    5b84:	00020eb7          	lui	t4,0x20
    5b88:	efee8e93          	addi	t4,t4,-258 # 1fefe <end+0x13e26>
    5b8c:	01f00e13          	li	t3,31
    5b90:	3fd19a63          	bne	gp,t4,5f84 <fail>

00005b94 <test_32>:
    5b94:	ff0000b7          	lui	ra,0xff000
    5b98:	ff000137          	lui	sp,0xff000
    5b9c:	0220b1b3          	mulhu	gp,ra,sp
    5ba0:	fe010eb7          	lui	t4,0xfe010
    5ba4:	02000e13          	li	t3,32
    5ba8:	3dd19e63          	bne	gp,t4,5f84 <fail>

00005bac <test_33>:
    5bac:	fff00093          	li	ra,-1
    5bb0:	fff00113          	li	sp,-1
    5bb4:	0220b1b3          	mulhu	gp,ra,sp
    5bb8:	ffe00e93          	li	t4,-2
    5bbc:	02100e13          	li	t3,33
    5bc0:	3dd19263          	bne	gp,t4,5f84 <fail>

00005bc4 <test_34>:
    5bc4:	fff00093          	li	ra,-1
    5bc8:	00100113          	li	sp,1
    5bcc:	0220b1b3          	mulhu	gp,ra,sp
    5bd0:	00000e93          	li	t4,0
    5bd4:	02200e13          	li	t3,34
    5bd8:	3bd19663          	bne	gp,t4,5f84 <fail>

00005bdc <test_35>:
    5bdc:	00100093          	li	ra,1
    5be0:	fff00113          	li	sp,-1
    5be4:	0220b1b3          	mulhu	gp,ra,sp
    5be8:	00000e93          	li	t4,0
    5bec:	02300e13          	li	t3,35
    5bf0:	39d19a63          	bne	gp,t4,5f84 <fail>

00005bf4 <test_8>:
    5bf4:	00d000b7          	lui	ra,0xd00
    5bf8:	00b00137          	lui	sp,0xb00
    5bfc:	0220b0b3          	mulhu	ra,ra,sp
    5c00:	00009eb7          	lui	t4,0x9
    5c04:	f00e8e93          	addi	t4,t4,-256 # 8f00 <test_5+0x8>
    5c08:	00800e13          	li	t3,8
    5c0c:	37d09c63          	bne	ra,t4,5f84 <fail>

00005c10 <test_9>:
    5c10:	00e000b7          	lui	ra,0xe00
    5c14:	00b00137          	lui	sp,0xb00
    5c18:	0220b133          	mulhu	sp,ra,sp
    5c1c:	0000aeb7          	lui	t4,0xa
    5c20:	a00e8e93          	addi	t4,t4,-1536 # 9a00 <test_19+0x24>
    5c24:	00900e13          	li	t3,9
    5c28:	35d11e63          	bne	sp,t4,5f84 <fail>

00005c2c <test_10>:
    5c2c:	00d000b7          	lui	ra,0xd00
    5c30:	0210b0b3          	mulhu	ra,ra,ra
    5c34:	0000beb7          	lui	t4,0xb
    5c38:	900e8e93          	addi	t4,t4,-1792 # a900 <test_11+0x4>
    5c3c:	00a00e13          	li	t3,10
    5c40:	35d09263          	bne	ra,t4,5f84 <fail>

00005c44 <test_11>:
    5c44:	00000213          	li	tp,0
    5c48:	00d000b7          	lui	ra,0xd00
    5c4c:	00b00137          	lui	sp,0xb00
    5c50:	0220b1b3          	mulhu	gp,ra,sp
    5c54:	00018313          	mv	t1,gp
    5c58:	00120213          	addi	tp,tp,1 # 1 <reset_vec+0x1>
    5c5c:	00200293          	li	t0,2
    5c60:	fe5214e3          	bne	tp,t0,5c48 <test_11+0x4>
    5c64:	00009eb7          	lui	t4,0x9
    5c68:	f00e8e93          	addi	t4,t4,-256 # 8f00 <test_5+0x8>
    5c6c:	00b00e13          	li	t3,11
    5c70:	31d31a63          	bne	t1,t4,5f84 <fail>

00005c74 <test_12>:
    5c74:	00000213          	li	tp,0
    5c78:	00e000b7          	lui	ra,0xe00
    5c7c:	00b00137          	lui	sp,0xb00
    5c80:	0220b1b3          	mulhu	gp,ra,sp
    5c84:	00000013          	nop
    5c88:	00018313          	mv	t1,gp
    5c8c:	00120213          	addi	tp,tp,1 # 1 <reset_vec+0x1>
    5c90:	00200293          	li	t0,2
    5c94:	fe5212e3          	bne	tp,t0,5c78 <test_12+0x4>
    5c98:	0000aeb7          	lui	t4,0xa
    5c9c:	a00e8e93          	addi	t4,t4,-1536 # 9a00 <test_19+0x24>
    5ca0:	00c00e13          	li	t3,12
    5ca4:	2fd31063          	bne	t1,t4,5f84 <fail>

00005ca8 <test_13>:
    5ca8:	00000213          	li	tp,0
    5cac:	00f000b7          	lui	ra,0xf00
    5cb0:	00b00137          	lui	sp,0xb00
    5cb4:	0220b1b3          	mulhu	gp,ra,sp
    5cb8:	00000013          	nop
    5cbc:	00000013          	nop
    5cc0:	00018313          	mv	t1,gp
    5cc4:	00120213          	addi	tp,tp,1 # 1 <reset_vec+0x1>
    5cc8:	00200293          	li	t0,2
    5ccc:	fe5210e3          	bne	tp,t0,5cac <test_13+0x4>
    5cd0:	0000aeb7          	lui	t4,0xa
    5cd4:	500e8e93          	addi	t4,t4,1280 # a500 <test_16+0x18>
    5cd8:	00d00e13          	li	t3,13
    5cdc:	2bd31463          	bne	t1,t4,5f84 <fail>

00005ce0 <test_14>:
    5ce0:	00000213          	li	tp,0
    5ce4:	00d000b7          	lui	ra,0xd00
    5ce8:	00b00137          	lui	sp,0xb00
    5cec:	0220b1b3          	mulhu	gp,ra,sp
    5cf0:	00120213          	addi	tp,tp,1 # 1 <reset_vec+0x1>
    5cf4:	00200293          	li	t0,2
    5cf8:	fe5216e3          	bne	tp,t0,5ce4 <test_14+0x4>
    5cfc:	00009eb7          	lui	t4,0x9
    5d00:	f00e8e93          	addi	t4,t4,-256 # 8f00 <test_5+0x8>
    5d04:	00e00e13          	li	t3,14
    5d08:	27d19e63          	bne	gp,t4,5f84 <fail>

00005d0c <test_15>:
    5d0c:	00000213          	li	tp,0
    5d10:	00e000b7          	lui	ra,0xe00
    5d14:	00b00137          	lui	sp,0xb00
    5d18:	00000013          	nop
    5d1c:	0220b1b3          	mulhu	gp,ra,sp
    5d20:	00120213          	addi	tp,tp,1 # 1 <reset_vec+0x1>
    5d24:	00200293          	li	t0,2
    5d28:	fe5214e3          	bne	tp,t0,5d10 <test_15+0x4>
    5d2c:	0000aeb7          	lui	t4,0xa
    5d30:	a00e8e93          	addi	t4,t4,-1536 # 9a00 <test_19+0x24>
    5d34:	00f00e13          	li	t3,15
    5d38:	25d19663          	bne	gp,t4,5f84 <fail>

00005d3c <test_16>:
    5d3c:	00000213          	li	tp,0
    5d40:	00f000b7          	lui	ra,0xf00
    5d44:	00b00137          	lui	sp,0xb00
    5d48:	00000013          	nop
    5d4c:	00000013          	nop
    5d50:	0220b1b3          	mulhu	gp,ra,sp
    5d54:	00120213          	addi	tp,tp,1 # 1 <reset_vec+0x1>
    5d58:	00200293          	li	t0,2
    5d5c:	fe5212e3          	bne	tp,t0,5d40 <test_16+0x4>
    5d60:	0000aeb7          	lui	t4,0xa
    5d64:	500e8e93          	addi	t4,t4,1280 # a500 <test_16+0x18>
    5d68:	01000e13          	li	t3,16
    5d6c:	21d19c63          	bne	gp,t4,5f84 <fail>

00005d70 <test_17>:
    5d70:	00000213          	li	tp,0
    5d74:	00d000b7          	lui	ra,0xd00
    5d78:	00000013          	nop
    5d7c:	00b00137          	lui	sp,0xb00
    5d80:	0220b1b3          	mulhu	gp,ra,sp
    5d84:	00120213          	addi	tp,tp,1 # 1 <reset_vec+0x1>
    5d88:	00200293          	li	t0,2
    5d8c:	fe5214e3          	bne	tp,t0,5d74 <test_17+0x4>
    5d90:	00009eb7          	lui	t4,0x9
    5d94:	f00e8e93          	addi	t4,t4,-256 # 8f00 <test_5+0x8>
    5d98:	01100e13          	li	t3,17
    5d9c:	1fd19463          	bne	gp,t4,5f84 <fail>

00005da0 <test_18>:
    5da0:	00000213          	li	tp,0
    5da4:	00e000b7          	lui	ra,0xe00
    5da8:	00000013          	nop
    5dac:	00b00137          	lui	sp,0xb00
    5db0:	00000013          	nop
    5db4:	0220b1b3          	mulhu	gp,ra,sp
    5db8:	00120213          	addi	tp,tp,1 # 1 <reset_vec+0x1>
    5dbc:	00200293          	li	t0,2
    5dc0:	fe5212e3          	bne	tp,t0,5da4 <test_18+0x4>
    5dc4:	0000aeb7          	lui	t4,0xa
    5dc8:	a00e8e93          	addi	t4,t4,-1536 # 9a00 <test_19+0x24>
    5dcc:	01200e13          	li	t3,18
    5dd0:	1bd19a63          	bne	gp,t4,5f84 <fail>

00005dd4 <test_19>:
    5dd4:	00000213          	li	tp,0
    5dd8:	00f000b7          	lui	ra,0xf00
    5ddc:	00000013          	nop
    5de0:	00000013          	nop
    5de4:	00b00137          	lui	sp,0xb00
    5de8:	0220b1b3          	mulhu	gp,ra,sp
    5dec:	00120213          	addi	tp,tp,1 # 1 <reset_vec+0x1>
    5df0:	00200293          	li	t0,2
    5df4:	fe5212e3          	bne	tp,t0,5dd8 <test_19+0x4>
    5df8:	0000aeb7          	lui	t4,0xa
    5dfc:	500e8e93          	addi	t4,t4,1280 # a500 <test_16+0x18>
    5e00:	01300e13          	li	t3,19
    5e04:	19d19063          	bne	gp,t4,5f84 <fail>

00005e08 <test_20>:
    5e08:	00000213          	li	tp,0
    5e0c:	00b00137          	lui	sp,0xb00
    5e10:	00d000b7          	lui	ra,0xd00
    5e14:	0220b1b3          	mulhu	gp,ra,sp
    5e18:	00120213          	addi	tp,tp,1 # 1 <reset_vec+0x1>
    5e1c:	00200293          	li	t0,2
    5e20:	fe5216e3          	bne	tp,t0,5e0c <test_20+0x4>
    5e24:	00009eb7          	lui	t4,0x9
    5e28:	f00e8e93          	addi	t4,t4,-256 # 8f00 <test_5+0x8>
    5e2c:	01400e13          	li	t3,20
    5e30:	15d19a63          	bne	gp,t4,5f84 <fail>

00005e34 <test_21>:
    5e34:	00000213          	li	tp,0
    5e38:	00b00137          	lui	sp,0xb00
    5e3c:	00e000b7          	lui	ra,0xe00
    5e40:	00000013          	nop
    5e44:	0220b1b3          	mulhu	gp,ra,sp
    5e48:	00120213          	addi	tp,tp,1 # 1 <reset_vec+0x1>
    5e4c:	00200293          	li	t0,2
    5e50:	fe5214e3          	bne	tp,t0,5e38 <test_21+0x4>
    5e54:	0000aeb7          	lui	t4,0xa
    5e58:	a00e8e93          	addi	t4,t4,-1536 # 9a00 <test_19+0x24>
    5e5c:	01500e13          	li	t3,21
    5e60:	13d19263          	bne	gp,t4,5f84 <fail>

00005e64 <test_22>:
    5e64:	00000213          	li	tp,0
    5e68:	00b00137          	lui	sp,0xb00
    5e6c:	00f000b7          	lui	ra,0xf00
    5e70:	00000013          	nop
    5e74:	00000013          	nop
    5e78:	0220b1b3          	mulhu	gp,ra,sp
    5e7c:	00120213          	addi	tp,tp,1 # 1 <reset_vec+0x1>
    5e80:	00200293          	li	t0,2
    5e84:	fe5212e3          	bne	tp,t0,5e68 <test_22+0x4>
    5e88:	0000aeb7          	lui	t4,0xa
    5e8c:	500e8e93          	addi	t4,t4,1280 # a500 <test_16+0x18>
    5e90:	01600e13          	li	t3,22
    5e94:	0fd19863          	bne	gp,t4,5f84 <fail>

00005e98 <test_23>:
    5e98:	00000213          	li	tp,0
    5e9c:	00b00137          	lui	sp,0xb00
    5ea0:	00000013          	nop
    5ea4:	00d000b7          	lui	ra,0xd00
    5ea8:	0220b1b3          	mulhu	gp,ra,sp
    5eac:	00120213          	addi	tp,tp,1 # 1 <reset_vec+0x1>
    5eb0:	00200293          	li	t0,2
    5eb4:	fe5214e3          	bne	tp,t0,5e9c <test_23+0x4>
    5eb8:	00009eb7          	lui	t4,0x9
    5ebc:	f00e8e93          	addi	t4,t4,-256 # 8f00 <test_5+0x8>
    5ec0:	01700e13          	li	t3,23
    5ec4:	0dd19063          	bne	gp,t4,5f84 <fail>

00005ec8 <test_24>:
    5ec8:	00000213          	li	tp,0
    5ecc:	00b00137          	lui	sp,0xb00
    5ed0:	00000013          	nop
    5ed4:	00e000b7          	lui	ra,0xe00
    5ed8:	00000013          	nop
    5edc:	0220b1b3          	mulhu	gp,ra,sp
    5ee0:	00120213          	addi	tp,tp,1 # 1 <reset_vec+0x1>
    5ee4:	00200293          	li	t0,2
    5ee8:	fe5212e3          	bne	tp,t0,5ecc <test_24+0x4>
    5eec:	0000aeb7          	lui	t4,0xa
    5ef0:	a00e8e93          	addi	t4,t4,-1536 # 9a00 <test_19+0x24>
    5ef4:	01800e13          	li	t3,24
    5ef8:	09d19663          	bne	gp,t4,5f84 <fail>

00005efc <test_25>:
    5efc:	00000213          	li	tp,0
    5f00:	00b00137          	lui	sp,0xb00
    5f04:	00000013          	nop
    5f08:	00000013          	nop
    5f0c:	00f000b7          	lui	ra,0xf00
    5f10:	0220b1b3          	mulhu	gp,ra,sp
    5f14:	00120213          	addi	tp,tp,1 # 1 <reset_vec+0x1>
    5f18:	00200293          	li	t0,2
    5f1c:	fe5212e3          	bne	tp,t0,5f00 <test_25+0x4>
    5f20:	0000aeb7          	lui	t4,0xa
    5f24:	500e8e93          	addi	t4,t4,1280 # a500 <test_16+0x18>
    5f28:	01900e13          	li	t3,25
    5f2c:	05d19c63          	bne	gp,t4,5f84 <fail>

00005f30 <test_26>:
    5f30:	7c0000b7          	lui	ra,0x7c000
    5f34:	02103133          	mulhu	sp,zero,ra
    5f38:	00000e93          	li	t4,0
    5f3c:	01a00e13          	li	t3,26
    5f40:	05d11263          	bne	sp,t4,5f84 <fail>

00005f44 <test_27>:
    5f44:	800000b7          	lui	ra,0x80000
    5f48:	0200b133          	mulhu	sp,ra,zero
    5f4c:	00000e93          	li	t4,0
    5f50:	01b00e13          	li	t3,27
    5f54:	03d11863          	bne	sp,t4,5f84 <fail>

00005f58 <test_28>:
    5f58:	020030b3          	mulhu	ra,zero,zero
    5f5c:	00000e93          	li	t4,0
    5f60:	01c00e13          	li	t3,28
    5f64:	03d09063          	bne	ra,t4,5f84 <fail>

00005f68 <test_29>:
    5f68:	021000b7          	lui	ra,0x2100
    5f6c:	02200137          	lui	sp,0x2200
    5f70:	0220b033          	mulhu	zero,ra,sp
    5f74:	00000e93          	li	t4,0
    5f78:	01d00e13          	li	t3,29
    5f7c:	01d01463          	bne	zero,t4,5f84 <fail>
    5f80:	03c01a63          	bne	zero,t3,5fb4 <pass>

00005f84 <fail>:
    5f84:	10000537          	lui	a0,0x10000
    5f88:	04500593          	li	a1,69
    5f8c:	05200613          	li	a2,82
    5f90:	04f00693          	li	a3,79
    5f94:	00a00713          	li	a4,10
    5f98:	00b52023          	sw	a1,0(a0) # 10000000 <end+0xfff3f28>
    5f9c:	00c52023          	sw	a2,0(a0)
    5fa0:	00c52023          	sw	a2,0(a0)
    5fa4:	00d52023          	sw	a3,0(a0)
    5fa8:	00c52023          	sw	a2,0(a0)
    5fac:	00e52023          	sw	a4,0(a0)
    5fb0:	00100073          	ebreak

00005fb4 <pass>:
    5fb4:	10000537          	lui	a0,0x10000
    5fb8:	04f00593          	li	a1,79
    5fbc:	04b00613          	li	a2,75
    5fc0:	00a00693          	li	a3,10
    5fc4:	00b52023          	sw	a1,0(a0) # 10000000 <end+0xfff3f28>
    5fc8:	00c52023          	sw	a2,0(a0)
    5fcc:	00d52023          	sw	a3,0(a0)
    5fd0:	e68fa06f          	j	638 <mulhu_ret>

00005fd4 <or>:
    5fd4:	00006537          	lui	a0,0x6
    5fd8:	ff450513          	addi	a0,a0,-12 # 5ff4 <.test_name>
    5fdc:	10000637          	lui	a2,0x10000

00005fe0 <.prname_next>:
    5fe0:	00050583          	lb	a1,0(a0)
    5fe4:	00058a63          	beqz	a1,5ff8 <.prname_done>
    5fe8:	00b62023          	sw	a1,0(a2) # 10000000 <end+0xfff3f28>
    5fec:	00150513          	addi	a0,a0,1
    5ff0:	ff1ff06f          	j	5fe0 <.prname_next>

00005ff4 <.test_name>:
    5ff4:	0000726f          	jal	tp,cff4 <end+0xf1c>

00005ff8 <.prname_done>:
    5ff8:	02e00593          	li	a1,46
    5ffc:	00b62023          	sw	a1,0(a2)
    6000:	00b62023          	sw	a1,0(a2)

00006004 <test_2>:
    6004:	ff0100b7          	lui	ra,0xff010
    6008:	f0008093          	addi	ra,ra,-256 # ff00ff00 <end+0xff003e28>
    600c:	0f0f1137          	lui	sp,0xf0f1
    6010:	f0f10113          	addi	sp,sp,-241 # f0f0f0f <end+0xf0e4e37>
    6014:	0020e1b3          	or	gp,ra,sp
    6018:	ff100eb7          	lui	t4,0xff100
    601c:	f0fe8e93          	addi	t4,t4,-241 # ff0fff0f <end+0xff0f3e37>
    6020:	00200e13          	li	t3,2
    6024:	4bd19263          	bne	gp,t4,64c8 <fail>

00006028 <test_3>:
    6028:	0ff010b7          	lui	ra,0xff01
    602c:	ff008093          	addi	ra,ra,-16 # ff00ff0 <end+0xfef4f18>
    6030:	f0f0f137          	lui	sp,0xf0f0f
    6034:	0f010113          	addi	sp,sp,240 # f0f0f0f0 <end+0xf0f03018>
    6038:	0020e1b3          	or	gp,ra,sp
    603c:	fff10eb7          	lui	t4,0xfff10
    6040:	ff0e8e93          	addi	t4,t4,-16 # fff0fff0 <end+0xfff03f18>
    6044:	00300e13          	li	t3,3
    6048:	49d19063          	bne	gp,t4,64c8 <fail>

0000604c <test_4>:
    604c:	00ff00b7          	lui	ra,0xff0
    6050:	0ff08093          	addi	ra,ra,255 # ff00ff <end+0xfe4027>
    6054:	0f0f1137          	lui	sp,0xf0f1
    6058:	f0f10113          	addi	sp,sp,-241 # f0f0f0f <end+0xf0e4e37>
    605c:	0020e1b3          	or	gp,ra,sp
    6060:	0fff1eb7          	lui	t4,0xfff1
    6064:	fffe8e93          	addi	t4,t4,-1 # fff0fff <end+0xffe4f27>
    6068:	00400e13          	li	t3,4
    606c:	45d19e63          	bne	gp,t4,64c8 <fail>

00006070 <test_5>:
    6070:	f00ff0b7          	lui	ra,0xf00ff
    6074:	00f08093          	addi	ra,ra,15 # f00ff00f <end+0xf00f2f37>
    6078:	f0f0f137          	lui	sp,0xf0f0f
    607c:	0f010113          	addi	sp,sp,240 # f0f0f0f0 <end+0xf0f03018>
    6080:	0020e1b3          	or	gp,ra,sp
    6084:	f0fffeb7          	lui	t4,0xf0fff
    6088:	0ffe8e93          	addi	t4,t4,255 # f0fff0ff <end+0xf0ff3027>
    608c:	00500e13          	li	t3,5
    6090:	43d19c63          	bne	gp,t4,64c8 <fail>

00006094 <test_6>:
    6094:	ff0100b7          	lui	ra,0xff010
    6098:	f0008093          	addi	ra,ra,-256 # ff00ff00 <end+0xff003e28>
    609c:	0f0f1137          	lui	sp,0xf0f1
    60a0:	f0f10113          	addi	sp,sp,-241 # f0f0f0f <end+0xf0e4e37>
    60a4:	0020e0b3          	or	ra,ra,sp
    60a8:	ff100eb7          	lui	t4,0xff100
    60ac:	f0fe8e93          	addi	t4,t4,-241 # ff0fff0f <end+0xff0f3e37>
    60b0:	00600e13          	li	t3,6
    60b4:	41d09a63          	bne	ra,t4,64c8 <fail>

000060b8 <test_7>:
    60b8:	ff0100b7          	lui	ra,0xff010
    60bc:	f0008093          	addi	ra,ra,-256 # ff00ff00 <end+0xff003e28>
    60c0:	0f0f1137          	lui	sp,0xf0f1
    60c4:	f0f10113          	addi	sp,sp,-241 # f0f0f0f <end+0xf0e4e37>
    60c8:	0020e133          	or	sp,ra,sp
    60cc:	ff100eb7          	lui	t4,0xff100
    60d0:	f0fe8e93          	addi	t4,t4,-241 # ff0fff0f <end+0xff0f3e37>
    60d4:	00700e13          	li	t3,7
    60d8:	3fd11863          	bne	sp,t4,64c8 <fail>

000060dc <test_8>:
    60dc:	ff0100b7          	lui	ra,0xff010
    60e0:	f0008093          	addi	ra,ra,-256 # ff00ff00 <end+0xff003e28>
    60e4:	0010e0b3          	or	ra,ra,ra
    60e8:	ff010eb7          	lui	t4,0xff010
    60ec:	f00e8e93          	addi	t4,t4,-256 # ff00ff00 <end+0xff003e28>
    60f0:	00800e13          	li	t3,8
    60f4:	3dd09a63          	bne	ra,t4,64c8 <fail>

000060f8 <test_9>:
    60f8:	00000213          	li	tp,0
    60fc:	ff0100b7          	lui	ra,0xff010
    6100:	f0008093          	addi	ra,ra,-256 # ff00ff00 <end+0xff003e28>
    6104:	0f0f1137          	lui	sp,0xf0f1
    6108:	f0f10113          	addi	sp,sp,-241 # f0f0f0f <end+0xf0e4e37>
    610c:	0020e1b3          	or	gp,ra,sp
    6110:	00018313          	mv	t1,gp
    6114:	00120213          	addi	tp,tp,1 # 1 <reset_vec+0x1>
    6118:	00200293          	li	t0,2
    611c:	fe5210e3          	bne	tp,t0,60fc <test_9+0x4>
    6120:	ff100eb7          	lui	t4,0xff100
    6124:	f0fe8e93          	addi	t4,t4,-241 # ff0fff0f <end+0xff0f3e37>
    6128:	00900e13          	li	t3,9
    612c:	39d31e63          	bne	t1,t4,64c8 <fail>

00006130 <test_10>:
    6130:	00000213          	li	tp,0
    6134:	0ff010b7          	lui	ra,0xff01
    6138:	ff008093          	addi	ra,ra,-16 # ff00ff0 <end+0xfef4f18>
    613c:	f0f0f137          	lui	sp,0xf0f0f
    6140:	0f010113          	addi	sp,sp,240 # f0f0f0f0 <end+0xf0f03018>
    6144:	0020e1b3          	or	gp,ra,sp
    6148:	00000013          	nop
    614c:	00018313          	mv	t1,gp
    6150:	00120213          	addi	tp,tp,1 # 1 <reset_vec+0x1>
    6154:	00200293          	li	t0,2
    6158:	fc521ee3          	bne	tp,t0,6134 <test_10+0x4>
    615c:	fff10eb7          	lui	t4,0xfff10
    6160:	ff0e8e93          	addi	t4,t4,-16 # fff0fff0 <end+0xfff03f18>
    6164:	00a00e13          	li	t3,10
    6168:	37d31063          	bne	t1,t4,64c8 <fail>

0000616c <test_11>:
    616c:	00000213          	li	tp,0
    6170:	00ff00b7          	lui	ra,0xff0
    6174:	0ff08093          	addi	ra,ra,255 # ff00ff <end+0xfe4027>
    6178:	0f0f1137          	lui	sp,0xf0f1
    617c:	f0f10113          	addi	sp,sp,-241 # f0f0f0f <end+0xf0e4e37>
    6180:	0020e1b3          	or	gp,ra,sp
    6184:	00000013          	nop
    6188:	00000013          	nop
    618c:	00018313          	mv	t1,gp
    6190:	00120213          	addi	tp,tp,1 # 1 <reset_vec+0x1>
    6194:	00200293          	li	t0,2
    6198:	fc521ce3          	bne	tp,t0,6170 <test_11+0x4>
    619c:	0fff1eb7          	lui	t4,0xfff1
    61a0:	fffe8e93          	addi	t4,t4,-1 # fff0fff <end+0xffe4f27>
    61a4:	00b00e13          	li	t3,11
    61a8:	33d31063          	bne	t1,t4,64c8 <fail>

000061ac <test_12>:
    61ac:	00000213          	li	tp,0
    61b0:	ff0100b7          	lui	ra,0xff010
    61b4:	f0008093          	addi	ra,ra,-256 # ff00ff00 <end+0xff003e28>
    61b8:	0f0f1137          	lui	sp,0xf0f1
    61bc:	f0f10113          	addi	sp,sp,-241 # f0f0f0f <end+0xf0e4e37>
    61c0:	0020e1b3          	or	gp,ra,sp
    61c4:	00120213          	addi	tp,tp,1 # 1 <reset_vec+0x1>
    61c8:	00200293          	li	t0,2
    61cc:	fe5212e3          	bne	tp,t0,61b0 <test_12+0x4>
    61d0:	ff100eb7          	lui	t4,0xff100
    61d4:	f0fe8e93          	addi	t4,t4,-241 # ff0fff0f <end+0xff0f3e37>
    61d8:	00c00e13          	li	t3,12
    61dc:	2fd19663          	bne	gp,t4,64c8 <fail>

000061e0 <test_13>:
    61e0:	00000213          	li	tp,0
    61e4:	0ff010b7          	lui	ra,0xff01
    61e8:	ff008093          	addi	ra,ra,-16 # ff00ff0 <end+0xfef4f18>
    61ec:	f0f0f137          	lui	sp,0xf0f0f
    61f0:	0f010113          	addi	sp,sp,240 # f0f0f0f0 <end+0xf0f03018>
    61f4:	00000013          	nop
    61f8:	0020e1b3          	or	gp,ra,sp
    61fc:	00120213          	addi	tp,tp,1 # 1 <reset_vec+0x1>
    6200:	00200293          	li	t0,2
    6204:	fe5210e3          	bne	tp,t0,61e4 <test_13+0x4>
    6208:	fff10eb7          	lui	t4,0xfff10
    620c:	ff0e8e93          	addi	t4,t4,-16 # fff0fff0 <end+0xfff03f18>
    6210:	00d00e13          	li	t3,13
    6214:	2bd19a63          	bne	gp,t4,64c8 <fail>

00006218 <test_14>:
    6218:	00000213          	li	tp,0
    621c:	00ff00b7          	lui	ra,0xff0
    6220:	0ff08093          	addi	ra,ra,255 # ff00ff <end+0xfe4027>
    6224:	0f0f1137          	lui	sp,0xf0f1
    6228:	f0f10113          	addi	sp,sp,-241 # f0f0f0f <end+0xf0e4e37>
    622c:	00000013          	nop
    6230:	00000013          	nop
    6234:	0020e1b3          	or	gp,ra,sp
    6238:	00120213          	addi	tp,tp,1 # 1 <reset_vec+0x1>
    623c:	00200293          	li	t0,2
    6240:	fc521ee3          	bne	tp,t0,621c <test_14+0x4>
    6244:	0fff1eb7          	lui	t4,0xfff1
    6248:	fffe8e93          	addi	t4,t4,-1 # fff0fff <end+0xffe4f27>
    624c:	00e00e13          	li	t3,14
    6250:	27d19c63          	bne	gp,t4,64c8 <fail>

00006254 <test_15>:
    6254:	00000213          	li	tp,0
    6258:	ff0100b7          	lui	ra,0xff010
    625c:	f0008093          	addi	ra,ra,-256 # ff00ff00 <end+0xff003e28>
    6260:	00000013          	nop
    6264:	0f0f1137          	lui	sp,0xf0f1
    6268:	f0f10113          	addi	sp,sp,-241 # f0f0f0f <end+0xf0e4e37>
    626c:	0020e1b3          	or	gp,ra,sp
    6270:	00120213          	addi	tp,tp,1 # 1 <reset_vec+0x1>
    6274:	00200293          	li	t0,2
    6278:	fe5210e3          	bne	tp,t0,6258 <test_15+0x4>
    627c:	ff100eb7          	lui	t4,0xff100
    6280:	f0fe8e93          	addi	t4,t4,-241 # ff0fff0f <end+0xff0f3e37>
    6284:	00f00e13          	li	t3,15
    6288:	25d19063          	bne	gp,t4,64c8 <fail>

0000628c <test_16>:
    628c:	00000213          	li	tp,0
    6290:	0ff010b7          	lui	ra,0xff01
    6294:	ff008093          	addi	ra,ra,-16 # ff00ff0 <end+0xfef4f18>
    6298:	00000013          	nop
    629c:	f0f0f137          	lui	sp,0xf0f0f
    62a0:	0f010113          	addi	sp,sp,240 # f0f0f0f0 <end+0xf0f03018>
    62a4:	00000013          	nop
    62a8:	0020e1b3          	or	gp,ra,sp
    62ac:	00120213          	addi	tp,tp,1 # 1 <reset_vec+0x1>
    62b0:	00200293          	li	t0,2
    62b4:	fc521ee3          	bne	tp,t0,6290 <test_16+0x4>
    62b8:	fff10eb7          	lui	t4,0xfff10
    62bc:	ff0e8e93          	addi	t4,t4,-16 # fff0fff0 <end+0xfff03f18>
    62c0:	01000e13          	li	t3,16
    62c4:	21d19263          	bne	gp,t4,64c8 <fail>

000062c8 <test_17>:
    62c8:	00000213          	li	tp,0
    62cc:	00ff00b7          	lui	ra,0xff0
    62d0:	0ff08093          	addi	ra,ra,255 # ff00ff <end+0xfe4027>
    62d4:	00000013          	nop
    62d8:	00000013          	nop
    62dc:	0f0f1137          	lui	sp,0xf0f1
    62e0:	f0f10113          	addi	sp,sp,-241 # f0f0f0f <end+0xf0e4e37>
    62e4:	0020e1b3          	or	gp,ra,sp
    62e8:	00120213          	addi	tp,tp,1 # 1 <reset_vec+0x1>
    62ec:	00200293          	li	t0,2
    62f0:	fc521ee3          	bne	tp,t0,62cc <test_17+0x4>
    62f4:	0fff1eb7          	lui	t4,0xfff1
    62f8:	fffe8e93          	addi	t4,t4,-1 # fff0fff <end+0xffe4f27>
    62fc:	01100e13          	li	t3,17
    6300:	1dd19463          	bne	gp,t4,64c8 <fail>

00006304 <test_18>:
    6304:	00000213          	li	tp,0
    6308:	0f0f1137          	lui	sp,0xf0f1
    630c:	f0f10113          	addi	sp,sp,-241 # f0f0f0f <end+0xf0e4e37>
    6310:	ff0100b7          	lui	ra,0xff010
    6314:	f0008093          	addi	ra,ra,-256 # ff00ff00 <end+0xff003e28>
    6318:	0020e1b3          	or	gp,ra,sp
    631c:	00120213          	addi	tp,tp,1 # 1 <reset_vec+0x1>
    6320:	00200293          	li	t0,2
    6324:	fe5212e3          	bne	tp,t0,6308 <test_18+0x4>
    6328:	ff100eb7          	lui	t4,0xff100
    632c:	f0fe8e93          	addi	t4,t4,-241 # ff0fff0f <end+0xff0f3e37>
    6330:	01200e13          	li	t3,18
    6334:	19d19a63          	bne	gp,t4,64c8 <fail>

00006338 <test_19>:
    6338:	00000213          	li	tp,0
    633c:	f0f0f137          	lui	sp,0xf0f0f
    6340:	0f010113          	addi	sp,sp,240 # f0f0f0f0 <end+0xf0f03018>
    6344:	0ff010b7          	lui	ra,0xff01
    6348:	ff008093          	addi	ra,ra,-16 # ff00ff0 <end+0xfef4f18>
    634c:	00000013          	nop
    6350:	0020e1b3          	or	gp,ra,sp
    6354:	00120213          	addi	tp,tp,1 # 1 <reset_vec+0x1>
    6358:	00200293          	li	t0,2
    635c:	fe5210e3          	bne	tp,t0,633c <test_19+0x4>
    6360:	fff10eb7          	lui	t4,0xfff10
    6364:	ff0e8e93          	addi	t4,t4,-16 # fff0fff0 <end+0xfff03f18>
    6368:	01300e13          	li	t3,19
    636c:	15d19e63          	bne	gp,t4,64c8 <fail>

00006370 <test_20>:
    6370:	00000213          	li	tp,0
    6374:	0f0f1137          	lui	sp,0xf0f1
    6378:	f0f10113          	addi	sp,sp,-241 # f0f0f0f <end+0xf0e4e37>
    637c:	00ff00b7          	lui	ra,0xff0
    6380:	0ff08093          	addi	ra,ra,255 # ff00ff <end+0xfe4027>
    6384:	00000013          	nop
    6388:	00000013          	nop
    638c:	0020e1b3          	or	gp,ra,sp
    6390:	00120213          	addi	tp,tp,1 # 1 <reset_vec+0x1>
    6394:	00200293          	li	t0,2
    6398:	fc521ee3          	bne	tp,t0,6374 <test_20+0x4>
    639c:	0fff1eb7          	lui	t4,0xfff1
    63a0:	fffe8e93          	addi	t4,t4,-1 # fff0fff <end+0xffe4f27>
    63a4:	01400e13          	li	t3,20
    63a8:	13d19063          	bne	gp,t4,64c8 <fail>

000063ac <test_21>:
    63ac:	00000213          	li	tp,0
    63b0:	0f0f1137          	lui	sp,0xf0f1
    63b4:	f0f10113          	addi	sp,sp,-241 # f0f0f0f <end+0xf0e4e37>
    63b8:	00000013          	nop
    63bc:	ff0100b7          	lui	ra,0xff010
    63c0:	f0008093          	addi	ra,ra,-256 # ff00ff00 <end+0xff003e28>
    63c4:	0020e1b3          	or	gp,ra,sp
    63c8:	00120213          	addi	tp,tp,1 # 1 <reset_vec+0x1>
    63cc:	00200293          	li	t0,2
    63d0:	fe5210e3          	bne	tp,t0,63b0 <test_21+0x4>
    63d4:	ff100eb7          	lui	t4,0xff100
    63d8:	f0fe8e93          	addi	t4,t4,-241 # ff0fff0f <end+0xff0f3e37>
    63dc:	01500e13          	li	t3,21
    63e0:	0fd19463          	bne	gp,t4,64c8 <fail>

000063e4 <test_22>:
    63e4:	00000213          	li	tp,0
    63e8:	f0f0f137          	lui	sp,0xf0f0f
    63ec:	0f010113          	addi	sp,sp,240 # f0f0f0f0 <end+0xf0f03018>
    63f0:	00000013          	nop
    63f4:	0ff010b7          	lui	ra,0xff01
    63f8:	ff008093          	addi	ra,ra,-16 # ff00ff0 <end+0xfef4f18>
    63fc:	00000013          	nop
    6400:	0020e1b3          	or	gp,ra,sp
    6404:	00120213          	addi	tp,tp,1 # 1 <reset_vec+0x1>
    6408:	00200293          	li	t0,2
    640c:	fc521ee3          	bne	tp,t0,63e8 <test_22+0x4>
    6410:	fff10eb7          	lui	t4,0xfff10
    6414:	ff0e8e93          	addi	t4,t4,-16 # fff0fff0 <end+0xfff03f18>
    6418:	01600e13          	li	t3,22
    641c:	0bd19663          	bne	gp,t4,64c8 <fail>

00006420 <test_23>:
    6420:	00000213          	li	tp,0
    6424:	0f0f1137          	lui	sp,0xf0f1
    6428:	f0f10113          	addi	sp,sp,-241 # f0f0f0f <end+0xf0e4e37>
    642c:	00000013          	nop
    6430:	00000013          	nop
    6434:	00ff00b7          	lui	ra,0xff0
    6438:	0ff08093          	addi	ra,ra,255 # ff00ff <end+0xfe4027>
    643c:	0020e1b3          	or	gp,ra,sp
    6440:	00120213          	addi	tp,tp,1 # 1 <reset_vec+0x1>
    6444:	00200293          	li	t0,2
    6448:	fc521ee3          	bne	tp,t0,6424 <test_23+0x4>
    644c:	0fff1eb7          	lui	t4,0xfff1
    6450:	fffe8e93          	addi	t4,t4,-1 # fff0fff <end+0xffe4f27>
    6454:	01700e13          	li	t3,23
    6458:	07d19863          	bne	gp,t4,64c8 <fail>

0000645c <test_24>:
    645c:	ff0100b7          	lui	ra,0xff010
    6460:	f0008093          	addi	ra,ra,-256 # ff00ff00 <end+0xff003e28>
    6464:	00106133          	or	sp,zero,ra
    6468:	ff010eb7          	lui	t4,0xff010
    646c:	f00e8e93          	addi	t4,t4,-256 # ff00ff00 <end+0xff003e28>
    6470:	01800e13          	li	t3,24
    6474:	05d11a63          	bne	sp,t4,64c8 <fail>

00006478 <test_25>:
    6478:	00ff00b7          	lui	ra,0xff0
    647c:	0ff08093          	addi	ra,ra,255 # ff00ff <end+0xfe4027>
    6480:	0000e133          	or	sp,ra,zero
    6484:	00ff0eb7          	lui	t4,0xff0
    6488:	0ffe8e93          	addi	t4,t4,255 # ff00ff <end+0xfe4027>
    648c:	01900e13          	li	t3,25
    6490:	03d11c63          	bne	sp,t4,64c8 <fail>

00006494 <test_26>:
    6494:	000060b3          	or	ra,zero,zero
    6498:	00000e93          	li	t4,0
    649c:	01a00e13          	li	t3,26
    64a0:	03d09463          	bne	ra,t4,64c8 <fail>

000064a4 <test_27>:
    64a4:	111110b7          	lui	ra,0x11111
    64a8:	11108093          	addi	ra,ra,273 # 11111111 <end+0x11105039>
    64ac:	22222137          	lui	sp,0x22222
    64b0:	22210113          	addi	sp,sp,546 # 22222222 <end+0x2221614a>
    64b4:	0020e033          	or	zero,ra,sp
    64b8:	00000e93          	li	t4,0
    64bc:	01b00e13          	li	t3,27
    64c0:	01d01463          	bne	zero,t4,64c8 <fail>
    64c4:	03c01a63          	bne	zero,t3,64f8 <pass>

000064c8 <fail>:
    64c8:	10000537          	lui	a0,0x10000
    64cc:	04500593          	li	a1,69
    64d0:	05200613          	li	a2,82
    64d4:	04f00693          	li	a3,79
    64d8:	00a00713          	li	a4,10
    64dc:	00b52023          	sw	a1,0(a0) # 10000000 <end+0xfff3f28>
    64e0:	00c52023          	sw	a2,0(a0)
    64e4:	00c52023          	sw	a2,0(a0)
    64e8:	00d52023          	sw	a3,0(a0)
    64ec:	00c52023          	sw	a2,0(a0)
    64f0:	00e52023          	sw	a4,0(a0)
    64f4:	00100073          	ebreak

000064f8 <pass>:
    64f8:	10000537          	lui	a0,0x10000
    64fc:	04f00593          	li	a1,79
    6500:	04b00613          	li	a2,75
    6504:	00a00693          	li	a3,10
    6508:	00b52023          	sw	a1,0(a0) # 10000000 <end+0xfff3f28>
    650c:	00c52023          	sw	a2,0(a0)
    6510:	00d52023          	sw	a3,0(a0)
    6514:	8f4fa06f          	j	608 <or_ret>

00006518 <ori>:
    6518:	00006537          	lui	a0,0x6
    651c:	53850513          	addi	a0,a0,1336 # 6538 <.test_name>
    6520:	10000637          	lui	a2,0x10000

00006524 <.prname_next>:
    6524:	00050583          	lb	a1,0(a0)
    6528:	00058a63          	beqz	a1,653c <.prname_done>
    652c:	00b62023          	sw	a1,0(a2) # 10000000 <end+0xfff3f28>
    6530:	00150513          	addi	a0,a0,1
    6534:	ff1ff06f          	j	6524 <.prname_next>

00006538 <.test_name>:
    6538:	0069726f          	jal	tp,9d53e <end+0x91466>

0000653c <.prname_done>:
    653c:	02e00593          	li	a1,46
    6540:	00b62023          	sw	a1,0(a2)
    6544:	00b62023          	sw	a1,0(a2)

00006548 <test_2>:
    6548:	ff0100b7          	lui	ra,0xff010
    654c:	f0008093          	addi	ra,ra,-256 # ff00ff00 <end+0xff003e28>
    6550:	f0f0e193          	ori	gp,ra,-241
    6554:	f0f00e93          	li	t4,-241
    6558:	00200e13          	li	t3,2
    655c:	1dd19463          	bne	gp,t4,6724 <fail>

00006560 <test_3>:
    6560:	0ff010b7          	lui	ra,0xff01
    6564:	ff008093          	addi	ra,ra,-16 # ff00ff0 <end+0xfef4f18>
    6568:	0f00e193          	ori	gp,ra,240
    656c:	0ff01eb7          	lui	t4,0xff01
    6570:	ff0e8e93          	addi	t4,t4,-16 # ff00ff0 <end+0xfef4f18>
    6574:	00300e13          	li	t3,3
    6578:	1bd19663          	bne	gp,t4,6724 <fail>

0000657c <test_4>:
    657c:	00ff00b7          	lui	ra,0xff0
    6580:	0ff08093          	addi	ra,ra,255 # ff00ff <end+0xfe4027>
    6584:	70f0e193          	ori	gp,ra,1807
    6588:	00ff0eb7          	lui	t4,0xff0
    658c:	7ffe8e93          	addi	t4,t4,2047 # ff07ff <end+0xfe4727>
    6590:	00400e13          	li	t3,4
    6594:	19d19863          	bne	gp,t4,6724 <fail>

00006598 <test_5>:
    6598:	f00ff0b7          	lui	ra,0xf00ff
    659c:	00f08093          	addi	ra,ra,15 # f00ff00f <end+0xf00f2f37>
    65a0:	0f00e193          	ori	gp,ra,240
    65a4:	f00ffeb7          	lui	t4,0xf00ff
    65a8:	0ffe8e93          	addi	t4,t4,255 # f00ff0ff <end+0xf00f3027>
    65ac:	00500e13          	li	t3,5
    65b0:	17d19a63          	bne	gp,t4,6724 <fail>

000065b4 <test_6>:
    65b4:	ff0100b7          	lui	ra,0xff010
    65b8:	f0008093          	addi	ra,ra,-256 # ff00ff00 <end+0xff003e28>
    65bc:	0f00e093          	ori	ra,ra,240
    65c0:	ff010eb7          	lui	t4,0xff010
    65c4:	ff0e8e93          	addi	t4,t4,-16 # ff00fff0 <end+0xff003f18>
    65c8:	00600e13          	li	t3,6
    65cc:	15d09c63          	bne	ra,t4,6724 <fail>

000065d0 <test_7>:
    65d0:	00000213          	li	tp,0
    65d4:	0ff010b7          	lui	ra,0xff01
    65d8:	ff008093          	addi	ra,ra,-16 # ff00ff0 <end+0xfef4f18>
    65dc:	0f00e193          	ori	gp,ra,240
    65e0:	00018313          	mv	t1,gp
    65e4:	00120213          	addi	tp,tp,1 # 1 <reset_vec+0x1>
    65e8:	00200293          	li	t0,2
    65ec:	fe5214e3          	bne	tp,t0,65d4 <test_7+0x4>
    65f0:	0ff01eb7          	lui	t4,0xff01
    65f4:	ff0e8e93          	addi	t4,t4,-16 # ff00ff0 <end+0xfef4f18>
    65f8:	00700e13          	li	t3,7
    65fc:	13d31463          	bne	t1,t4,6724 <fail>

00006600 <test_8>:
    6600:	00000213          	li	tp,0
    6604:	00ff00b7          	lui	ra,0xff0
    6608:	0ff08093          	addi	ra,ra,255 # ff00ff <end+0xfe4027>
    660c:	70f0e193          	ori	gp,ra,1807
    6610:	00000013          	nop
    6614:	00018313          	mv	t1,gp
    6618:	00120213          	addi	tp,tp,1 # 1 <reset_vec+0x1>
    661c:	00200293          	li	t0,2
    6620:	fe5212e3          	bne	tp,t0,6604 <test_8+0x4>
    6624:	00ff0eb7          	lui	t4,0xff0
    6628:	7ffe8e93          	addi	t4,t4,2047 # ff07ff <end+0xfe4727>
    662c:	00800e13          	li	t3,8
    6630:	0fd31a63          	bne	t1,t4,6724 <fail>

00006634 <test_9>:
    6634:	00000213          	li	tp,0
    6638:	f00ff0b7          	lui	ra,0xf00ff
    663c:	00f08093          	addi	ra,ra,15 # f00ff00f <end+0xf00f2f37>
    6640:	0f00e193          	ori	gp,ra,240
    6644:	00000013          	nop
    6648:	00000013          	nop
    664c:	00018313          	mv	t1,gp
    6650:	00120213          	addi	tp,tp,1 # 1 <reset_vec+0x1>
    6654:	00200293          	li	t0,2
    6658:	fe5210e3          	bne	tp,t0,6638 <test_9+0x4>
    665c:	f00ffeb7          	lui	t4,0xf00ff
    6660:	0ffe8e93          	addi	t4,t4,255 # f00ff0ff <end+0xf00f3027>
    6664:	00900e13          	li	t3,9
    6668:	0bd31e63          	bne	t1,t4,6724 <fail>

0000666c <test_10>:
    666c:	00000213          	li	tp,0
    6670:	0ff010b7          	lui	ra,0xff01
    6674:	ff008093          	addi	ra,ra,-16 # ff00ff0 <end+0xfef4f18>
    6678:	0f00e193          	ori	gp,ra,240
    667c:	00120213          	addi	tp,tp,1 # 1 <reset_vec+0x1>
    6680:	00200293          	li	t0,2
    6684:	fe5216e3          	bne	tp,t0,6670 <test_10+0x4>
    6688:	0ff01eb7          	lui	t4,0xff01
    668c:	ff0e8e93          	addi	t4,t4,-16 # ff00ff0 <end+0xfef4f18>
    6690:	00a00e13          	li	t3,10
    6694:	09d19863          	bne	gp,t4,6724 <fail>

00006698 <test_11>:
    6698:	00000213          	li	tp,0
    669c:	00ff00b7          	lui	ra,0xff0
    66a0:	0ff08093          	addi	ra,ra,255 # ff00ff <end+0xfe4027>
    66a4:	00000013          	nop
    66a8:	f0f0e193          	ori	gp,ra,-241
    66ac:	00120213          	addi	tp,tp,1 # 1 <reset_vec+0x1>
    66b0:	00200293          	li	t0,2
    66b4:	fe5214e3          	bne	tp,t0,669c <test_11+0x4>
    66b8:	fff00e93          	li	t4,-1
    66bc:	00b00e13          	li	t3,11
    66c0:	07d19263          	bne	gp,t4,6724 <fail>

000066c4 <test_12>:
    66c4:	00000213          	li	tp,0
    66c8:	f00ff0b7          	lui	ra,0xf00ff
    66cc:	00f08093          	addi	ra,ra,15 # f00ff00f <end+0xf00f2f37>
    66d0:	00000013          	nop
    66d4:	00000013          	nop
    66d8:	0f00e193          	ori	gp,ra,240
    66dc:	00120213          	addi	tp,tp,1 # 1 <reset_vec+0x1>
    66e0:	00200293          	li	t0,2
    66e4:	fe5212e3          	bne	tp,t0,66c8 <test_12+0x4>
    66e8:	f00ffeb7          	lui	t4,0xf00ff
    66ec:	0ffe8e93          	addi	t4,t4,255 # f00ff0ff <end+0xf00f3027>
    66f0:	00c00e13          	li	t3,12
    66f4:	03d19863          	bne	gp,t4,6724 <fail>

000066f8 <test_13>:
    66f8:	0f006093          	ori	ra,zero,240
    66fc:	0f000e93          	li	t4,240
    6700:	00d00e13          	li	t3,13
    6704:	03d09063          	bne	ra,t4,6724 <fail>

00006708 <test_14>:
    6708:	00ff00b7          	lui	ra,0xff0
    670c:	0ff08093          	addi	ra,ra,255 # ff00ff <end+0xfe4027>
    6710:	70f0e013          	ori	zero,ra,1807
    6714:	00000e93          	li	t4,0
    6718:	00e00e13          	li	t3,14
    671c:	01d01463          	bne	zero,t4,6724 <fail>
    6720:	03c01a63          	bne	zero,t3,6754 <pass>

00006724 <fail>:
    6724:	10000537          	lui	a0,0x10000
    6728:	04500593          	li	a1,69
    672c:	05200613          	li	a2,82
    6730:	04f00693          	li	a3,79
    6734:	00a00713          	li	a4,10
    6738:	00b52023          	sw	a1,0(a0) # 10000000 <end+0xfff3f28>
    673c:	00c52023          	sw	a2,0(a0)
    6740:	00c52023          	sw	a2,0(a0)
    6744:	00d52023          	sw	a3,0(a0)
    6748:	00c52023          	sw	a2,0(a0)
    674c:	00e52023          	sw	a4,0(a0)
    6750:	00100073          	ebreak

00006754 <pass>:
    6754:	10000537          	lui	a0,0x10000
    6758:	04f00593          	li	a1,79
    675c:	04b00613          	li	a2,75
    6760:	00a00693          	li	a3,10
    6764:	00b52023          	sw	a1,0(a0) # 10000000 <end+0xfff3f28>
    6768:	00c52023          	sw	a2,0(a0)
    676c:	00d52023          	sw	a3,0(a0)
    6770:	e09f906f          	j	578 <ori_ret>

00006774 <rem>:
    6774:	00006537          	lui	a0,0x6
    6778:	79450513          	addi	a0,a0,1940 # 6794 <.test_name>
    677c:	10000637          	lui	a2,0x10000

00006780 <.prname_next>:
    6780:	00050583          	lb	a1,0(a0)
    6784:	00058a63          	beqz	a1,6798 <.prname_done>
    6788:	00b62023          	sw	a1,0(a2) # 10000000 <end+0xfff3f28>
    678c:	00150513          	addi	a0,a0,1
    6790:	ff1ff06f          	j	6780 <.prname_next>

00006794 <.test_name>:
    6794:	6572                	flw	fa0,28(sp)
    6796:	006d                	c.nop	27

00006798 <.prname_done>:
    6798:	02e00593          	li	a1,46
    679c:	00b62023          	sw	a1,0(a2)
    67a0:	00b62023          	sw	a1,0(a2)

000067a4 <test_2>:
    67a4:	01400093          	li	ra,20
    67a8:	00600113          	li	sp,6
    67ac:	0220e1b3          	rem	gp,ra,sp
    67b0:	00200e93          	li	t4,2
    67b4:	00200e13          	li	t3,2
    67b8:	0dd19463          	bne	gp,t4,6880 <fail>

000067bc <test_3>:
    67bc:	fec00093          	li	ra,-20
    67c0:	00600113          	li	sp,6
    67c4:	0220e1b3          	rem	gp,ra,sp
    67c8:	ffe00e93          	li	t4,-2
    67cc:	00300e13          	li	t3,3
    67d0:	0bd19863          	bne	gp,t4,6880 <fail>

000067d4 <test_4>:
    67d4:	01400093          	li	ra,20
    67d8:	ffa00113          	li	sp,-6
    67dc:	0220e1b3          	rem	gp,ra,sp
    67e0:	00200e93          	li	t4,2
    67e4:	00400e13          	li	t3,4
    67e8:	09d19c63          	bne	gp,t4,6880 <fail>

000067ec <test_5>:
    67ec:	fec00093          	li	ra,-20
    67f0:	ffa00113          	li	sp,-6
    67f4:	0220e1b3          	rem	gp,ra,sp
    67f8:	ffe00e93          	li	t4,-2
    67fc:	00500e13          	li	t3,5
    6800:	09d19063          	bne	gp,t4,6880 <fail>

00006804 <test_6>:
    6804:	800000b7          	lui	ra,0x80000
    6808:	00100113          	li	sp,1
    680c:	0220e1b3          	rem	gp,ra,sp
    6810:	00000e93          	li	t4,0
    6814:	00600e13          	li	t3,6
    6818:	07d19463          	bne	gp,t4,6880 <fail>

0000681c <test_7>:
    681c:	800000b7          	lui	ra,0x80000
    6820:	fff00113          	li	sp,-1
    6824:	0220e1b3          	rem	gp,ra,sp
    6828:	00000e93          	li	t4,0
    682c:	00700e13          	li	t3,7
    6830:	05d19863          	bne	gp,t4,6880 <fail>

00006834 <test_8>:
    6834:	800000b7          	lui	ra,0x80000
    6838:	00000113          	li	sp,0
    683c:	0220e1b3          	rem	gp,ra,sp
    6840:	80000eb7          	lui	t4,0x80000
    6844:	00800e13          	li	t3,8
    6848:	03d19c63          	bne	gp,t4,6880 <fail>

0000684c <test_9>:
    684c:	00100093          	li	ra,1
    6850:	00000113          	li	sp,0
    6854:	0220e1b3          	rem	gp,ra,sp
    6858:	00100e93          	li	t4,1
    685c:	00900e13          	li	t3,9
    6860:	03d19063          	bne	gp,t4,6880 <fail>

00006864 <test_10>:
    6864:	00000093          	li	ra,0
    6868:	00000113          	li	sp,0
    686c:	0220e1b3          	rem	gp,ra,sp
    6870:	00000e93          	li	t4,0
    6874:	00a00e13          	li	t3,10
    6878:	01d19463          	bne	gp,t4,6880 <fail>
    687c:	03c01a63          	bne	zero,t3,68b0 <pass>

00006880 <fail>:
    6880:	10000537          	lui	a0,0x10000
    6884:	04500593          	li	a1,69
    6888:	05200613          	li	a2,82
    688c:	04f00693          	li	a3,79
    6890:	00a00713          	li	a4,10
    6894:	00b52023          	sw	a1,0(a0) # 10000000 <end+0xfff3f28>
    6898:	00c52023          	sw	a2,0(a0)
    689c:	00c52023          	sw	a2,0(a0)
    68a0:	00d52023          	sw	a3,0(a0)
    68a4:	00c52023          	sw	a2,0(a0)
    68a8:	00e52023          	sw	a4,0(a0)
    68ac:	00100073          	ebreak

000068b0 <pass>:
    68b0:	10000537          	lui	a0,0x10000
    68b4:	04f00593          	li	a1,79
    68b8:	04b00613          	li	a2,75
    68bc:	00a00693          	li	a3,10
    68c0:	00b52023          	sw	a1,0(a0) # 10000000 <end+0xfff3f28>
    68c4:	00c52023          	sw	a2,0(a0)
    68c8:	00d52023          	sw	a3,0(a0)
    68cc:	d9df906f          	j	668 <rem_ret>

000068d0 <remu>:
    68d0:	00007537          	lui	a0,0x7
    68d4:	8f050513          	addi	a0,a0,-1808 # 68f0 <.test_name>
    68d8:	10000637          	lui	a2,0x10000

000068dc <.prname_next>:
    68dc:	00050583          	lb	a1,0(a0)
    68e0:	00058c63          	beqz	a1,68f8 <.prname_done>
    68e4:	00b62023          	sw	a1,0(a2) # 10000000 <end+0xfff3f28>
    68e8:	00150513          	addi	a0,a0,1
    68ec:	ff1ff06f          	j	68dc <.prname_next>

000068f0 <.test_name>:
    68f0:	6572                	flw	fa0,28(sp)
    68f2:	756d                	lui	a0,0xffffb
    68f4:	0000                	unimp
	...

000068f8 <.prname_done>:
    68f8:	02e00593          	li	a1,46
    68fc:	00b62023          	sw	a1,0(a2)
    6900:	00b62023          	sw	a1,0(a2)

00006904 <test_2>:
    6904:	01400093          	li	ra,20
    6908:	00600113          	li	sp,6
    690c:	0220f1b3          	remu	gp,ra,sp
    6910:	00200e93          	li	t4,2
    6914:	00200e13          	li	t3,2
    6918:	0dd19463          	bne	gp,t4,69e0 <fail>

0000691c <test_3>:
    691c:	fec00093          	li	ra,-20
    6920:	00600113          	li	sp,6
    6924:	0220f1b3          	remu	gp,ra,sp
    6928:	00200e93          	li	t4,2
    692c:	00300e13          	li	t3,3
    6930:	0bd19863          	bne	gp,t4,69e0 <fail>

00006934 <test_4>:
    6934:	01400093          	li	ra,20
    6938:	ffa00113          	li	sp,-6
    693c:	0220f1b3          	remu	gp,ra,sp
    6940:	01400e93          	li	t4,20
    6944:	00400e13          	li	t3,4
    6948:	09d19c63          	bne	gp,t4,69e0 <fail>

0000694c <test_5>:
    694c:	fec00093          	li	ra,-20
    6950:	ffa00113          	li	sp,-6
    6954:	0220f1b3          	remu	gp,ra,sp
    6958:	fec00e93          	li	t4,-20
    695c:	00500e13          	li	t3,5
    6960:	09d19063          	bne	gp,t4,69e0 <fail>

00006964 <test_6>:
    6964:	800000b7          	lui	ra,0x80000
    6968:	00100113          	li	sp,1
    696c:	0220f1b3          	remu	gp,ra,sp
    6970:	00000e93          	li	t4,0
    6974:	00600e13          	li	t3,6
    6978:	07d19463          	bne	gp,t4,69e0 <fail>

0000697c <test_7>:
    697c:	800000b7          	lui	ra,0x80000
    6980:	fff00113          	li	sp,-1
    6984:	0220f1b3          	remu	gp,ra,sp
    6988:	80000eb7          	lui	t4,0x80000
    698c:	00700e13          	li	t3,7
    6990:	05d19863          	bne	gp,t4,69e0 <fail>

00006994 <test_8>:
    6994:	800000b7          	lui	ra,0x80000
    6998:	00000113          	li	sp,0
    699c:	0220f1b3          	remu	gp,ra,sp
    69a0:	80000eb7          	lui	t4,0x80000
    69a4:	00800e13          	li	t3,8
    69a8:	03d19c63          	bne	gp,t4,69e0 <fail>

000069ac <test_9>:
    69ac:	00100093          	li	ra,1
    69b0:	00000113          	li	sp,0
    69b4:	0220f1b3          	remu	gp,ra,sp
    69b8:	00100e93          	li	t4,1
    69bc:	00900e13          	li	t3,9
    69c0:	03d19063          	bne	gp,t4,69e0 <fail>

000069c4 <test_10>:
    69c4:	00000093          	li	ra,0
    69c8:	00000113          	li	sp,0
    69cc:	0220f1b3          	remu	gp,ra,sp
    69d0:	00000e93          	li	t4,0
    69d4:	00a00e13          	li	t3,10
    69d8:	01d19463          	bne	gp,t4,69e0 <fail>
    69dc:	03c01a63          	bne	zero,t3,6a10 <pass>

000069e0 <fail>:
    69e0:	10000537          	lui	a0,0x10000
    69e4:	04500593          	li	a1,69
    69e8:	05200613          	li	a2,82
    69ec:	04f00693          	li	a3,79
    69f0:	00a00713          	li	a4,10
    69f4:	00b52023          	sw	a1,0(a0) # 10000000 <end+0xfff3f28>
    69f8:	00c52023          	sw	a2,0(a0)
    69fc:	00c52023          	sw	a2,0(a0)
    6a00:	00d52023          	sw	a3,0(a0)
    6a04:	00c52023          	sw	a2,0(a0)
    6a08:	00e52023          	sw	a4,0(a0)
    6a0c:	00100073          	ebreak

00006a10 <pass>:
    6a10:	10000537          	lui	a0,0x10000
    6a14:	04f00593          	li	a1,79
    6a18:	04b00613          	li	a2,75
    6a1c:	00a00693          	li	a3,10
    6a20:	00b52023          	sw	a1,0(a0) # 10000000 <end+0xfff3f28>
    6a24:	00c52023          	sw	a2,0(a0)
    6a28:	00d52023          	sw	a3,0(a0)
    6a2c:	c49f906f          	j	674 <remu_ret>

00006a30 <sb>:
    6a30:	00007537          	lui	a0,0x7
    6a34:	a5050513          	addi	a0,a0,-1456 # 6a50 <.test_name>
    6a38:	10000637          	lui	a2,0x10000

00006a3c <.prname_next>:
    6a3c:	00050583          	lb	a1,0(a0)
    6a40:	00058a63          	beqz	a1,6a54 <.prname_done>
    6a44:	00b62023          	sw	a1,0(a2) # 10000000 <end+0xfff3f28>
    6a48:	00150513          	addi	a0,a0,1
    6a4c:	ff1ff06f          	j	6a3c <.prname_next>

00006a50 <.test_name>:
    6a50:	00006273          	csrrsi	tp,ustatus,0

00006a54 <.prname_done>:
    6a54:	02e00593          	li	a1,46
    6a58:	00b62023          	sw	a1,0(a2)
    6a5c:	00b62023          	sw	a1,0(a2)

00006a60 <test_2>:
    6a60:	00005097          	auipc	ra,0x5
    6a64:	49008093          	addi	ra,ra,1168 # bef0 <tdat>
    6a68:	faa00113          	li	sp,-86
    6a6c:	00208023          	sb	sp,0(ra)
    6a70:	00008183          	lb	gp,0(ra)
    6a74:	faa00e93          	li	t4,-86
    6a78:	00200e13          	li	t3,2
    6a7c:	3dd19c63          	bne	gp,t4,6e54 <fail>

00006a80 <test_3>:
    6a80:	00005097          	auipc	ra,0x5
    6a84:	47008093          	addi	ra,ra,1136 # bef0 <tdat>
    6a88:	00000113          	li	sp,0
    6a8c:	002080a3          	sb	sp,1(ra)
    6a90:	00108183          	lb	gp,1(ra)
    6a94:	00000e93          	li	t4,0
    6a98:	00300e13          	li	t3,3
    6a9c:	3bd19c63          	bne	gp,t4,6e54 <fail>

00006aa0 <test_4>:
    6aa0:	00005097          	auipc	ra,0x5
    6aa4:	45008093          	addi	ra,ra,1104 # bef0 <tdat>
    6aa8:	fffff137          	lui	sp,0xfffff
    6aac:	fa010113          	addi	sp,sp,-96 # ffffefa0 <end+0xffff2ec8>
    6ab0:	00208123          	sb	sp,2(ra)
    6ab4:	00209183          	lh	gp,2(ra)
    6ab8:	fffffeb7          	lui	t4,0xfffff
    6abc:	fa0e8e93          	addi	t4,t4,-96 # ffffefa0 <end+0xffff2ec8>
    6ac0:	00400e13          	li	t3,4
    6ac4:	39d19863          	bne	gp,t4,6e54 <fail>

00006ac8 <test_5>:
    6ac8:	00005097          	auipc	ra,0x5
    6acc:	42808093          	addi	ra,ra,1064 # bef0 <tdat>
    6ad0:	00a00113          	li	sp,10
    6ad4:	002081a3          	sb	sp,3(ra)
    6ad8:	00308183          	lb	gp,3(ra)
    6adc:	00a00e93          	li	t4,10
    6ae0:	00500e13          	li	t3,5
    6ae4:	37d19863          	bne	gp,t4,6e54 <fail>

00006ae8 <test_6>:
    6ae8:	00005097          	auipc	ra,0x5
    6aec:	40f08093          	addi	ra,ra,1039 # bef7 <tdat8>
    6af0:	faa00113          	li	sp,-86
    6af4:	fe208ea3          	sb	sp,-3(ra)
    6af8:	ffd08183          	lb	gp,-3(ra)
    6afc:	faa00e93          	li	t4,-86
    6b00:	00600e13          	li	t3,6
    6b04:	35d19863          	bne	gp,t4,6e54 <fail>

00006b08 <test_7>:
    6b08:	00005097          	auipc	ra,0x5
    6b0c:	3ef08093          	addi	ra,ra,1007 # bef7 <tdat8>
    6b10:	00000113          	li	sp,0
    6b14:	fe208f23          	sb	sp,-2(ra)
    6b18:	ffe08183          	lb	gp,-2(ra)
    6b1c:	00000e93          	li	t4,0
    6b20:	00700e13          	li	t3,7
    6b24:	33d19863          	bne	gp,t4,6e54 <fail>

00006b28 <test_8>:
    6b28:	00005097          	auipc	ra,0x5
    6b2c:	3cf08093          	addi	ra,ra,975 # bef7 <tdat8>
    6b30:	fa000113          	li	sp,-96
    6b34:	fe208fa3          	sb	sp,-1(ra)
    6b38:	fff08183          	lb	gp,-1(ra)
    6b3c:	fa000e93          	li	t4,-96
    6b40:	00800e13          	li	t3,8
    6b44:	31d19863          	bne	gp,t4,6e54 <fail>

00006b48 <test_9>:
    6b48:	00005097          	auipc	ra,0x5
    6b4c:	3af08093          	addi	ra,ra,943 # bef7 <tdat8>
    6b50:	00a00113          	li	sp,10
    6b54:	00208023          	sb	sp,0(ra)
    6b58:	00008183          	lb	gp,0(ra)
    6b5c:	00a00e93          	li	t4,10
    6b60:	00900e13          	li	t3,9
    6b64:	2fd19863          	bne	gp,t4,6e54 <fail>

00006b68 <test_10>:
    6b68:	00005097          	auipc	ra,0x5
    6b6c:	39008093          	addi	ra,ra,912 # bef8 <tdat9>
    6b70:	12345137          	lui	sp,0x12345
    6b74:	67810113          	addi	sp,sp,1656 # 12345678 <end+0x123395a0>
    6b78:	fe008213          	addi	tp,ra,-32
    6b7c:	02220023          	sb	sp,32(tp) # 20 <irq_vec+0x10>
    6b80:	00008183          	lb	gp,0(ra)
    6b84:	07800e93          	li	t4,120
    6b88:	00a00e13          	li	t3,10
    6b8c:	2dd19463          	bne	gp,t4,6e54 <fail>

00006b90 <test_11>:
    6b90:	00005097          	auipc	ra,0x5
    6b94:	36808093          	addi	ra,ra,872 # bef8 <tdat9>
    6b98:	00003137          	lui	sp,0x3
    6b9c:	09810113          	addi	sp,sp,152 # 3098 <test_14+0x20>
    6ba0:	ffa08093          	addi	ra,ra,-6
    6ba4:	002083a3          	sb	sp,7(ra)
    6ba8:	00005217          	auipc	tp,0x5
    6bac:	35120213          	addi	tp,tp,849 # bef9 <tdat10>
    6bb0:	00020183          	lb	gp,0(tp) # 0 <reset_vec>
    6bb4:	f9800e93          	li	t4,-104
    6bb8:	00b00e13          	li	t3,11
    6bbc:	29d19c63          	bne	gp,t4,6e54 <fail>

00006bc0 <test_12>:
    6bc0:	00c00e13          	li	t3,12
    6bc4:	00000213          	li	tp,0
    6bc8:	fdd00093          	li	ra,-35
    6bcc:	00005117          	auipc	sp,0x5
    6bd0:	32410113          	addi	sp,sp,804 # bef0 <tdat>
    6bd4:	00110023          	sb	ra,0(sp)
    6bd8:	00010183          	lb	gp,0(sp)
    6bdc:	fdd00e93          	li	t4,-35
    6be0:	27d19a63          	bne	gp,t4,6e54 <fail>
    6be4:	00120213          	addi	tp,tp,1 # 1 <reset_vec+0x1>
    6be8:	00200293          	li	t0,2
    6bec:	fc521ee3          	bne	tp,t0,6bc8 <test_12+0x8>

00006bf0 <test_13>:
    6bf0:	00d00e13          	li	t3,13
    6bf4:	00000213          	li	tp,0
    6bf8:	fcd00093          	li	ra,-51
    6bfc:	00005117          	auipc	sp,0x5
    6c00:	2f410113          	addi	sp,sp,756 # bef0 <tdat>
    6c04:	00000013          	nop
    6c08:	001100a3          	sb	ra,1(sp)
    6c0c:	00110183          	lb	gp,1(sp)
    6c10:	fcd00e93          	li	t4,-51
    6c14:	25d19063          	bne	gp,t4,6e54 <fail>
    6c18:	00120213          	addi	tp,tp,1 # 1 <reset_vec+0x1>
    6c1c:	00200293          	li	t0,2
    6c20:	fc521ce3          	bne	tp,t0,6bf8 <test_13+0x8>

00006c24 <test_14>:
    6c24:	00e00e13          	li	t3,14
    6c28:	00000213          	li	tp,0
    6c2c:	fcc00093          	li	ra,-52
    6c30:	00005117          	auipc	sp,0x5
    6c34:	2c010113          	addi	sp,sp,704 # bef0 <tdat>
    6c38:	00000013          	nop
    6c3c:	00000013          	nop
    6c40:	00110123          	sb	ra,2(sp)
    6c44:	00210183          	lb	gp,2(sp)
    6c48:	fcc00e93          	li	t4,-52
    6c4c:	21d19463          	bne	gp,t4,6e54 <fail>
    6c50:	00120213          	addi	tp,tp,1 # 1 <reset_vec+0x1>
    6c54:	00200293          	li	t0,2
    6c58:	fc521ae3          	bne	tp,t0,6c2c <test_14+0x8>

00006c5c <test_15>:
    6c5c:	00f00e13          	li	t3,15
    6c60:	00000213          	li	tp,0
    6c64:	fbc00093          	li	ra,-68
    6c68:	00000013          	nop
    6c6c:	00005117          	auipc	sp,0x5
    6c70:	28410113          	addi	sp,sp,644 # bef0 <tdat>
    6c74:	001101a3          	sb	ra,3(sp)
    6c78:	00310183          	lb	gp,3(sp)
    6c7c:	fbc00e93          	li	t4,-68
    6c80:	1dd19a63          	bne	gp,t4,6e54 <fail>
    6c84:	00120213          	addi	tp,tp,1 # 1 <reset_vec+0x1>
    6c88:	00200293          	li	t0,2
    6c8c:	fc521ce3          	bne	tp,t0,6c64 <test_15+0x8>

00006c90 <test_16>:
    6c90:	01000e13          	li	t3,16
    6c94:	00000213          	li	tp,0
    6c98:	fbb00093          	li	ra,-69
    6c9c:	00000013          	nop
    6ca0:	00005117          	auipc	sp,0x5
    6ca4:	25010113          	addi	sp,sp,592 # bef0 <tdat>
    6ca8:	00000013          	nop
    6cac:	00110223          	sb	ra,4(sp)
    6cb0:	00410183          	lb	gp,4(sp)
    6cb4:	fbb00e93          	li	t4,-69
    6cb8:	19d19e63          	bne	gp,t4,6e54 <fail>
    6cbc:	00120213          	addi	tp,tp,1 # 1 <reset_vec+0x1>
    6cc0:	00200293          	li	t0,2
    6cc4:	fc521ae3          	bne	tp,t0,6c98 <test_16+0x8>

00006cc8 <test_17>:
    6cc8:	01100e13          	li	t3,17
    6ccc:	00000213          	li	tp,0
    6cd0:	fab00093          	li	ra,-85
    6cd4:	00000013          	nop
    6cd8:	00000013          	nop
    6cdc:	00005117          	auipc	sp,0x5
    6ce0:	21410113          	addi	sp,sp,532 # bef0 <tdat>
    6ce4:	001102a3          	sb	ra,5(sp)
    6ce8:	00510183          	lb	gp,5(sp)
    6cec:	fab00e93          	li	t4,-85
    6cf0:	17d19263          	bne	gp,t4,6e54 <fail>
    6cf4:	00120213          	addi	tp,tp,1 # 1 <reset_vec+0x1>
    6cf8:	00200293          	li	t0,2
    6cfc:	fc521ae3          	bne	tp,t0,6cd0 <test_17+0x8>

00006d00 <test_18>:
    6d00:	01200e13          	li	t3,18
    6d04:	00000213          	li	tp,0
    6d08:	00005117          	auipc	sp,0x5
    6d0c:	1e810113          	addi	sp,sp,488 # bef0 <tdat>
    6d10:	03300093          	li	ra,51
    6d14:	00110023          	sb	ra,0(sp)
    6d18:	00010183          	lb	gp,0(sp)
    6d1c:	03300e93          	li	t4,51
    6d20:	13d19a63          	bne	gp,t4,6e54 <fail>
    6d24:	00120213          	addi	tp,tp,1 # 1 <reset_vec+0x1>
    6d28:	00200293          	li	t0,2
    6d2c:	fc521ee3          	bne	tp,t0,6d08 <test_18+0x8>

00006d30 <test_19>:
    6d30:	01300e13          	li	t3,19
    6d34:	00000213          	li	tp,0
    6d38:	00005117          	auipc	sp,0x5
    6d3c:	1b810113          	addi	sp,sp,440 # bef0 <tdat>
    6d40:	02300093          	li	ra,35
    6d44:	00000013          	nop
    6d48:	001100a3          	sb	ra,1(sp)
    6d4c:	00110183          	lb	gp,1(sp)
    6d50:	02300e93          	li	t4,35
    6d54:	11d19063          	bne	gp,t4,6e54 <fail>
    6d58:	00120213          	addi	tp,tp,1 # 1 <reset_vec+0x1>
    6d5c:	00200293          	li	t0,2
    6d60:	fc521ce3          	bne	tp,t0,6d38 <test_19+0x8>

00006d64 <test_20>:
    6d64:	01400e13          	li	t3,20
    6d68:	00000213          	li	tp,0
    6d6c:	00005117          	auipc	sp,0x5
    6d70:	18410113          	addi	sp,sp,388 # bef0 <tdat>
    6d74:	02200093          	li	ra,34
    6d78:	00000013          	nop
    6d7c:	00000013          	nop
    6d80:	00110123          	sb	ra,2(sp)
    6d84:	00210183          	lb	gp,2(sp)
    6d88:	02200e93          	li	t4,34
    6d8c:	0dd19463          	bne	gp,t4,6e54 <fail>
    6d90:	00120213          	addi	tp,tp,1 # 1 <reset_vec+0x1>
    6d94:	00200293          	li	t0,2
    6d98:	fc521ae3          	bne	tp,t0,6d6c <test_20+0x8>

00006d9c <test_21>:
    6d9c:	01500e13          	li	t3,21
    6da0:	00000213          	li	tp,0
    6da4:	00005117          	auipc	sp,0x5
    6da8:	14c10113          	addi	sp,sp,332 # bef0 <tdat>
    6dac:	00000013          	nop
    6db0:	01200093          	li	ra,18
    6db4:	001101a3          	sb	ra,3(sp)
    6db8:	00310183          	lb	gp,3(sp)
    6dbc:	01200e93          	li	t4,18
    6dc0:	09d19a63          	bne	gp,t4,6e54 <fail>
    6dc4:	00120213          	addi	tp,tp,1 # 1 <reset_vec+0x1>
    6dc8:	00200293          	li	t0,2
    6dcc:	fc521ce3          	bne	tp,t0,6da4 <test_21+0x8>

00006dd0 <test_22>:
    6dd0:	01600e13          	li	t3,22
    6dd4:	00000213          	li	tp,0
    6dd8:	00005117          	auipc	sp,0x5
    6ddc:	11810113          	addi	sp,sp,280 # bef0 <tdat>
    6de0:	00000013          	nop
    6de4:	01100093          	li	ra,17
    6de8:	00000013          	nop
    6dec:	00110223          	sb	ra,4(sp)
    6df0:	00410183          	lb	gp,4(sp)
    6df4:	01100e93          	li	t4,17
    6df8:	05d19e63          	bne	gp,t4,6e54 <fail>
    6dfc:	00120213          	addi	tp,tp,1 # 1 <reset_vec+0x1>
    6e00:	00200293          	li	t0,2
    6e04:	fc521ae3          	bne	tp,t0,6dd8 <test_22+0x8>

00006e08 <test_23>:
    6e08:	01700e13          	li	t3,23
    6e0c:	00000213          	li	tp,0
    6e10:	00005117          	auipc	sp,0x5
    6e14:	0e010113          	addi	sp,sp,224 # bef0 <tdat>
    6e18:	00000013          	nop
    6e1c:	00000013          	nop
    6e20:	00100093          	li	ra,1
    6e24:	001102a3          	sb	ra,5(sp)
    6e28:	00510183          	lb	gp,5(sp)
    6e2c:	00100e93          	li	t4,1
    6e30:	03d19263          	bne	gp,t4,6e54 <fail>
    6e34:	00120213          	addi	tp,tp,1 # 1 <reset_vec+0x1>
    6e38:	00200293          	li	t0,2
    6e3c:	fc521ae3          	bne	tp,t0,6e10 <test_23+0x8>
    6e40:	0ef00513          	li	a0,239
    6e44:	00005597          	auipc	a1,0x5
    6e48:	0ac58593          	addi	a1,a1,172 # bef0 <tdat>
    6e4c:	00a581a3          	sb	a0,3(a1)
    6e50:	03c01a63          	bne	zero,t3,6e84 <pass>

00006e54 <fail>:
    6e54:	10000537          	lui	a0,0x10000
    6e58:	04500593          	li	a1,69
    6e5c:	05200613          	li	a2,82
    6e60:	04f00693          	li	a3,79
    6e64:	00a00713          	li	a4,10
    6e68:	00b52023          	sw	a1,0(a0) # 10000000 <end+0xfff3f28>
    6e6c:	00c52023          	sw	a2,0(a0)
    6e70:	00c52023          	sw	a2,0(a0)
    6e74:	00d52023          	sw	a3,0(a0)
    6e78:	00c52023          	sw	a2,0(a0)
    6e7c:	00e52023          	sw	a4,0(a0)
    6e80:	00100073          	ebreak

00006e84 <pass>:
    6e84:	10000537          	lui	a0,0x10000
    6e88:	04f00593          	li	a1,79
    6e8c:	04b00613          	li	a2,75
    6e90:	00a00693          	li	a3,10
    6e94:	00b52023          	sw	a1,0(a0) # 10000000 <end+0xfff3f28>
    6e98:	00c52023          	sw	a2,0(a0)
    6e9c:	00d52023          	sw	a3,0(a0)
    6ea0:	e90f906f          	j	530 <sb_ret>

00006ea4 <sh>:
    6ea4:	00007537          	lui	a0,0x7
    6ea8:	ec450513          	addi	a0,a0,-316 # 6ec4 <.test_name>
    6eac:	10000637          	lui	a2,0x10000

00006eb0 <.prname_next>:
    6eb0:	00050583          	lb	a1,0(a0)
    6eb4:	00058a63          	beqz	a1,6ec8 <.prname_done>
    6eb8:	00b62023          	sw	a1,0(a2) # 10000000 <end+0xfff3f28>
    6ebc:	00150513          	addi	a0,a0,1
    6ec0:	ff1ff06f          	j	6eb0 <.prname_next>

00006ec4 <.test_name>:
    6ec4:	00006873          	csrrsi	a6,ustatus,0

00006ec8 <.prname_done>:
    6ec8:	02e00593          	li	a1,46
    6ecc:	00b62023          	sw	a1,0(a2)
    6ed0:	00b62023          	sw	a1,0(a2)

00006ed4 <test_2>:
    6ed4:	00005097          	auipc	ra,0x5
    6ed8:	02808093          	addi	ra,ra,40 # befc <tdat>
    6edc:	0aa00113          	li	sp,170
    6ee0:	00209023          	sh	sp,0(ra)
    6ee4:	00009183          	lh	gp,0(ra)
    6ee8:	0aa00e93          	li	t4,170
    6eec:	00200e13          	li	t3,2
    6ef0:	45d19e63          	bne	gp,t4,734c <fail>

00006ef4 <test_3>:
    6ef4:	00005097          	auipc	ra,0x5
    6ef8:	00808093          	addi	ra,ra,8 # befc <tdat>
    6efc:	ffffb137          	lui	sp,0xffffb
    6f00:	a0010113          	addi	sp,sp,-1536 # ffffaa00 <end+0xfffee928>
    6f04:	00209123          	sh	sp,2(ra)
    6f08:	00209183          	lh	gp,2(ra)
    6f0c:	ffffbeb7          	lui	t4,0xffffb
    6f10:	a00e8e93          	addi	t4,t4,-1536 # ffffaa00 <end+0xfffee928>
    6f14:	00300e13          	li	t3,3
    6f18:	43d19a63          	bne	gp,t4,734c <fail>

00006f1c <test_4>:
    6f1c:	00005097          	auipc	ra,0x5
    6f20:	fe008093          	addi	ra,ra,-32 # befc <tdat>
    6f24:	beef1137          	lui	sp,0xbeef1
    6f28:	aa010113          	addi	sp,sp,-1376 # beef0aa0 <end+0xbeee49c8>
    6f2c:	00209223          	sh	sp,4(ra)
    6f30:	0040a183          	lw	gp,4(ra)
    6f34:	beef1eb7          	lui	t4,0xbeef1
    6f38:	aa0e8e93          	addi	t4,t4,-1376 # beef0aa0 <end+0xbeee49c8>
    6f3c:	00400e13          	li	t3,4
    6f40:	41d19663          	bne	gp,t4,734c <fail>

00006f44 <test_5>:
    6f44:	00005097          	auipc	ra,0x5
    6f48:	fb808093          	addi	ra,ra,-72 # befc <tdat>
    6f4c:	ffffa137          	lui	sp,0xffffa
    6f50:	00a10113          	addi	sp,sp,10 # ffffa00a <end+0xfffedf32>
    6f54:	00209323          	sh	sp,6(ra)
    6f58:	00609183          	lh	gp,6(ra)
    6f5c:	ffffaeb7          	lui	t4,0xffffa
    6f60:	00ae8e93          	addi	t4,t4,10 # ffffa00a <end+0xfffedf32>
    6f64:	00500e13          	li	t3,5
    6f68:	3fd19263          	bne	gp,t4,734c <fail>

00006f6c <test_6>:
    6f6c:	00005097          	auipc	ra,0x5
    6f70:	f9e08093          	addi	ra,ra,-98 # bf0a <tdat8>
    6f74:	0aa00113          	li	sp,170
    6f78:	fe209d23          	sh	sp,-6(ra)
    6f7c:	ffa09183          	lh	gp,-6(ra)
    6f80:	0aa00e93          	li	t4,170
    6f84:	00600e13          	li	t3,6
    6f88:	3dd19263          	bne	gp,t4,734c <fail>

00006f8c <test_7>:
    6f8c:	00005097          	auipc	ra,0x5
    6f90:	f7e08093          	addi	ra,ra,-130 # bf0a <tdat8>
    6f94:	ffffb137          	lui	sp,0xffffb
    6f98:	a0010113          	addi	sp,sp,-1536 # ffffaa00 <end+0xfffee928>
    6f9c:	fe209e23          	sh	sp,-4(ra)
    6fa0:	ffc09183          	lh	gp,-4(ra)
    6fa4:	ffffbeb7          	lui	t4,0xffffb
    6fa8:	a00e8e93          	addi	t4,t4,-1536 # ffffaa00 <end+0xfffee928>
    6fac:	00700e13          	li	t3,7
    6fb0:	39d19e63          	bne	gp,t4,734c <fail>

00006fb4 <test_8>:
    6fb4:	00005097          	auipc	ra,0x5
    6fb8:	f5608093          	addi	ra,ra,-170 # bf0a <tdat8>
    6fbc:	00001137          	lui	sp,0x1
    6fc0:	aa010113          	addi	sp,sp,-1376 # aa0 <print_prime+0x44>
    6fc4:	fe209f23          	sh	sp,-2(ra)
    6fc8:	ffe09183          	lh	gp,-2(ra)
    6fcc:	00001eb7          	lui	t4,0x1
    6fd0:	aa0e8e93          	addi	t4,t4,-1376 # aa0 <print_prime+0x44>
    6fd4:	00800e13          	li	t3,8
    6fd8:	37d19a63          	bne	gp,t4,734c <fail>

00006fdc <test_9>:
    6fdc:	00005097          	auipc	ra,0x5
    6fe0:	f2e08093          	addi	ra,ra,-210 # bf0a <tdat8>
    6fe4:	ffffa137          	lui	sp,0xffffa
    6fe8:	00a10113          	addi	sp,sp,10 # ffffa00a <end+0xfffedf32>
    6fec:	00209023          	sh	sp,0(ra)
    6ff0:	00009183          	lh	gp,0(ra)
    6ff4:	ffffaeb7          	lui	t4,0xffffa
    6ff8:	00ae8e93          	addi	t4,t4,10 # ffffa00a <end+0xfffedf32>
    6ffc:	00900e13          	li	t3,9
    7000:	35d19663          	bne	gp,t4,734c <fail>

00007004 <test_10>:
    7004:	00005097          	auipc	ra,0x5
    7008:	f0808093          	addi	ra,ra,-248 # bf0c <tdat9>
    700c:	12345137          	lui	sp,0x12345
    7010:	67810113          	addi	sp,sp,1656 # 12345678 <end+0x123395a0>
    7014:	fe008213          	addi	tp,ra,-32
    7018:	02221023          	sh	sp,32(tp) # 20 <irq_vec+0x10>
    701c:	00009183          	lh	gp,0(ra)
    7020:	00005eb7          	lui	t4,0x5
    7024:	678e8e93          	addi	t4,t4,1656 # 5678 <test_34>
    7028:	00a00e13          	li	t3,10
    702c:	33d19063          	bne	gp,t4,734c <fail>

00007030 <test_11>:
    7030:	00005097          	auipc	ra,0x5
    7034:	edc08093          	addi	ra,ra,-292 # bf0c <tdat9>
    7038:	00003137          	lui	sp,0x3
    703c:	09810113          	addi	sp,sp,152 # 3098 <test_14+0x20>
    7040:	ffb08093          	addi	ra,ra,-5
    7044:	002093a3          	sh	sp,7(ra)
    7048:	00005217          	auipc	tp,0x5
    704c:	ec620213          	addi	tp,tp,-314 # bf0e <tdat10>
    7050:	00021183          	lh	gp,0(tp) # 0 <reset_vec>
    7054:	00003eb7          	lui	t4,0x3
    7058:	098e8e93          	addi	t4,t4,152 # 3098 <test_14+0x20>
    705c:	00b00e13          	li	t3,11
    7060:	2fd19663          	bne	gp,t4,734c <fail>

00007064 <test_12>:
    7064:	00c00e13          	li	t3,12
    7068:	00000213          	li	tp,0
    706c:	ffffd0b7          	lui	ra,0xffffd
    7070:	cdd08093          	addi	ra,ra,-803 # ffffccdd <end+0xffff0c05>
    7074:	00005117          	auipc	sp,0x5
    7078:	e8810113          	addi	sp,sp,-376 # befc <tdat>
    707c:	00111023          	sh	ra,0(sp)
    7080:	00011183          	lh	gp,0(sp)
    7084:	ffffdeb7          	lui	t4,0xffffd
    7088:	cdde8e93          	addi	t4,t4,-803 # ffffccdd <end+0xffff0c05>
    708c:	2dd19063          	bne	gp,t4,734c <fail>
    7090:	00120213          	addi	tp,tp,1 # 1 <reset_vec+0x1>
    7094:	00200293          	li	t0,2
    7098:	fc521ae3          	bne	tp,t0,706c <test_12+0x8>

0000709c <test_13>:
    709c:	00d00e13          	li	t3,13
    70a0:	00000213          	li	tp,0
    70a4:	ffffc0b7          	lui	ra,0xffffc
    70a8:	ccd08093          	addi	ra,ra,-819 # ffffbccd <end+0xfffefbf5>
    70ac:	00005117          	auipc	sp,0x5
    70b0:	e5010113          	addi	sp,sp,-432 # befc <tdat>
    70b4:	00000013          	nop
    70b8:	00111123          	sh	ra,2(sp)
    70bc:	00211183          	lh	gp,2(sp)
    70c0:	ffffceb7          	lui	t4,0xffffc
    70c4:	ccde8e93          	addi	t4,t4,-819 # ffffbccd <end+0xfffefbf5>
    70c8:	29d19263          	bne	gp,t4,734c <fail>
    70cc:	00120213          	addi	tp,tp,1 # 1 <reset_vec+0x1>
    70d0:	00200293          	li	t0,2
    70d4:	fc5218e3          	bne	tp,t0,70a4 <test_13+0x8>

000070d8 <test_14>:
    70d8:	00e00e13          	li	t3,14
    70dc:	00000213          	li	tp,0
    70e0:	ffffc0b7          	lui	ra,0xffffc
    70e4:	bcc08093          	addi	ra,ra,-1076 # ffffbbcc <end+0xfffefaf4>
    70e8:	00005117          	auipc	sp,0x5
    70ec:	e1410113          	addi	sp,sp,-492 # befc <tdat>
    70f0:	00000013          	nop
    70f4:	00000013          	nop
    70f8:	00111223          	sh	ra,4(sp)
    70fc:	00411183          	lh	gp,4(sp)
    7100:	ffffceb7          	lui	t4,0xffffc
    7104:	bcce8e93          	addi	t4,t4,-1076 # ffffbbcc <end+0xfffefaf4>
    7108:	25d19263          	bne	gp,t4,734c <fail>
    710c:	00120213          	addi	tp,tp,1 # 1 <reset_vec+0x1>
    7110:	00200293          	li	t0,2
    7114:	fc5216e3          	bne	tp,t0,70e0 <test_14+0x8>

00007118 <test_15>:
    7118:	00f00e13          	li	t3,15
    711c:	00000213          	li	tp,0
    7120:	ffffb0b7          	lui	ra,0xffffb
    7124:	bbc08093          	addi	ra,ra,-1092 # ffffabbc <end+0xfffeeae4>
    7128:	00000013          	nop
    712c:	00005117          	auipc	sp,0x5
    7130:	dd010113          	addi	sp,sp,-560 # befc <tdat>
    7134:	00111323          	sh	ra,6(sp)
    7138:	00611183          	lh	gp,6(sp)
    713c:	ffffbeb7          	lui	t4,0xffffb
    7140:	bbce8e93          	addi	t4,t4,-1092 # ffffabbc <end+0xfffeeae4>
    7144:	21d19463          	bne	gp,t4,734c <fail>
    7148:	00120213          	addi	tp,tp,1 # 1 <reset_vec+0x1>
    714c:	00200293          	li	t0,2
    7150:	fc5218e3          	bne	tp,t0,7120 <test_15+0x8>

00007154 <test_16>:
    7154:	01000e13          	li	t3,16
    7158:	00000213          	li	tp,0
    715c:	ffffb0b7          	lui	ra,0xffffb
    7160:	abb08093          	addi	ra,ra,-1349 # ffffaabb <end+0xfffee9e3>
    7164:	00000013          	nop
    7168:	00005117          	auipc	sp,0x5
    716c:	d9410113          	addi	sp,sp,-620 # befc <tdat>
    7170:	00000013          	nop
    7174:	00111423          	sh	ra,8(sp)
    7178:	00811183          	lh	gp,8(sp)
    717c:	ffffbeb7          	lui	t4,0xffffb
    7180:	abbe8e93          	addi	t4,t4,-1349 # ffffaabb <end+0xfffee9e3>
    7184:	1dd19463          	bne	gp,t4,734c <fail>
    7188:	00120213          	addi	tp,tp,1 # 1 <reset_vec+0x1>
    718c:	00200293          	li	t0,2
    7190:	fc5216e3          	bne	tp,t0,715c <test_16+0x8>

00007194 <test_17>:
    7194:	01100e13          	li	t3,17
    7198:	00000213          	li	tp,0
    719c:	ffffe0b7          	lui	ra,0xffffe
    71a0:	aab08093          	addi	ra,ra,-1365 # ffffdaab <end+0xffff19d3>
    71a4:	00000013          	nop
    71a8:	00000013          	nop
    71ac:	00005117          	auipc	sp,0x5
    71b0:	d5010113          	addi	sp,sp,-688 # befc <tdat>
    71b4:	00111523          	sh	ra,10(sp)
    71b8:	00a11183          	lh	gp,10(sp)
    71bc:	ffffeeb7          	lui	t4,0xffffe
    71c0:	aabe8e93          	addi	t4,t4,-1365 # ffffdaab <end+0xffff19d3>
    71c4:	19d19463          	bne	gp,t4,734c <fail>
    71c8:	00120213          	addi	tp,tp,1 # 1 <reset_vec+0x1>
    71cc:	00200293          	li	t0,2
    71d0:	fc5216e3          	bne	tp,t0,719c <test_17+0x8>

000071d4 <test_18>:
    71d4:	01200e13          	li	t3,18
    71d8:	00000213          	li	tp,0
    71dc:	00005117          	auipc	sp,0x5
    71e0:	d2010113          	addi	sp,sp,-736 # befc <tdat>
    71e4:	000020b7          	lui	ra,0x2
    71e8:	23308093          	addi	ra,ra,563 # 2233 <test_12+0x1b>
    71ec:	00111023          	sh	ra,0(sp)
    71f0:	00011183          	lh	gp,0(sp)
    71f4:	00002eb7          	lui	t4,0x2
    71f8:	233e8e93          	addi	t4,t4,563 # 2233 <test_12+0x1b>
    71fc:	15d19863          	bne	gp,t4,734c <fail>
    7200:	00120213          	addi	tp,tp,1 # 1 <reset_vec+0x1>
    7204:	00200293          	li	t0,2
    7208:	fc521ae3          	bne	tp,t0,71dc <test_18+0x8>

0000720c <test_19>:
    720c:	01300e13          	li	t3,19
    7210:	00000213          	li	tp,0
    7214:	00005117          	auipc	sp,0x5
    7218:	ce810113          	addi	sp,sp,-792 # befc <tdat>
    721c:	000010b7          	lui	ra,0x1
    7220:	22308093          	addi	ra,ra,547 # 1223 <test_20+0x1f>
    7224:	00000013          	nop
    7228:	00111123          	sh	ra,2(sp)
    722c:	00211183          	lh	gp,2(sp)
    7230:	00001eb7          	lui	t4,0x1
    7234:	223e8e93          	addi	t4,t4,547 # 1223 <test_20+0x1f>
    7238:	11d19a63          	bne	gp,t4,734c <fail>
    723c:	00120213          	addi	tp,tp,1 # 1 <reset_vec+0x1>
    7240:	00200293          	li	t0,2
    7244:	fc5218e3          	bne	tp,t0,7214 <test_19+0x8>

00007248 <test_20>:
    7248:	01400e13          	li	t3,20
    724c:	00000213          	li	tp,0
    7250:	00005117          	auipc	sp,0x5
    7254:	cac10113          	addi	sp,sp,-852 # befc <tdat>
    7258:	000010b7          	lui	ra,0x1
    725c:	12208093          	addi	ra,ra,290 # 1122 <test_11+0x6>
    7260:	00000013          	nop
    7264:	00000013          	nop
    7268:	00111223          	sh	ra,4(sp)
    726c:	00411183          	lh	gp,4(sp)
    7270:	00001eb7          	lui	t4,0x1
    7274:	122e8e93          	addi	t4,t4,290 # 1122 <test_11+0x6>
    7278:	0dd19a63          	bne	gp,t4,734c <fail>
    727c:	00120213          	addi	tp,tp,1 # 1 <reset_vec+0x1>
    7280:	00200293          	li	t0,2
    7284:	fc5216e3          	bne	tp,t0,7250 <test_20+0x8>

00007288 <test_21>:
    7288:	01500e13          	li	t3,21
    728c:	00000213          	li	tp,0
    7290:	00005117          	auipc	sp,0x5
    7294:	c6c10113          	addi	sp,sp,-916 # befc <tdat>
    7298:	00000013          	nop
    729c:	11200093          	li	ra,274
    72a0:	00111323          	sh	ra,6(sp)
    72a4:	00611183          	lh	gp,6(sp)
    72a8:	11200e93          	li	t4,274
    72ac:	0bd19063          	bne	gp,t4,734c <fail>
    72b0:	00120213          	addi	tp,tp,1 # 1 <reset_vec+0x1>
    72b4:	00200293          	li	t0,2
    72b8:	fc521ce3          	bne	tp,t0,7290 <test_21+0x8>

000072bc <test_22>:
    72bc:	01600e13          	li	t3,22
    72c0:	00000213          	li	tp,0
    72c4:	00005117          	auipc	sp,0x5
    72c8:	c3810113          	addi	sp,sp,-968 # befc <tdat>
    72cc:	00000013          	nop
    72d0:	01100093          	li	ra,17
    72d4:	00000013          	nop
    72d8:	00111423          	sh	ra,8(sp)
    72dc:	00811183          	lh	gp,8(sp)
    72e0:	01100e93          	li	t4,17
    72e4:	07d19463          	bne	gp,t4,734c <fail>
    72e8:	00120213          	addi	tp,tp,1 # 1 <reset_vec+0x1>
    72ec:	00200293          	li	t0,2
    72f0:	fc521ae3          	bne	tp,t0,72c4 <test_22+0x8>

000072f4 <test_23>:
    72f4:	01700e13          	li	t3,23
    72f8:	00000213          	li	tp,0
    72fc:	00005117          	auipc	sp,0x5
    7300:	c0010113          	addi	sp,sp,-1024 # befc <tdat>
    7304:	00000013          	nop
    7308:	00000013          	nop
    730c:	000030b7          	lui	ra,0x3
    7310:	00108093          	addi	ra,ra,1 # 3001 <test_11+0x9>
    7314:	00111523          	sh	ra,10(sp)
    7318:	00a11183          	lh	gp,10(sp)
    731c:	00003eb7          	lui	t4,0x3
    7320:	001e8e93          	addi	t4,t4,1 # 3001 <test_11+0x9>
    7324:	03d19463          	bne	gp,t4,734c <fail>
    7328:	00120213          	addi	tp,tp,1 # 1 <reset_vec+0x1>
    732c:	00200293          	li	t0,2
    7330:	fc5216e3          	bne	tp,t0,72fc <test_23+0x8>
    7334:	0000c537          	lui	a0,0xc
    7338:	eef50513          	addi	a0,a0,-273 # beef <tdat4+0x3>
    733c:	00005597          	auipc	a1,0x5
    7340:	bc058593          	addi	a1,a1,-1088 # befc <tdat>
    7344:	00a59323          	sh	a0,6(a1)
    7348:	03c01a63          	bne	zero,t3,737c <pass>

0000734c <fail>:
    734c:	10000537          	lui	a0,0x10000
    7350:	04500593          	li	a1,69
    7354:	05200613          	li	a2,82
    7358:	04f00693          	li	a3,79
    735c:	00a00713          	li	a4,10
    7360:	00b52023          	sw	a1,0(a0) # 10000000 <end+0xfff3f28>
    7364:	00c52023          	sw	a2,0(a0)
    7368:	00c52023          	sw	a2,0(a0)
    736c:	00d52023          	sw	a3,0(a0)
    7370:	00c52023          	sw	a2,0(a0)
    7374:	00e52023          	sw	a4,0(a0)
    7378:	00100073          	ebreak

0000737c <pass>:
    737c:	10000537          	lui	a0,0x10000
    7380:	04f00593          	li	a1,79
    7384:	04b00613          	li	a2,75
    7388:	00a00693          	li	a3,10
    738c:	00b52023          	sw	a1,0(a0) # 10000000 <end+0xfff3f28>
    7390:	00c52023          	sw	a2,0(a0)
    7394:	00d52023          	sw	a3,0(a0)
    7398:	9a4f906f          	j	53c <sh_ret>

0000739c <simple>:
    739c:	00007537          	lui	a0,0x7
    73a0:	3bc50513          	addi	a0,a0,956 # 73bc <.test_name>
    73a4:	10000637          	lui	a2,0x10000

000073a8 <.prname_next>:
    73a8:	00050583          	lb	a1,0(a0)
    73ac:	00058c63          	beqz	a1,73c4 <.prname_done>
    73b0:	00b62023          	sw	a1,0(a2) # 10000000 <end+0xfff3f28>
    73b4:	00150513          	addi	a0,a0,1
    73b8:	ff1ff06f          	j	73a8 <.prname_next>

000073bc <.test_name>:
    73bc:	706d6973          	csrrsi	s2,0x706,26
    73c0:	656c                	flw	fa1,76(a0)
	...

000073c4 <.prname_done>:
    73c4:	02e00593          	li	a1,46
    73c8:	00b62023          	sw	a1,0(a2)
    73cc:	00b62023          	sw	a1,0(a2)
    73d0:	10000537          	lui	a0,0x10000
    73d4:	04f00593          	li	a1,79
    73d8:	04b00613          	li	a2,75
    73dc:	00a00693          	li	a3,10
    73e0:	00b52023          	sw	a1,0(a0) # 10000000 <end+0xfff3f28>
    73e4:	00c52023          	sw	a2,0(a0)
    73e8:	00d52023          	sw	a3,0(a0)
    73ec:	a94f906f          	j	680 <simple_ret>

000073f0 <sll>:
    73f0:	00007537          	lui	a0,0x7
    73f4:	41050513          	addi	a0,a0,1040 # 7410 <.test_name>
    73f8:	10000637          	lui	a2,0x10000

000073fc <.prname_next>:
    73fc:	00050583          	lb	a1,0(a0)
    7400:	00058a63          	beqz	a1,7414 <.prname_done>
    7404:	00b62023          	sw	a1,0(a2) # 10000000 <end+0xfff3f28>
    7408:	00150513          	addi	a0,a0,1
    740c:	ff1ff06f          	j	73fc <.prname_next>

00007410 <.test_name>:
    7410:	006c6c73          	csrrsi	s8,0x6,24

00007414 <.prname_done>:
    7414:	02e00593          	li	a1,46
    7418:	00b62023          	sw	a1,0(a2)
    741c:	00b62023          	sw	a1,0(a2)

00007420 <test_2>:
    7420:	00100093          	li	ra,1
    7424:	00000113          	li	sp,0
    7428:	002091b3          	sll	gp,ra,sp
    742c:	00100e93          	li	t4,1
    7430:	00200e13          	li	t3,2
    7434:	55d19c63          	bne	gp,t4,798c <fail>

00007438 <test_3>:
    7438:	00100093          	li	ra,1
    743c:	00100113          	li	sp,1
    7440:	002091b3          	sll	gp,ra,sp
    7444:	00200e93          	li	t4,2
    7448:	00300e13          	li	t3,3
    744c:	55d19063          	bne	gp,t4,798c <fail>

00007450 <test_4>:
    7450:	00100093          	li	ra,1
    7454:	00700113          	li	sp,7
    7458:	002091b3          	sll	gp,ra,sp
    745c:	08000e93          	li	t4,128
    7460:	00400e13          	li	t3,4
    7464:	53d19463          	bne	gp,t4,798c <fail>

00007468 <test_5>:
    7468:	00100093          	li	ra,1
    746c:	00e00113          	li	sp,14
    7470:	002091b3          	sll	gp,ra,sp
    7474:	00004eb7          	lui	t4,0x4
    7478:	00500e13          	li	t3,5
    747c:	51d19863          	bne	gp,t4,798c <fail>

00007480 <test_6>:
    7480:	00100093          	li	ra,1
    7484:	01f00113          	li	sp,31
    7488:	002091b3          	sll	gp,ra,sp
    748c:	80000eb7          	lui	t4,0x80000
    7490:	00600e13          	li	t3,6
    7494:	4fd19c63          	bne	gp,t4,798c <fail>

00007498 <test_7>:
    7498:	fff00093          	li	ra,-1
    749c:	00000113          	li	sp,0
    74a0:	002091b3          	sll	gp,ra,sp
    74a4:	fff00e93          	li	t4,-1
    74a8:	00700e13          	li	t3,7
    74ac:	4fd19063          	bne	gp,t4,798c <fail>

000074b0 <test_8>:
    74b0:	fff00093          	li	ra,-1
    74b4:	00100113          	li	sp,1
    74b8:	002091b3          	sll	gp,ra,sp
    74bc:	ffe00e93          	li	t4,-2
    74c0:	00800e13          	li	t3,8
    74c4:	4dd19463          	bne	gp,t4,798c <fail>

000074c8 <test_9>:
    74c8:	fff00093          	li	ra,-1
    74cc:	00700113          	li	sp,7
    74d0:	002091b3          	sll	gp,ra,sp
    74d4:	f8000e93          	li	t4,-128
    74d8:	00900e13          	li	t3,9
    74dc:	4bd19863          	bne	gp,t4,798c <fail>

000074e0 <test_10>:
    74e0:	fff00093          	li	ra,-1
    74e4:	00e00113          	li	sp,14
    74e8:	002091b3          	sll	gp,ra,sp
    74ec:	ffffceb7          	lui	t4,0xffffc
    74f0:	00a00e13          	li	t3,10
    74f4:	49d19c63          	bne	gp,t4,798c <fail>

000074f8 <test_11>:
    74f8:	fff00093          	li	ra,-1
    74fc:	01f00113          	li	sp,31
    7500:	002091b3          	sll	gp,ra,sp
    7504:	80000eb7          	lui	t4,0x80000
    7508:	00b00e13          	li	t3,11
    750c:	49d19063          	bne	gp,t4,798c <fail>

00007510 <test_12>:
    7510:	212120b7          	lui	ra,0x21212
    7514:	12108093          	addi	ra,ra,289 # 21212121 <end+0x21206049>
    7518:	00000113          	li	sp,0
    751c:	002091b3          	sll	gp,ra,sp
    7520:	21212eb7          	lui	t4,0x21212
    7524:	121e8e93          	addi	t4,t4,289 # 21212121 <end+0x21206049>
    7528:	00c00e13          	li	t3,12
    752c:	47d19063          	bne	gp,t4,798c <fail>

00007530 <test_13>:
    7530:	212120b7          	lui	ra,0x21212
    7534:	12108093          	addi	ra,ra,289 # 21212121 <end+0x21206049>
    7538:	00100113          	li	sp,1
    753c:	002091b3          	sll	gp,ra,sp
    7540:	42424eb7          	lui	t4,0x42424
    7544:	242e8e93          	addi	t4,t4,578 # 42424242 <end+0x4241816a>
    7548:	00d00e13          	li	t3,13
    754c:	45d19063          	bne	gp,t4,798c <fail>

00007550 <test_14>:
    7550:	212120b7          	lui	ra,0x21212
    7554:	12108093          	addi	ra,ra,289 # 21212121 <end+0x21206049>
    7558:	00700113          	li	sp,7
    755c:	002091b3          	sll	gp,ra,sp
    7560:	90909eb7          	lui	t4,0x90909
    7564:	080e8e93          	addi	t4,t4,128 # 90909080 <end+0x908fcfa8>
    7568:	00e00e13          	li	t3,14
    756c:	43d19063          	bne	gp,t4,798c <fail>

00007570 <test_15>:
    7570:	212120b7          	lui	ra,0x21212
    7574:	12108093          	addi	ra,ra,289 # 21212121 <end+0x21206049>
    7578:	00e00113          	li	sp,14
    757c:	002091b3          	sll	gp,ra,sp
    7580:	48484eb7          	lui	t4,0x48484
    7584:	00f00e13          	li	t3,15
    7588:	41d19263          	bne	gp,t4,798c <fail>

0000758c <test_16>:
    758c:	212120b7          	lui	ra,0x21212
    7590:	12108093          	addi	ra,ra,289 # 21212121 <end+0x21206049>
    7594:	01f00113          	li	sp,31
    7598:	002091b3          	sll	gp,ra,sp
    759c:	80000eb7          	lui	t4,0x80000
    75a0:	01000e13          	li	t3,16
    75a4:	3fd19463          	bne	gp,t4,798c <fail>

000075a8 <test_17>:
    75a8:	212120b7          	lui	ra,0x21212
    75ac:	12108093          	addi	ra,ra,289 # 21212121 <end+0x21206049>
    75b0:	fe000113          	li	sp,-32
    75b4:	002091b3          	sll	gp,ra,sp
    75b8:	21212eb7          	lui	t4,0x21212
    75bc:	121e8e93          	addi	t4,t4,289 # 21212121 <end+0x21206049>
    75c0:	01100e13          	li	t3,17
    75c4:	3dd19463          	bne	gp,t4,798c <fail>

000075c8 <test_18>:
    75c8:	212120b7          	lui	ra,0x21212
    75cc:	12108093          	addi	ra,ra,289 # 21212121 <end+0x21206049>
    75d0:	fe100113          	li	sp,-31
    75d4:	002091b3          	sll	gp,ra,sp
    75d8:	42424eb7          	lui	t4,0x42424
    75dc:	242e8e93          	addi	t4,t4,578 # 42424242 <end+0x4241816a>
    75e0:	01200e13          	li	t3,18
    75e4:	3bd19463          	bne	gp,t4,798c <fail>

000075e8 <test_19>:
    75e8:	212120b7          	lui	ra,0x21212
    75ec:	12108093          	addi	ra,ra,289 # 21212121 <end+0x21206049>
    75f0:	fe700113          	li	sp,-25
    75f4:	002091b3          	sll	gp,ra,sp
    75f8:	90909eb7          	lui	t4,0x90909
    75fc:	080e8e93          	addi	t4,t4,128 # 90909080 <end+0x908fcfa8>
    7600:	01300e13          	li	t3,19
    7604:	39d19463          	bne	gp,t4,798c <fail>

00007608 <test_20>:
    7608:	212120b7          	lui	ra,0x21212
    760c:	12108093          	addi	ra,ra,289 # 21212121 <end+0x21206049>
    7610:	fee00113          	li	sp,-18
    7614:	002091b3          	sll	gp,ra,sp
    7618:	48484eb7          	lui	t4,0x48484
    761c:	01400e13          	li	t3,20
    7620:	37d19663          	bne	gp,t4,798c <fail>

00007624 <test_21>:
    7624:	212120b7          	lui	ra,0x21212
    7628:	12008093          	addi	ra,ra,288 # 21212120 <end+0x21206048>
    762c:	fff00113          	li	sp,-1
    7630:	002091b3          	sll	gp,ra,sp
    7634:	00000e93          	li	t4,0
    7638:	01500e13          	li	t3,21
    763c:	35d19863          	bne	gp,t4,798c <fail>

00007640 <test_22>:
    7640:	00100093          	li	ra,1
    7644:	00700113          	li	sp,7
    7648:	002090b3          	sll	ra,ra,sp
    764c:	08000e93          	li	t4,128
    7650:	01600e13          	li	t3,22
    7654:	33d09c63          	bne	ra,t4,798c <fail>

00007658 <test_23>:
    7658:	00100093          	li	ra,1
    765c:	00e00113          	li	sp,14
    7660:	00209133          	sll	sp,ra,sp
    7664:	00004eb7          	lui	t4,0x4
    7668:	01700e13          	li	t3,23
    766c:	33d11063          	bne	sp,t4,798c <fail>

00007670 <test_24>:
    7670:	00300093          	li	ra,3
    7674:	001090b3          	sll	ra,ra,ra
    7678:	01800e93          	li	t4,24
    767c:	01800e13          	li	t3,24
    7680:	31d09663          	bne	ra,t4,798c <fail>

00007684 <test_25>:
    7684:	00000213          	li	tp,0
    7688:	00100093          	li	ra,1
    768c:	00700113          	li	sp,7
    7690:	002091b3          	sll	gp,ra,sp
    7694:	00018313          	mv	t1,gp
    7698:	00120213          	addi	tp,tp,1 # 1 <reset_vec+0x1>
    769c:	00200293          	li	t0,2
    76a0:	fe5214e3          	bne	tp,t0,7688 <test_25+0x4>
    76a4:	08000e93          	li	t4,128
    76a8:	01900e13          	li	t3,25
    76ac:	2fd31063          	bne	t1,t4,798c <fail>

000076b0 <test_26>:
    76b0:	00000213          	li	tp,0
    76b4:	00100093          	li	ra,1
    76b8:	00e00113          	li	sp,14
    76bc:	002091b3          	sll	gp,ra,sp
    76c0:	00000013          	nop
    76c4:	00018313          	mv	t1,gp
    76c8:	00120213          	addi	tp,tp,1 # 1 <reset_vec+0x1>
    76cc:	00200293          	li	t0,2
    76d0:	fe5212e3          	bne	tp,t0,76b4 <test_26+0x4>
    76d4:	00004eb7          	lui	t4,0x4
    76d8:	01a00e13          	li	t3,26
    76dc:	2bd31863          	bne	t1,t4,798c <fail>

000076e0 <test_27>:
    76e0:	00000213          	li	tp,0
    76e4:	00100093          	li	ra,1
    76e8:	01f00113          	li	sp,31
    76ec:	002091b3          	sll	gp,ra,sp
    76f0:	00000013          	nop
    76f4:	00000013          	nop
    76f8:	00018313          	mv	t1,gp
    76fc:	00120213          	addi	tp,tp,1 # 1 <reset_vec+0x1>
    7700:	00200293          	li	t0,2
    7704:	fe5210e3          	bne	tp,t0,76e4 <test_27+0x4>
    7708:	80000eb7          	lui	t4,0x80000
    770c:	01b00e13          	li	t3,27
    7710:	27d31e63          	bne	t1,t4,798c <fail>

00007714 <test_28>:
    7714:	00000213          	li	tp,0
    7718:	00100093          	li	ra,1
    771c:	00700113          	li	sp,7
    7720:	002091b3          	sll	gp,ra,sp
    7724:	00120213          	addi	tp,tp,1 # 1 <reset_vec+0x1>
    7728:	00200293          	li	t0,2
    772c:	fe5216e3          	bne	tp,t0,7718 <test_28+0x4>
    7730:	08000e93          	li	t4,128
    7734:	01c00e13          	li	t3,28
    7738:	25d19a63          	bne	gp,t4,798c <fail>

0000773c <test_29>:
    773c:	00000213          	li	tp,0
    7740:	00100093          	li	ra,1
    7744:	00e00113          	li	sp,14
    7748:	00000013          	nop
    774c:	002091b3          	sll	gp,ra,sp
    7750:	00120213          	addi	tp,tp,1 # 1 <reset_vec+0x1>
    7754:	00200293          	li	t0,2
    7758:	fe5214e3          	bne	tp,t0,7740 <test_29+0x4>
    775c:	00004eb7          	lui	t4,0x4
    7760:	01d00e13          	li	t3,29
    7764:	23d19463          	bne	gp,t4,798c <fail>

00007768 <test_30>:
    7768:	00000213          	li	tp,0
    776c:	00100093          	li	ra,1
    7770:	01f00113          	li	sp,31
    7774:	00000013          	nop
    7778:	00000013          	nop
    777c:	002091b3          	sll	gp,ra,sp
    7780:	00120213          	addi	tp,tp,1 # 1 <reset_vec+0x1>
    7784:	00200293          	li	t0,2
    7788:	fe5212e3          	bne	tp,t0,776c <test_30+0x4>
    778c:	80000eb7          	lui	t4,0x80000
    7790:	01e00e13          	li	t3,30
    7794:	1fd19c63          	bne	gp,t4,798c <fail>

00007798 <test_31>:
    7798:	00000213          	li	tp,0
    779c:	00100093          	li	ra,1
    77a0:	00000013          	nop
    77a4:	00700113          	li	sp,7
    77a8:	002091b3          	sll	gp,ra,sp
    77ac:	00120213          	addi	tp,tp,1 # 1 <reset_vec+0x1>
    77b0:	00200293          	li	t0,2
    77b4:	fe5214e3          	bne	tp,t0,779c <test_31+0x4>
    77b8:	08000e93          	li	t4,128
    77bc:	01f00e13          	li	t3,31
    77c0:	1dd19663          	bne	gp,t4,798c <fail>

000077c4 <test_32>:
    77c4:	00000213          	li	tp,0
    77c8:	00100093          	li	ra,1
    77cc:	00000013          	nop
    77d0:	00e00113          	li	sp,14
    77d4:	00000013          	nop
    77d8:	002091b3          	sll	gp,ra,sp
    77dc:	00120213          	addi	tp,tp,1 # 1 <reset_vec+0x1>
    77e0:	00200293          	li	t0,2
    77e4:	fe5212e3          	bne	tp,t0,77c8 <test_32+0x4>
    77e8:	00004eb7          	lui	t4,0x4
    77ec:	02000e13          	li	t3,32
    77f0:	19d19e63          	bne	gp,t4,798c <fail>

000077f4 <test_33>:
    77f4:	00000213          	li	tp,0
    77f8:	00100093          	li	ra,1
    77fc:	00000013          	nop
    7800:	00000013          	nop
    7804:	01f00113          	li	sp,31
    7808:	002091b3          	sll	gp,ra,sp
    780c:	00120213          	addi	tp,tp,1 # 1 <reset_vec+0x1>
    7810:	00200293          	li	t0,2
    7814:	fe5212e3          	bne	tp,t0,77f8 <test_33+0x4>
    7818:	80000eb7          	lui	t4,0x80000
    781c:	02100e13          	li	t3,33
    7820:	17d19663          	bne	gp,t4,798c <fail>

00007824 <test_34>:
    7824:	00000213          	li	tp,0
    7828:	00700113          	li	sp,7
    782c:	00100093          	li	ra,1
    7830:	002091b3          	sll	gp,ra,sp
    7834:	00120213          	addi	tp,tp,1 # 1 <reset_vec+0x1>
    7838:	00200293          	li	t0,2
    783c:	fe5216e3          	bne	tp,t0,7828 <test_34+0x4>
    7840:	08000e93          	li	t4,128
    7844:	02200e13          	li	t3,34
    7848:	15d19263          	bne	gp,t4,798c <fail>

0000784c <test_35>:
    784c:	00000213          	li	tp,0
    7850:	00e00113          	li	sp,14
    7854:	00100093          	li	ra,1
    7858:	00000013          	nop
    785c:	002091b3          	sll	gp,ra,sp
    7860:	00120213          	addi	tp,tp,1 # 1 <reset_vec+0x1>
    7864:	00200293          	li	t0,2
    7868:	fe5214e3          	bne	tp,t0,7850 <test_35+0x4>
    786c:	00004eb7          	lui	t4,0x4
    7870:	02300e13          	li	t3,35
    7874:	11d19c63          	bne	gp,t4,798c <fail>

00007878 <test_36>:
    7878:	00000213          	li	tp,0
    787c:	01f00113          	li	sp,31
    7880:	00100093          	li	ra,1
    7884:	00000013          	nop
    7888:	00000013          	nop
    788c:	002091b3          	sll	gp,ra,sp
    7890:	00120213          	addi	tp,tp,1 # 1 <reset_vec+0x1>
    7894:	00200293          	li	t0,2
    7898:	fe5212e3          	bne	tp,t0,787c <test_36+0x4>
    789c:	80000eb7          	lui	t4,0x80000
    78a0:	02400e13          	li	t3,36
    78a4:	0fd19463          	bne	gp,t4,798c <fail>

000078a8 <test_37>:
    78a8:	00000213          	li	tp,0
    78ac:	00700113          	li	sp,7
    78b0:	00000013          	nop
    78b4:	00100093          	li	ra,1
    78b8:	002091b3          	sll	gp,ra,sp
    78bc:	00120213          	addi	tp,tp,1 # 1 <reset_vec+0x1>
    78c0:	00200293          	li	t0,2
    78c4:	fe5214e3          	bne	tp,t0,78ac <test_37+0x4>
    78c8:	08000e93          	li	t4,128
    78cc:	02500e13          	li	t3,37
    78d0:	0bd19e63          	bne	gp,t4,798c <fail>

000078d4 <test_38>:
    78d4:	00000213          	li	tp,0
    78d8:	00e00113          	li	sp,14
    78dc:	00000013          	nop
    78e0:	00100093          	li	ra,1
    78e4:	00000013          	nop
    78e8:	002091b3          	sll	gp,ra,sp
    78ec:	00120213          	addi	tp,tp,1 # 1 <reset_vec+0x1>
    78f0:	00200293          	li	t0,2
    78f4:	fe5212e3          	bne	tp,t0,78d8 <test_38+0x4>
    78f8:	00004eb7          	lui	t4,0x4
    78fc:	02600e13          	li	t3,38
    7900:	09d19663          	bne	gp,t4,798c <fail>

00007904 <test_39>:
    7904:	00000213          	li	tp,0
    7908:	01f00113          	li	sp,31
    790c:	00000013          	nop
    7910:	00000013          	nop
    7914:	00100093          	li	ra,1
    7918:	002091b3          	sll	gp,ra,sp
    791c:	00120213          	addi	tp,tp,1 # 1 <reset_vec+0x1>
    7920:	00200293          	li	t0,2
    7924:	fe5212e3          	bne	tp,t0,7908 <test_39+0x4>
    7928:	80000eb7          	lui	t4,0x80000
    792c:	02700e13          	li	t3,39
    7930:	05d19e63          	bne	gp,t4,798c <fail>

00007934 <test_40>:
    7934:	00f00093          	li	ra,15
    7938:	00101133          	sll	sp,zero,ra
    793c:	00000e93          	li	t4,0
    7940:	02800e13          	li	t3,40
    7944:	05d11463          	bne	sp,t4,798c <fail>

00007948 <test_41>:
    7948:	02000093          	li	ra,32
    794c:	00009133          	sll	sp,ra,zero
    7950:	02000e93          	li	t4,32
    7954:	02900e13          	li	t3,41
    7958:	03d11a63          	bne	sp,t4,798c <fail>

0000795c <test_42>:
    795c:	000010b3          	sll	ra,zero,zero
    7960:	00000e93          	li	t4,0
    7964:	02a00e13          	li	t3,42
    7968:	03d09263          	bne	ra,t4,798c <fail>

0000796c <test_43>:
    796c:	40000093          	li	ra,1024
    7970:	00001137          	lui	sp,0x1
    7974:	80010113          	addi	sp,sp,-2048 # 800 <irq+0xf8>
    7978:	00209033          	sll	zero,ra,sp
    797c:	00000e93          	li	t4,0
    7980:	02b00e13          	li	t3,43
    7984:	01d01463          	bne	zero,t4,798c <fail>
    7988:	03c01a63          	bne	zero,t3,79bc <pass>

0000798c <fail>:
    798c:	10000537          	lui	a0,0x10000
    7990:	04500593          	li	a1,69
    7994:	05200613          	li	a2,82
    7998:	04f00693          	li	a3,79
    799c:	00a00713          	li	a4,10
    79a0:	00b52023          	sw	a1,0(a0) # 10000000 <end+0xfff3f28>
    79a4:	00c52023          	sw	a2,0(a0)
    79a8:	00c52023          	sw	a2,0(a0)
    79ac:	00d52023          	sw	a3,0(a0)
    79b0:	00c52023          	sw	a2,0(a0)
    79b4:	00e52023          	sw	a4,0(a0)
    79b8:	00100073          	ebreak

000079bc <pass>:
    79bc:	10000537          	lui	a0,0x10000
    79c0:	04f00593          	li	a1,79
    79c4:	04b00613          	li	a2,75
    79c8:	00a00693          	li	a3,10
    79cc:	00b52023          	sw	a1,0(a0) # 10000000 <end+0xfff3f28>
    79d0:	00c52023          	sw	a2,0(a0)
    79d4:	00d52023          	sw	a3,0(a0)
    79d8:	bf5f806f          	j	5cc <sll_ret>

000079dc <slli>:
    79dc:	00008537          	lui	a0,0x8
    79e0:	9fc50513          	addi	a0,a0,-1540 # 79fc <.test_name>
    79e4:	10000637          	lui	a2,0x10000

000079e8 <.prname_next>:
    79e8:	00050583          	lb	a1,0(a0)
    79ec:	00058c63          	beqz	a1,7a04 <.prname_done>
    79f0:	00b62023          	sw	a1,0(a2) # 10000000 <end+0xfff3f28>
    79f4:	00150513          	addi	a0,a0,1
    79f8:	ff1ff06f          	j	79e8 <.prname_next>

000079fc <.test_name>:
    79fc:	696c6c73          	csrrsi	s8,0x696,24
    7a00:	0000                	unimp
	...

00007a04 <.prname_done>:
    7a04:	02e00593          	li	a1,46
    7a08:	00b62023          	sw	a1,0(a2)
    7a0c:	00b62023          	sw	a1,0(a2)

00007a10 <test_2>:
    7a10:	00100093          	li	ra,1
    7a14:	00009193          	slli	gp,ra,0x0
    7a18:	00100e93          	li	t4,1
    7a1c:	00200e13          	li	t3,2
    7a20:	27d19a63          	bne	gp,t4,7c94 <fail>

00007a24 <test_3>:
    7a24:	00100093          	li	ra,1
    7a28:	00109193          	slli	gp,ra,0x1
    7a2c:	00200e93          	li	t4,2
    7a30:	00300e13          	li	t3,3
    7a34:	27d19063          	bne	gp,t4,7c94 <fail>

00007a38 <test_4>:
    7a38:	00100093          	li	ra,1
    7a3c:	00709193          	slli	gp,ra,0x7
    7a40:	08000e93          	li	t4,128
    7a44:	00400e13          	li	t3,4
    7a48:	25d19663          	bne	gp,t4,7c94 <fail>

00007a4c <test_5>:
    7a4c:	00100093          	li	ra,1
    7a50:	00e09193          	slli	gp,ra,0xe
    7a54:	00004eb7          	lui	t4,0x4
    7a58:	00500e13          	li	t3,5
    7a5c:	23d19c63          	bne	gp,t4,7c94 <fail>

00007a60 <test_6>:
    7a60:	00100093          	li	ra,1
    7a64:	01f09193          	slli	gp,ra,0x1f
    7a68:	80000eb7          	lui	t4,0x80000
    7a6c:	00600e13          	li	t3,6
    7a70:	23d19263          	bne	gp,t4,7c94 <fail>

00007a74 <test_7>:
    7a74:	fff00093          	li	ra,-1
    7a78:	00009193          	slli	gp,ra,0x0
    7a7c:	fff00e93          	li	t4,-1
    7a80:	00700e13          	li	t3,7
    7a84:	21d19863          	bne	gp,t4,7c94 <fail>

00007a88 <test_8>:
    7a88:	fff00093          	li	ra,-1
    7a8c:	00109193          	slli	gp,ra,0x1
    7a90:	ffe00e93          	li	t4,-2
    7a94:	00800e13          	li	t3,8
    7a98:	1fd19e63          	bne	gp,t4,7c94 <fail>

00007a9c <test_9>:
    7a9c:	fff00093          	li	ra,-1
    7aa0:	00709193          	slli	gp,ra,0x7
    7aa4:	f8000e93          	li	t4,-128
    7aa8:	00900e13          	li	t3,9
    7aac:	1fd19463          	bne	gp,t4,7c94 <fail>

00007ab0 <test_10>:
    7ab0:	fff00093          	li	ra,-1
    7ab4:	00e09193          	slli	gp,ra,0xe
    7ab8:	ffffceb7          	lui	t4,0xffffc
    7abc:	00a00e13          	li	t3,10
    7ac0:	1dd19a63          	bne	gp,t4,7c94 <fail>

00007ac4 <test_11>:
    7ac4:	fff00093          	li	ra,-1
    7ac8:	01f09193          	slli	gp,ra,0x1f
    7acc:	80000eb7          	lui	t4,0x80000
    7ad0:	00b00e13          	li	t3,11
    7ad4:	1dd19063          	bne	gp,t4,7c94 <fail>

00007ad8 <test_12>:
    7ad8:	212120b7          	lui	ra,0x21212
    7adc:	12108093          	addi	ra,ra,289 # 21212121 <end+0x21206049>
    7ae0:	00009193          	slli	gp,ra,0x0
    7ae4:	21212eb7          	lui	t4,0x21212
    7ae8:	121e8e93          	addi	t4,t4,289 # 21212121 <end+0x21206049>
    7aec:	00c00e13          	li	t3,12
    7af0:	1bd19263          	bne	gp,t4,7c94 <fail>

00007af4 <test_13>:
    7af4:	212120b7          	lui	ra,0x21212
    7af8:	12108093          	addi	ra,ra,289 # 21212121 <end+0x21206049>
    7afc:	00109193          	slli	gp,ra,0x1
    7b00:	42424eb7          	lui	t4,0x42424
    7b04:	242e8e93          	addi	t4,t4,578 # 42424242 <end+0x4241816a>
    7b08:	00d00e13          	li	t3,13
    7b0c:	19d19463          	bne	gp,t4,7c94 <fail>

00007b10 <test_14>:
    7b10:	212120b7          	lui	ra,0x21212
    7b14:	12108093          	addi	ra,ra,289 # 21212121 <end+0x21206049>
    7b18:	00709193          	slli	gp,ra,0x7
    7b1c:	90909eb7          	lui	t4,0x90909
    7b20:	080e8e93          	addi	t4,t4,128 # 90909080 <end+0x908fcfa8>
    7b24:	00e00e13          	li	t3,14
    7b28:	17d19663          	bne	gp,t4,7c94 <fail>

00007b2c <test_15>:
    7b2c:	212120b7          	lui	ra,0x21212
    7b30:	12108093          	addi	ra,ra,289 # 21212121 <end+0x21206049>
    7b34:	00e09193          	slli	gp,ra,0xe
    7b38:	48484eb7          	lui	t4,0x48484
    7b3c:	00f00e13          	li	t3,15
    7b40:	15d19a63          	bne	gp,t4,7c94 <fail>

00007b44 <test_16>:
    7b44:	212120b7          	lui	ra,0x21212
    7b48:	12108093          	addi	ra,ra,289 # 21212121 <end+0x21206049>
    7b4c:	01f09193          	slli	gp,ra,0x1f
    7b50:	80000eb7          	lui	t4,0x80000
    7b54:	01000e13          	li	t3,16
    7b58:	13d19e63          	bne	gp,t4,7c94 <fail>

00007b5c <test_17>:
    7b5c:	00100093          	li	ra,1
    7b60:	00709093          	slli	ra,ra,0x7
    7b64:	08000e93          	li	t4,128
    7b68:	01100e13          	li	t3,17
    7b6c:	13d09463          	bne	ra,t4,7c94 <fail>

00007b70 <test_18>:
    7b70:	00000213          	li	tp,0
    7b74:	00100093          	li	ra,1
    7b78:	00709193          	slli	gp,ra,0x7
    7b7c:	00018313          	mv	t1,gp
    7b80:	00120213          	addi	tp,tp,1 # 1 <reset_vec+0x1>
    7b84:	00200293          	li	t0,2
    7b88:	fe5216e3          	bne	tp,t0,7b74 <test_18+0x4>
    7b8c:	08000e93          	li	t4,128
    7b90:	01200e13          	li	t3,18
    7b94:	11d31063          	bne	t1,t4,7c94 <fail>

00007b98 <test_19>:
    7b98:	00000213          	li	tp,0
    7b9c:	00100093          	li	ra,1
    7ba0:	00e09193          	slli	gp,ra,0xe
    7ba4:	00000013          	nop
    7ba8:	00018313          	mv	t1,gp
    7bac:	00120213          	addi	tp,tp,1 # 1 <reset_vec+0x1>
    7bb0:	00200293          	li	t0,2
    7bb4:	fe5214e3          	bne	tp,t0,7b9c <test_19+0x4>
    7bb8:	00004eb7          	lui	t4,0x4
    7bbc:	01300e13          	li	t3,19
    7bc0:	0dd31a63          	bne	t1,t4,7c94 <fail>

00007bc4 <test_20>:
    7bc4:	00000213          	li	tp,0
    7bc8:	00100093          	li	ra,1
    7bcc:	01f09193          	slli	gp,ra,0x1f
    7bd0:	00000013          	nop
    7bd4:	00000013          	nop
    7bd8:	00018313          	mv	t1,gp
    7bdc:	00120213          	addi	tp,tp,1 # 1 <reset_vec+0x1>
    7be0:	00200293          	li	t0,2
    7be4:	fe5212e3          	bne	tp,t0,7bc8 <test_20+0x4>
    7be8:	80000eb7          	lui	t4,0x80000
    7bec:	01400e13          	li	t3,20
    7bf0:	0bd31263          	bne	t1,t4,7c94 <fail>

00007bf4 <test_21>:
    7bf4:	00000213          	li	tp,0
    7bf8:	00100093          	li	ra,1
    7bfc:	00709193          	slli	gp,ra,0x7
    7c00:	00120213          	addi	tp,tp,1 # 1 <reset_vec+0x1>
    7c04:	00200293          	li	t0,2
    7c08:	fe5218e3          	bne	tp,t0,7bf8 <test_21+0x4>
    7c0c:	08000e93          	li	t4,128
    7c10:	01500e13          	li	t3,21
    7c14:	09d19063          	bne	gp,t4,7c94 <fail>

00007c18 <test_22>:
    7c18:	00000213          	li	tp,0
    7c1c:	00100093          	li	ra,1
    7c20:	00000013          	nop
    7c24:	00e09193          	slli	gp,ra,0xe
    7c28:	00120213          	addi	tp,tp,1 # 1 <reset_vec+0x1>
    7c2c:	00200293          	li	t0,2
    7c30:	fe5216e3          	bne	tp,t0,7c1c <test_22+0x4>
    7c34:	00004eb7          	lui	t4,0x4
    7c38:	01600e13          	li	t3,22
    7c3c:	05d19c63          	bne	gp,t4,7c94 <fail>

00007c40 <test_23>:
    7c40:	00000213          	li	tp,0
    7c44:	00100093          	li	ra,1
    7c48:	00000013          	nop
    7c4c:	00000013          	nop
    7c50:	01f09193          	slli	gp,ra,0x1f
    7c54:	00120213          	addi	tp,tp,1 # 1 <reset_vec+0x1>
    7c58:	00200293          	li	t0,2
    7c5c:	fe5214e3          	bne	tp,t0,7c44 <test_23+0x4>
    7c60:	80000eb7          	lui	t4,0x80000
    7c64:	01700e13          	li	t3,23
    7c68:	03d19663          	bne	gp,t4,7c94 <fail>

00007c6c <test_24>:
    7c6c:	01f01093          	slli	ra,zero,0x1f
    7c70:	00000e93          	li	t4,0
    7c74:	01800e13          	li	t3,24
    7c78:	01d09e63          	bne	ra,t4,7c94 <fail>

00007c7c <test_25>:
    7c7c:	02100093          	li	ra,33
    7c80:	01409013          	slli	zero,ra,0x14
    7c84:	00000e93          	li	t4,0
    7c88:	01900e13          	li	t3,25
    7c8c:	01d01463          	bne	zero,t4,7c94 <fail>
    7c90:	03c01a63          	bne	zero,t3,7cc4 <pass>

00007c94 <fail>:
    7c94:	10000537          	lui	a0,0x10000
    7c98:	04500593          	li	a1,69
    7c9c:	05200613          	li	a2,82
    7ca0:	04f00693          	li	a3,79
    7ca4:	00a00713          	li	a4,10
    7ca8:	00b52023          	sw	a1,0(a0) # 10000000 <end+0xfff3f28>
    7cac:	00c52023          	sw	a2,0(a0)
    7cb0:	00c52023          	sw	a2,0(a0)
    7cb4:	00d52023          	sw	a3,0(a0)
    7cb8:	00c52023          	sw	a2,0(a0)
    7cbc:	00e52023          	sw	a4,0(a0)
    7cc0:	00100073          	ebreak

00007cc4 <pass>:
    7cc4:	10000537          	lui	a0,0x10000
    7cc8:	04f00593          	li	a1,79
    7ccc:	04b00613          	li	a2,75
    7cd0:	00a00693          	li	a3,10
    7cd4:	00b52023          	sw	a1,0(a0) # 10000000 <end+0xfff3f28>
    7cd8:	00c52023          	sw	a2,0(a0)
    7cdc:	00d52023          	sw	a3,0(a0)
    7ce0:	8b1f806f          	j	590 <slli_ret>

00007ce4 <slt>:
    7ce4:	00008537          	lui	a0,0x8
    7ce8:	d0450513          	addi	a0,a0,-764 # 7d04 <.test_name>
    7cec:	10000637          	lui	a2,0x10000

00007cf0 <.prname_next>:
    7cf0:	00050583          	lb	a1,0(a0)
    7cf4:	00058a63          	beqz	a1,7d08 <.prname_done>
    7cf8:	00b62023          	sw	a1,0(a2) # 10000000 <end+0xfff3f28>
    7cfc:	00150513          	addi	a0,a0,1
    7d00:	ff1ff06f          	j	7cf0 <.prname_next>

00007d04 <.test_name>:
    7d04:	00746c73          	csrrsi	s8,0x7,8

00007d08 <.prname_done>:
    7d08:	02e00593          	li	a1,46
    7d0c:	00b62023          	sw	a1,0(a2)
    7d10:	00b62023          	sw	a1,0(a2)

00007d14 <test_2>:
    7d14:	00000093          	li	ra,0
    7d18:	00000113          	li	sp,0
    7d1c:	0020a1b3          	slt	gp,ra,sp
    7d20:	00000e93          	li	t4,0
    7d24:	00200e13          	li	t3,2
    7d28:	4bd19a63          	bne	gp,t4,81dc <fail>

00007d2c <test_3>:
    7d2c:	00100093          	li	ra,1
    7d30:	00100113          	li	sp,1
    7d34:	0020a1b3          	slt	gp,ra,sp
    7d38:	00000e93          	li	t4,0
    7d3c:	00300e13          	li	t3,3
    7d40:	49d19e63          	bne	gp,t4,81dc <fail>

00007d44 <test_4>:
    7d44:	00300093          	li	ra,3
    7d48:	00700113          	li	sp,7
    7d4c:	0020a1b3          	slt	gp,ra,sp
    7d50:	00100e93          	li	t4,1
    7d54:	00400e13          	li	t3,4
    7d58:	49d19263          	bne	gp,t4,81dc <fail>

00007d5c <test_5>:
    7d5c:	00700093          	li	ra,7
    7d60:	00300113          	li	sp,3
    7d64:	0020a1b3          	slt	gp,ra,sp
    7d68:	00000e93          	li	t4,0
    7d6c:	00500e13          	li	t3,5
    7d70:	47d19663          	bne	gp,t4,81dc <fail>

00007d74 <test_6>:
    7d74:	00000093          	li	ra,0
    7d78:	ffff8137          	lui	sp,0xffff8
    7d7c:	0020a1b3          	slt	gp,ra,sp
    7d80:	00000e93          	li	t4,0
    7d84:	00600e13          	li	t3,6
    7d88:	45d19a63          	bne	gp,t4,81dc <fail>

00007d8c <test_7>:
    7d8c:	800000b7          	lui	ra,0x80000
    7d90:	00000113          	li	sp,0
    7d94:	0020a1b3          	slt	gp,ra,sp
    7d98:	00100e93          	li	t4,1
    7d9c:	00700e13          	li	t3,7
    7da0:	43d19e63          	bne	gp,t4,81dc <fail>

00007da4 <test_8>:
    7da4:	800000b7          	lui	ra,0x80000
    7da8:	ffff8137          	lui	sp,0xffff8
    7dac:	0020a1b3          	slt	gp,ra,sp
    7db0:	00100e93          	li	t4,1
    7db4:	00800e13          	li	t3,8
    7db8:	43d19263          	bne	gp,t4,81dc <fail>

00007dbc <test_9>:
    7dbc:	00000093          	li	ra,0
    7dc0:	00008137          	lui	sp,0x8
    7dc4:	fff10113          	addi	sp,sp,-1 # 7fff <test_26+0x13>
    7dc8:	0020a1b3          	slt	gp,ra,sp
    7dcc:	00100e93          	li	t4,1
    7dd0:	00900e13          	li	t3,9
    7dd4:	41d19463          	bne	gp,t4,81dc <fail>

00007dd8 <test_10>:
    7dd8:	800000b7          	lui	ra,0x80000
    7ddc:	fff08093          	addi	ra,ra,-1 # 7fffffff <end+0x7fff3f27>
    7de0:	00000113          	li	sp,0
    7de4:	0020a1b3          	slt	gp,ra,sp
    7de8:	00000e93          	li	t4,0
    7dec:	00a00e13          	li	t3,10
    7df0:	3fd19663          	bne	gp,t4,81dc <fail>

00007df4 <test_11>:
    7df4:	800000b7          	lui	ra,0x80000
    7df8:	fff08093          	addi	ra,ra,-1 # 7fffffff <end+0x7fff3f27>
    7dfc:	00008137          	lui	sp,0x8
    7e00:	fff10113          	addi	sp,sp,-1 # 7fff <test_26+0x13>
    7e04:	0020a1b3          	slt	gp,ra,sp
    7e08:	00000e93          	li	t4,0
    7e0c:	00b00e13          	li	t3,11
    7e10:	3dd19663          	bne	gp,t4,81dc <fail>

00007e14 <test_12>:
    7e14:	800000b7          	lui	ra,0x80000
    7e18:	00008137          	lui	sp,0x8
    7e1c:	fff10113          	addi	sp,sp,-1 # 7fff <test_26+0x13>
    7e20:	0020a1b3          	slt	gp,ra,sp
    7e24:	00100e93          	li	t4,1
    7e28:	00c00e13          	li	t3,12
    7e2c:	3bd19863          	bne	gp,t4,81dc <fail>

00007e30 <test_13>:
    7e30:	800000b7          	lui	ra,0x80000
    7e34:	fff08093          	addi	ra,ra,-1 # 7fffffff <end+0x7fff3f27>
    7e38:	ffff8137          	lui	sp,0xffff8
    7e3c:	0020a1b3          	slt	gp,ra,sp
    7e40:	00000e93          	li	t4,0
    7e44:	00d00e13          	li	t3,13
    7e48:	39d19a63          	bne	gp,t4,81dc <fail>

00007e4c <test_14>:
    7e4c:	00000093          	li	ra,0
    7e50:	fff00113          	li	sp,-1
    7e54:	0020a1b3          	slt	gp,ra,sp
    7e58:	00000e93          	li	t4,0
    7e5c:	00e00e13          	li	t3,14
    7e60:	37d19e63          	bne	gp,t4,81dc <fail>

00007e64 <test_15>:
    7e64:	fff00093          	li	ra,-1
    7e68:	00100113          	li	sp,1
    7e6c:	0020a1b3          	slt	gp,ra,sp
    7e70:	00100e93          	li	t4,1
    7e74:	00f00e13          	li	t3,15
    7e78:	37d19263          	bne	gp,t4,81dc <fail>

00007e7c <test_16>:
    7e7c:	fff00093          	li	ra,-1
    7e80:	fff00113          	li	sp,-1
    7e84:	0020a1b3          	slt	gp,ra,sp
    7e88:	00000e93          	li	t4,0
    7e8c:	01000e13          	li	t3,16
    7e90:	35d19663          	bne	gp,t4,81dc <fail>

00007e94 <test_17>:
    7e94:	00e00093          	li	ra,14
    7e98:	00d00113          	li	sp,13
    7e9c:	0020a0b3          	slt	ra,ra,sp
    7ea0:	00000e93          	li	t4,0
    7ea4:	01100e13          	li	t3,17
    7ea8:	33d09a63          	bne	ra,t4,81dc <fail>

00007eac <test_18>:
    7eac:	00b00093          	li	ra,11
    7eb0:	00d00113          	li	sp,13
    7eb4:	0020a133          	slt	sp,ra,sp
    7eb8:	00100e93          	li	t4,1
    7ebc:	01200e13          	li	t3,18
    7ec0:	31d11e63          	bne	sp,t4,81dc <fail>

00007ec4 <test_19>:
    7ec4:	00d00093          	li	ra,13
    7ec8:	0010a0b3          	slt	ra,ra,ra
    7ecc:	00000e93          	li	t4,0
    7ed0:	01300e13          	li	t3,19
    7ed4:	31d09463          	bne	ra,t4,81dc <fail>

00007ed8 <test_20>:
    7ed8:	00000213          	li	tp,0
    7edc:	00b00093          	li	ra,11
    7ee0:	00d00113          	li	sp,13
    7ee4:	0020a1b3          	slt	gp,ra,sp
    7ee8:	00018313          	mv	t1,gp
    7eec:	00120213          	addi	tp,tp,1 # 1 <reset_vec+0x1>
    7ef0:	00200293          	li	t0,2
    7ef4:	fe5214e3          	bne	tp,t0,7edc <test_20+0x4>
    7ef8:	00100e93          	li	t4,1
    7efc:	01400e13          	li	t3,20
    7f00:	2dd31e63          	bne	t1,t4,81dc <fail>

00007f04 <test_21>:
    7f04:	00000213          	li	tp,0
    7f08:	00e00093          	li	ra,14
    7f0c:	00d00113          	li	sp,13
    7f10:	0020a1b3          	slt	gp,ra,sp
    7f14:	00000013          	nop
    7f18:	00018313          	mv	t1,gp
    7f1c:	00120213          	addi	tp,tp,1 # 1 <reset_vec+0x1>
    7f20:	00200293          	li	t0,2
    7f24:	fe5212e3          	bne	tp,t0,7f08 <test_21+0x4>
    7f28:	00000e93          	li	t4,0
    7f2c:	01500e13          	li	t3,21
    7f30:	2bd31663          	bne	t1,t4,81dc <fail>

00007f34 <test_22>:
    7f34:	00000213          	li	tp,0
    7f38:	00c00093          	li	ra,12
    7f3c:	00d00113          	li	sp,13
    7f40:	0020a1b3          	slt	gp,ra,sp
    7f44:	00000013          	nop
    7f48:	00000013          	nop
    7f4c:	00018313          	mv	t1,gp
    7f50:	00120213          	addi	tp,tp,1 # 1 <reset_vec+0x1>
    7f54:	00200293          	li	t0,2
    7f58:	fe5210e3          	bne	tp,t0,7f38 <test_22+0x4>
    7f5c:	00100e93          	li	t4,1
    7f60:	01600e13          	li	t3,22
    7f64:	27d31c63          	bne	t1,t4,81dc <fail>

00007f68 <test_23>:
    7f68:	00000213          	li	tp,0
    7f6c:	00e00093          	li	ra,14
    7f70:	00d00113          	li	sp,13
    7f74:	0020a1b3          	slt	gp,ra,sp
    7f78:	00120213          	addi	tp,tp,1 # 1 <reset_vec+0x1>
    7f7c:	00200293          	li	t0,2
    7f80:	fe5216e3          	bne	tp,t0,7f6c <test_23+0x4>
    7f84:	00000e93          	li	t4,0
    7f88:	01700e13          	li	t3,23
    7f8c:	25d19863          	bne	gp,t4,81dc <fail>

00007f90 <test_24>:
    7f90:	00000213          	li	tp,0
    7f94:	00b00093          	li	ra,11
    7f98:	00d00113          	li	sp,13
    7f9c:	00000013          	nop
    7fa0:	0020a1b3          	slt	gp,ra,sp
    7fa4:	00120213          	addi	tp,tp,1 # 1 <reset_vec+0x1>
    7fa8:	00200293          	li	t0,2
    7fac:	fe5214e3          	bne	tp,t0,7f94 <test_24+0x4>
    7fb0:	00100e93          	li	t4,1
    7fb4:	01800e13          	li	t3,24
    7fb8:	23d19263          	bne	gp,t4,81dc <fail>

00007fbc <test_25>:
    7fbc:	00000213          	li	tp,0
    7fc0:	00f00093          	li	ra,15
    7fc4:	00d00113          	li	sp,13
    7fc8:	00000013          	nop
    7fcc:	00000013          	nop
    7fd0:	0020a1b3          	slt	gp,ra,sp
    7fd4:	00120213          	addi	tp,tp,1 # 1 <reset_vec+0x1>
    7fd8:	00200293          	li	t0,2
    7fdc:	fe5212e3          	bne	tp,t0,7fc0 <test_25+0x4>
    7fe0:	00000e93          	li	t4,0
    7fe4:	01900e13          	li	t3,25
    7fe8:	1fd19a63          	bne	gp,t4,81dc <fail>

00007fec <test_26>:
    7fec:	00000213          	li	tp,0
    7ff0:	00a00093          	li	ra,10
    7ff4:	00000013          	nop
    7ff8:	00d00113          	li	sp,13
    7ffc:	0020a1b3          	slt	gp,ra,sp
    8000:	00120213          	addi	tp,tp,1 # 1 <reset_vec+0x1>
    8004:	00200293          	li	t0,2
    8008:	fe5214e3          	bne	tp,t0,7ff0 <test_26+0x4>
    800c:	00100e93          	li	t4,1
    8010:	01a00e13          	li	t3,26
    8014:	1dd19463          	bne	gp,t4,81dc <fail>

00008018 <test_27>:
    8018:	00000213          	li	tp,0
    801c:	01000093          	li	ra,16
    8020:	00000013          	nop
    8024:	00d00113          	li	sp,13
    8028:	00000013          	nop
    802c:	0020a1b3          	slt	gp,ra,sp
    8030:	00120213          	addi	tp,tp,1 # 1 <reset_vec+0x1>
    8034:	00200293          	li	t0,2
    8038:	fe5212e3          	bne	tp,t0,801c <test_27+0x4>
    803c:	00000e93          	li	t4,0
    8040:	01b00e13          	li	t3,27
    8044:	19d19c63          	bne	gp,t4,81dc <fail>

00008048 <test_28>:
    8048:	00000213          	li	tp,0
    804c:	00900093          	li	ra,9
    8050:	00000013          	nop
    8054:	00000013          	nop
    8058:	00d00113          	li	sp,13
    805c:	0020a1b3          	slt	gp,ra,sp
    8060:	00120213          	addi	tp,tp,1 # 1 <reset_vec+0x1>
    8064:	00200293          	li	t0,2
    8068:	fe5212e3          	bne	tp,t0,804c <test_28+0x4>
    806c:	00100e93          	li	t4,1
    8070:	01c00e13          	li	t3,28
    8074:	17d19463          	bne	gp,t4,81dc <fail>

00008078 <test_29>:
    8078:	00000213          	li	tp,0
    807c:	00d00113          	li	sp,13
    8080:	01100093          	li	ra,17
    8084:	0020a1b3          	slt	gp,ra,sp
    8088:	00120213          	addi	tp,tp,1 # 1 <reset_vec+0x1>
    808c:	00200293          	li	t0,2
    8090:	fe5216e3          	bne	tp,t0,807c <test_29+0x4>
    8094:	00000e93          	li	t4,0
    8098:	01d00e13          	li	t3,29
    809c:	15d19063          	bne	gp,t4,81dc <fail>

000080a0 <test_30>:
    80a0:	00000213          	li	tp,0
    80a4:	00d00113          	li	sp,13
    80a8:	00800093          	li	ra,8
    80ac:	00000013          	nop
    80b0:	0020a1b3          	slt	gp,ra,sp
    80b4:	00120213          	addi	tp,tp,1 # 1 <reset_vec+0x1>
    80b8:	00200293          	li	t0,2
    80bc:	fe5214e3          	bne	tp,t0,80a4 <test_30+0x4>
    80c0:	00100e93          	li	t4,1
    80c4:	01e00e13          	li	t3,30
    80c8:	11d19a63          	bne	gp,t4,81dc <fail>

000080cc <test_31>:
    80cc:	00000213          	li	tp,0
    80d0:	00d00113          	li	sp,13
    80d4:	01200093          	li	ra,18
    80d8:	00000013          	nop
    80dc:	00000013          	nop
    80e0:	0020a1b3          	slt	gp,ra,sp
    80e4:	00120213          	addi	tp,tp,1 # 1 <reset_vec+0x1>
    80e8:	00200293          	li	t0,2
    80ec:	fe5212e3          	bne	tp,t0,80d0 <test_31+0x4>
    80f0:	00000e93          	li	t4,0
    80f4:	01f00e13          	li	t3,31
    80f8:	0fd19263          	bne	gp,t4,81dc <fail>

000080fc <test_32>:
    80fc:	00000213          	li	tp,0
    8100:	00d00113          	li	sp,13
    8104:	00000013          	nop
    8108:	00700093          	li	ra,7
    810c:	0020a1b3          	slt	gp,ra,sp
    8110:	00120213          	addi	tp,tp,1 # 1 <reset_vec+0x1>
    8114:	00200293          	li	t0,2
    8118:	fe5214e3          	bne	tp,t0,8100 <test_32+0x4>
    811c:	00100e93          	li	t4,1
    8120:	02000e13          	li	t3,32
    8124:	0bd19c63          	bne	gp,t4,81dc <fail>

00008128 <test_33>:
    8128:	00000213          	li	tp,0
    812c:	00d00113          	li	sp,13
    8130:	00000013          	nop
    8134:	01300093          	li	ra,19
    8138:	00000013          	nop
    813c:	0020a1b3          	slt	gp,ra,sp
    8140:	00120213          	addi	tp,tp,1 # 1 <reset_vec+0x1>
    8144:	00200293          	li	t0,2
    8148:	fe5212e3          	bne	tp,t0,812c <test_33+0x4>
    814c:	00000e93          	li	t4,0
    8150:	02100e13          	li	t3,33
    8154:	09d19463          	bne	gp,t4,81dc <fail>

00008158 <test_34>:
    8158:	00000213          	li	tp,0
    815c:	00d00113          	li	sp,13
    8160:	00000013          	nop
    8164:	00000013          	nop
    8168:	00600093          	li	ra,6
    816c:	0020a1b3          	slt	gp,ra,sp
    8170:	00120213          	addi	tp,tp,1 # 1 <reset_vec+0x1>
    8174:	00200293          	li	t0,2
    8178:	fe5212e3          	bne	tp,t0,815c <test_34+0x4>
    817c:	00100e93          	li	t4,1
    8180:	02200e13          	li	t3,34
    8184:	05d19c63          	bne	gp,t4,81dc <fail>

00008188 <test_35>:
    8188:	fff00093          	li	ra,-1
    818c:	00102133          	sgtz	sp,ra
    8190:	00000e93          	li	t4,0
    8194:	02300e13          	li	t3,35
    8198:	05d11263          	bne	sp,t4,81dc <fail>

0000819c <test_36>:
    819c:	fff00093          	li	ra,-1
    81a0:	0000a133          	sltz	sp,ra
    81a4:	00100e93          	li	t4,1
    81a8:	02400e13          	li	t3,36
    81ac:	03d11863          	bne	sp,t4,81dc <fail>

000081b0 <test_37>:
    81b0:	000020b3          	sltz	ra,zero
    81b4:	00000e93          	li	t4,0
    81b8:	02500e13          	li	t3,37
    81bc:	03d09063          	bne	ra,t4,81dc <fail>

000081c0 <test_38>:
    81c0:	01000093          	li	ra,16
    81c4:	01e00113          	li	sp,30
    81c8:	0020a033          	slt	zero,ra,sp
    81cc:	00000e93          	li	t4,0
    81d0:	02600e13          	li	t3,38
    81d4:	01d01463          	bne	zero,t4,81dc <fail>
    81d8:	03c01a63          	bne	zero,t3,820c <pass>

000081dc <fail>:
    81dc:	10000537          	lui	a0,0x10000
    81e0:	04500593          	li	a1,69
    81e4:	05200613          	li	a2,82
    81e8:	04f00693          	li	a3,79
    81ec:	00a00713          	li	a4,10
    81f0:	00b52023          	sw	a1,0(a0) # 10000000 <end+0xfff3f28>
    81f4:	00c52023          	sw	a2,0(a0)
    81f8:	00c52023          	sw	a2,0(a0)
    81fc:	00d52023          	sw	a3,0(a0)
    8200:	00c52023          	sw	a2,0(a0)
    8204:	00e52023          	sw	a4,0(a0)
    8208:	00100073          	ebreak

0000820c <pass>:
    820c:	10000537          	lui	a0,0x10000
    8210:	04f00593          	li	a1,79
    8214:	04b00613          	li	a2,75
    8218:	00a00693          	li	a3,10
    821c:	00b52023          	sw	a1,0(a0) # 10000000 <end+0xfff3f28>
    8220:	00c52023          	sw	a2,0(a0)
    8224:	00d52023          	sw	a3,0(a0)
    8228:	bb0f806f          	j	5d8 <slt_ret>

0000822c <slti>:
    822c:	00008537          	lui	a0,0x8
    8230:	24c50513          	addi	a0,a0,588 # 824c <.test_name>
    8234:	10000637          	lui	a2,0x10000

00008238 <.prname_next>:
    8238:	00050583          	lb	a1,0(a0)
    823c:	00058c63          	beqz	a1,8254 <.prname_done>
    8240:	00b62023          	sw	a1,0(a2) # 10000000 <end+0xfff3f28>
    8244:	00150513          	addi	a0,a0,1
    8248:	ff1ff06f          	j	8238 <.prname_next>

0000824c <.test_name>:
    824c:	69746c73          	csrrsi	s8,0x697,8
    8250:	0000                	unimp
	...

00008254 <.prname_done>:
    8254:	02e00593          	li	a1,46
    8258:	00b62023          	sw	a1,0(a2)
    825c:	00b62023          	sw	a1,0(a2)

00008260 <test_2>:
    8260:	00000093          	li	ra,0
    8264:	0000a193          	slti	gp,ra,0
    8268:	00000e93          	li	t4,0
    826c:	00200e13          	li	t3,2
    8270:	27d19263          	bne	gp,t4,84d4 <fail>

00008274 <test_3>:
    8274:	00100093          	li	ra,1
    8278:	0010a193          	slti	gp,ra,1
    827c:	00000e93          	li	t4,0
    8280:	00300e13          	li	t3,3
    8284:	25d19863          	bne	gp,t4,84d4 <fail>

00008288 <test_4>:
    8288:	00300093          	li	ra,3
    828c:	0070a193          	slti	gp,ra,7
    8290:	00100e93          	li	t4,1
    8294:	00400e13          	li	t3,4
    8298:	23d19e63          	bne	gp,t4,84d4 <fail>

0000829c <test_5>:
    829c:	00700093          	li	ra,7
    82a0:	0030a193          	slti	gp,ra,3
    82a4:	00000e93          	li	t4,0
    82a8:	00500e13          	li	t3,5
    82ac:	23d19463          	bne	gp,t4,84d4 <fail>

000082b0 <test_6>:
    82b0:	00000093          	li	ra,0
    82b4:	8000a193          	slti	gp,ra,-2048
    82b8:	00000e93          	li	t4,0
    82bc:	00600e13          	li	t3,6
    82c0:	21d19a63          	bne	gp,t4,84d4 <fail>

000082c4 <test_7>:
    82c4:	800000b7          	lui	ra,0x80000
    82c8:	0000a193          	slti	gp,ra,0
    82cc:	00100e93          	li	t4,1
    82d0:	00700e13          	li	t3,7
    82d4:	21d19063          	bne	gp,t4,84d4 <fail>

000082d8 <test_8>:
    82d8:	800000b7          	lui	ra,0x80000
    82dc:	8000a193          	slti	gp,ra,-2048
    82e0:	00100e93          	li	t4,1
    82e4:	00800e13          	li	t3,8
    82e8:	1fd19663          	bne	gp,t4,84d4 <fail>

000082ec <test_9>:
    82ec:	00000093          	li	ra,0
    82f0:	7ff0a193          	slti	gp,ra,2047
    82f4:	00100e93          	li	t4,1
    82f8:	00900e13          	li	t3,9
    82fc:	1dd19c63          	bne	gp,t4,84d4 <fail>

00008300 <test_10>:
    8300:	800000b7          	lui	ra,0x80000
    8304:	fff08093          	addi	ra,ra,-1 # 7fffffff <end+0x7fff3f27>
    8308:	0000a193          	slti	gp,ra,0
    830c:	00000e93          	li	t4,0
    8310:	00a00e13          	li	t3,10
    8314:	1dd19063          	bne	gp,t4,84d4 <fail>

00008318 <test_11>:
    8318:	800000b7          	lui	ra,0x80000
    831c:	fff08093          	addi	ra,ra,-1 # 7fffffff <end+0x7fff3f27>
    8320:	7ff0a193          	slti	gp,ra,2047
    8324:	00000e93          	li	t4,0
    8328:	00b00e13          	li	t3,11
    832c:	1bd19463          	bne	gp,t4,84d4 <fail>

00008330 <test_12>:
    8330:	800000b7          	lui	ra,0x80000
    8334:	7ff0a193          	slti	gp,ra,2047
    8338:	00100e93          	li	t4,1
    833c:	00c00e13          	li	t3,12
    8340:	19d19a63          	bne	gp,t4,84d4 <fail>

00008344 <test_13>:
    8344:	800000b7          	lui	ra,0x80000
    8348:	fff08093          	addi	ra,ra,-1 # 7fffffff <end+0x7fff3f27>
    834c:	8000a193          	slti	gp,ra,-2048
    8350:	00000e93          	li	t4,0
    8354:	00d00e13          	li	t3,13
    8358:	17d19e63          	bne	gp,t4,84d4 <fail>

0000835c <test_14>:
    835c:	00000093          	li	ra,0
    8360:	fff0a193          	slti	gp,ra,-1
    8364:	00000e93          	li	t4,0
    8368:	00e00e13          	li	t3,14
    836c:	17d19463          	bne	gp,t4,84d4 <fail>

00008370 <test_15>:
    8370:	fff00093          	li	ra,-1
    8374:	0010a193          	slti	gp,ra,1
    8378:	00100e93          	li	t4,1
    837c:	00f00e13          	li	t3,15
    8380:	15d19a63          	bne	gp,t4,84d4 <fail>

00008384 <test_16>:
    8384:	fff00093          	li	ra,-1
    8388:	fff0a193          	slti	gp,ra,-1
    838c:	00000e93          	li	t4,0
    8390:	01000e13          	li	t3,16
    8394:	15d19063          	bne	gp,t4,84d4 <fail>

00008398 <test_17>:
    8398:	00b00093          	li	ra,11
    839c:	00d0b093          	sltiu	ra,ra,13
    83a0:	00100e93          	li	t4,1
    83a4:	01100e13          	li	t3,17
    83a8:	13d09663          	bne	ra,t4,84d4 <fail>

000083ac <test_18>:
    83ac:	00000213          	li	tp,0
    83b0:	00f00093          	li	ra,15
    83b4:	00a0a193          	slti	gp,ra,10
    83b8:	00018313          	mv	t1,gp
    83bc:	00120213          	addi	tp,tp,1 # 1 <reset_vec+0x1>
    83c0:	00200293          	li	t0,2
    83c4:	fe5216e3          	bne	tp,t0,83b0 <test_18+0x4>
    83c8:	00000e93          	li	t4,0
    83cc:	01200e13          	li	t3,18
    83d0:	11d31263          	bne	t1,t4,84d4 <fail>

000083d4 <test_19>:
    83d4:	00000213          	li	tp,0
    83d8:	00a00093          	li	ra,10
    83dc:	0100a193          	slti	gp,ra,16
    83e0:	00000013          	nop
    83e4:	00018313          	mv	t1,gp
    83e8:	00120213          	addi	tp,tp,1 # 1 <reset_vec+0x1>
    83ec:	00200293          	li	t0,2
    83f0:	fe5214e3          	bne	tp,t0,83d8 <test_19+0x4>
    83f4:	00100e93          	li	t4,1
    83f8:	01300e13          	li	t3,19
    83fc:	0dd31c63          	bne	t1,t4,84d4 <fail>

00008400 <test_20>:
    8400:	00000213          	li	tp,0
    8404:	01000093          	li	ra,16
    8408:	0090a193          	slti	gp,ra,9
    840c:	00000013          	nop
    8410:	00000013          	nop
    8414:	00018313          	mv	t1,gp
    8418:	00120213          	addi	tp,tp,1 # 1 <reset_vec+0x1>
    841c:	00200293          	li	t0,2
    8420:	fe5212e3          	bne	tp,t0,8404 <test_20+0x4>
    8424:	00000e93          	li	t4,0
    8428:	01400e13          	li	t3,20
    842c:	0bd31463          	bne	t1,t4,84d4 <fail>

00008430 <test_21>:
    8430:	00000213          	li	tp,0
    8434:	00b00093          	li	ra,11
    8438:	00f0a193          	slti	gp,ra,15
    843c:	00120213          	addi	tp,tp,1 # 1 <reset_vec+0x1>
    8440:	00200293          	li	t0,2
    8444:	fe5218e3          	bne	tp,t0,8434 <test_21+0x4>
    8448:	00100e93          	li	t4,1
    844c:	01500e13          	li	t3,21
    8450:	09d19263          	bne	gp,t4,84d4 <fail>

00008454 <test_22>:
    8454:	00000213          	li	tp,0
    8458:	01100093          	li	ra,17
    845c:	00000013          	nop
    8460:	0080a193          	slti	gp,ra,8
    8464:	00120213          	addi	tp,tp,1 # 1 <reset_vec+0x1>
    8468:	00200293          	li	t0,2
    846c:	fe5216e3          	bne	tp,t0,8458 <test_22+0x4>
    8470:	00000e93          	li	t4,0
    8474:	01600e13          	li	t3,22
    8478:	05d19e63          	bne	gp,t4,84d4 <fail>

0000847c <test_23>:
    847c:	00000213          	li	tp,0
    8480:	00c00093          	li	ra,12
    8484:	00000013          	nop
    8488:	00000013          	nop
    848c:	00e0a193          	slti	gp,ra,14
    8490:	00120213          	addi	tp,tp,1 # 1 <reset_vec+0x1>
    8494:	00200293          	li	t0,2
    8498:	fe5214e3          	bne	tp,t0,8480 <test_23+0x4>
    849c:	00100e93          	li	t4,1
    84a0:	01700e13          	li	t3,23
    84a4:	03d19863          	bne	gp,t4,84d4 <fail>

000084a8 <test_24>:
    84a8:	fff02093          	slti	ra,zero,-1
    84ac:	00000e93          	li	t4,0
    84b0:	01800e13          	li	t3,24
    84b4:	03d09063          	bne	ra,t4,84d4 <fail>

000084b8 <test_25>:
    84b8:	00ff00b7          	lui	ra,0xff0
    84bc:	0ff08093          	addi	ra,ra,255 # ff00ff <end+0xfe4027>
    84c0:	fff0a013          	slti	zero,ra,-1
    84c4:	00000e93          	li	t4,0
    84c8:	01900e13          	li	t3,25
    84cc:	01d01463          	bne	zero,t4,84d4 <fail>
    84d0:	03c01a63          	bne	zero,t3,8504 <pass>

000084d4 <fail>:
    84d4:	10000537          	lui	a0,0x10000
    84d8:	04500593          	li	a1,69
    84dc:	05200613          	li	a2,82
    84e0:	04f00693          	li	a3,79
    84e4:	00a00713          	li	a4,10
    84e8:	00b52023          	sw	a1,0(a0) # 10000000 <end+0xfff3f28>
    84ec:	00c52023          	sw	a2,0(a0)
    84f0:	00c52023          	sw	a2,0(a0)
    84f4:	00d52023          	sw	a3,0(a0)
    84f8:	00c52023          	sw	a2,0(a0)
    84fc:	00e52023          	sw	a4,0(a0)
    8500:	00100073          	ebreak

00008504 <pass>:
    8504:	10000537          	lui	a0,0x10000
    8508:	04f00593          	li	a1,79
    850c:	04b00613          	li	a2,75
    8510:	00a00693          	li	a3,10
    8514:	00b52023          	sw	a1,0(a0) # 10000000 <end+0xfff3f28>
    8518:	00c52023          	sw	a2,0(a0)
    851c:	00d52023          	sw	a3,0(a0)
    8520:	840f806f          	j	560 <slti_ret>

00008524 <sra>:
    8524:	00008537          	lui	a0,0x8
    8528:	54450513          	addi	a0,a0,1348 # 8544 <.test_name>
    852c:	10000637          	lui	a2,0x10000

00008530 <.prname_next>:
    8530:	00050583          	lb	a1,0(a0)
    8534:	00058a63          	beqz	a1,8548 <.prname_done>
    8538:	00b62023          	sw	a1,0(a2) # 10000000 <end+0xfff3f28>
    853c:	00150513          	addi	a0,a0,1
    8540:	ff1ff06f          	j	8530 <.prname_next>

00008544 <.test_name>:
    8544:	00617273          	csrrci	tp,0x6,2

00008548 <.prname_done>:
    8548:	02e00593          	li	a1,46
    854c:	00b62023          	sw	a1,0(a2)
    8550:	00b62023          	sw	a1,0(a2)

00008554 <test_2>:
    8554:	800000b7          	lui	ra,0x80000
    8558:	00000113          	li	sp,0
    855c:	4020d1b3          	sra	gp,ra,sp
    8560:	80000eb7          	lui	t4,0x80000
    8564:	00200e13          	li	t3,2
    8568:	59d19463          	bne	gp,t4,8af0 <fail>

0000856c <test_3>:
    856c:	800000b7          	lui	ra,0x80000
    8570:	00100113          	li	sp,1
    8574:	4020d1b3          	sra	gp,ra,sp
    8578:	c0000eb7          	lui	t4,0xc0000
    857c:	00300e13          	li	t3,3
    8580:	57d19863          	bne	gp,t4,8af0 <fail>

00008584 <test_4>:
    8584:	800000b7          	lui	ra,0x80000
    8588:	00700113          	li	sp,7
    858c:	4020d1b3          	sra	gp,ra,sp
    8590:	ff000eb7          	lui	t4,0xff000
    8594:	00400e13          	li	t3,4
    8598:	55d19c63          	bne	gp,t4,8af0 <fail>

0000859c <test_5>:
    859c:	800000b7          	lui	ra,0x80000
    85a0:	00e00113          	li	sp,14
    85a4:	4020d1b3          	sra	gp,ra,sp
    85a8:	fffe0eb7          	lui	t4,0xfffe0
    85ac:	00500e13          	li	t3,5
    85b0:	55d19063          	bne	gp,t4,8af0 <fail>

000085b4 <test_6>:
    85b4:	800000b7          	lui	ra,0x80000
    85b8:	00108093          	addi	ra,ra,1 # 80000001 <end+0x7fff3f29>
    85bc:	01f00113          	li	sp,31
    85c0:	4020d1b3          	sra	gp,ra,sp
    85c4:	fff00e93          	li	t4,-1
    85c8:	00600e13          	li	t3,6
    85cc:	53d19263          	bne	gp,t4,8af0 <fail>

000085d0 <test_7>:
    85d0:	800000b7          	lui	ra,0x80000
    85d4:	fff08093          	addi	ra,ra,-1 # 7fffffff <end+0x7fff3f27>
    85d8:	00000113          	li	sp,0
    85dc:	4020d1b3          	sra	gp,ra,sp
    85e0:	80000eb7          	lui	t4,0x80000
    85e4:	fffe8e93          	addi	t4,t4,-1 # 7fffffff <end+0x7fff3f27>
    85e8:	00700e13          	li	t3,7
    85ec:	51d19263          	bne	gp,t4,8af0 <fail>

000085f0 <test_8>:
    85f0:	800000b7          	lui	ra,0x80000
    85f4:	fff08093          	addi	ra,ra,-1 # 7fffffff <end+0x7fff3f27>
    85f8:	00100113          	li	sp,1
    85fc:	4020d1b3          	sra	gp,ra,sp
    8600:	40000eb7          	lui	t4,0x40000
    8604:	fffe8e93          	addi	t4,t4,-1 # 3fffffff <end+0x3fff3f27>
    8608:	00800e13          	li	t3,8
    860c:	4fd19263          	bne	gp,t4,8af0 <fail>

00008610 <test_9>:
    8610:	800000b7          	lui	ra,0x80000
    8614:	fff08093          	addi	ra,ra,-1 # 7fffffff <end+0x7fff3f27>
    8618:	00700113          	li	sp,7
    861c:	4020d1b3          	sra	gp,ra,sp
    8620:	01000eb7          	lui	t4,0x1000
    8624:	fffe8e93          	addi	t4,t4,-1 # ffffff <end+0xff3f27>
    8628:	00900e13          	li	t3,9
    862c:	4dd19263          	bne	gp,t4,8af0 <fail>

00008630 <test_10>:
    8630:	800000b7          	lui	ra,0x80000
    8634:	fff08093          	addi	ra,ra,-1 # 7fffffff <end+0x7fff3f27>
    8638:	00e00113          	li	sp,14
    863c:	4020d1b3          	sra	gp,ra,sp
    8640:	00020eb7          	lui	t4,0x20
    8644:	fffe8e93          	addi	t4,t4,-1 # 1ffff <end+0x13f27>
    8648:	00a00e13          	li	t3,10
    864c:	4bd19263          	bne	gp,t4,8af0 <fail>

00008650 <test_11>:
    8650:	800000b7          	lui	ra,0x80000
    8654:	fff08093          	addi	ra,ra,-1 # 7fffffff <end+0x7fff3f27>
    8658:	01f00113          	li	sp,31
    865c:	4020d1b3          	sra	gp,ra,sp
    8660:	00000e93          	li	t4,0
    8664:	00b00e13          	li	t3,11
    8668:	49d19463          	bne	gp,t4,8af0 <fail>

0000866c <test_12>:
    866c:	818180b7          	lui	ra,0x81818
    8670:	18108093          	addi	ra,ra,385 # 81818181 <end+0x8180c0a9>
    8674:	00000113          	li	sp,0
    8678:	4020d1b3          	sra	gp,ra,sp
    867c:	81818eb7          	lui	t4,0x81818
    8680:	181e8e93          	addi	t4,t4,385 # 81818181 <end+0x8180c0a9>
    8684:	00c00e13          	li	t3,12
    8688:	47d19463          	bne	gp,t4,8af0 <fail>

0000868c <test_13>:
    868c:	818180b7          	lui	ra,0x81818
    8690:	18108093          	addi	ra,ra,385 # 81818181 <end+0x8180c0a9>
    8694:	00100113          	li	sp,1
    8698:	4020d1b3          	sra	gp,ra,sp
    869c:	c0c0ceb7          	lui	t4,0xc0c0c
    86a0:	0c0e8e93          	addi	t4,t4,192 # c0c0c0c0 <end+0xc0bfffe8>
    86a4:	00d00e13          	li	t3,13
    86a8:	45d19463          	bne	gp,t4,8af0 <fail>

000086ac <test_14>:
    86ac:	818180b7          	lui	ra,0x81818
    86b0:	18108093          	addi	ra,ra,385 # 81818181 <end+0x8180c0a9>
    86b4:	00700113          	li	sp,7
    86b8:	4020d1b3          	sra	gp,ra,sp
    86bc:	ff030eb7          	lui	t4,0xff030
    86c0:	303e8e93          	addi	t4,t4,771 # ff030303 <end+0xff02422b>
    86c4:	00e00e13          	li	t3,14
    86c8:	43d19463          	bne	gp,t4,8af0 <fail>

000086cc <test_15>:
    86cc:	818180b7          	lui	ra,0x81818
    86d0:	18108093          	addi	ra,ra,385 # 81818181 <end+0x8180c0a9>
    86d4:	00e00113          	li	sp,14
    86d8:	4020d1b3          	sra	gp,ra,sp
    86dc:	fffe0eb7          	lui	t4,0xfffe0
    86e0:	606e8e93          	addi	t4,t4,1542 # fffe0606 <end+0xfffd452e>
    86e4:	00f00e13          	li	t3,15
    86e8:	41d19463          	bne	gp,t4,8af0 <fail>

000086ec <test_16>:
    86ec:	818180b7          	lui	ra,0x81818
    86f0:	18108093          	addi	ra,ra,385 # 81818181 <end+0x8180c0a9>
    86f4:	01f00113          	li	sp,31
    86f8:	4020d1b3          	sra	gp,ra,sp
    86fc:	fff00e93          	li	t4,-1
    8700:	01000e13          	li	t3,16
    8704:	3fd19663          	bne	gp,t4,8af0 <fail>

00008708 <test_17>:
    8708:	818180b7          	lui	ra,0x81818
    870c:	18108093          	addi	ra,ra,385 # 81818181 <end+0x8180c0a9>
    8710:	fc000113          	li	sp,-64
    8714:	4020d1b3          	sra	gp,ra,sp
    8718:	81818eb7          	lui	t4,0x81818
    871c:	181e8e93          	addi	t4,t4,385 # 81818181 <end+0x8180c0a9>
    8720:	01100e13          	li	t3,17
    8724:	3dd19663          	bne	gp,t4,8af0 <fail>

00008728 <test_18>:
    8728:	818180b7          	lui	ra,0x81818
    872c:	18108093          	addi	ra,ra,385 # 81818181 <end+0x8180c0a9>
    8730:	fc100113          	li	sp,-63
    8734:	4020d1b3          	sra	gp,ra,sp
    8738:	c0c0ceb7          	lui	t4,0xc0c0c
    873c:	0c0e8e93          	addi	t4,t4,192 # c0c0c0c0 <end+0xc0bfffe8>
    8740:	01200e13          	li	t3,18
    8744:	3bd19663          	bne	gp,t4,8af0 <fail>

00008748 <test_19>:
    8748:	818180b7          	lui	ra,0x81818
    874c:	18108093          	addi	ra,ra,385 # 81818181 <end+0x8180c0a9>
    8750:	fc700113          	li	sp,-57
    8754:	4020d1b3          	sra	gp,ra,sp
    8758:	ff030eb7          	lui	t4,0xff030
    875c:	303e8e93          	addi	t4,t4,771 # ff030303 <end+0xff02422b>
    8760:	01300e13          	li	t3,19
    8764:	39d19663          	bne	gp,t4,8af0 <fail>

00008768 <test_20>:
    8768:	818180b7          	lui	ra,0x81818
    876c:	18108093          	addi	ra,ra,385 # 81818181 <end+0x8180c0a9>
    8770:	fce00113          	li	sp,-50
    8774:	4020d1b3          	sra	gp,ra,sp
    8778:	fffe0eb7          	lui	t4,0xfffe0
    877c:	606e8e93          	addi	t4,t4,1542 # fffe0606 <end+0xfffd452e>
    8780:	01400e13          	li	t3,20
    8784:	37d19663          	bne	gp,t4,8af0 <fail>

00008788 <test_21>:
    8788:	818180b7          	lui	ra,0x81818
    878c:	18108093          	addi	ra,ra,385 # 81818181 <end+0x8180c0a9>
    8790:	fff00113          	li	sp,-1
    8794:	4020d1b3          	sra	gp,ra,sp
    8798:	fff00e93          	li	t4,-1
    879c:	01500e13          	li	t3,21
    87a0:	35d19863          	bne	gp,t4,8af0 <fail>

000087a4 <test_22>:
    87a4:	800000b7          	lui	ra,0x80000
    87a8:	00700113          	li	sp,7
    87ac:	4020d0b3          	sra	ra,ra,sp
    87b0:	ff000eb7          	lui	t4,0xff000
    87b4:	01600e13          	li	t3,22
    87b8:	33d09c63          	bne	ra,t4,8af0 <fail>

000087bc <test_23>:
    87bc:	800000b7          	lui	ra,0x80000
    87c0:	00e00113          	li	sp,14
    87c4:	4020d133          	sra	sp,ra,sp
    87c8:	fffe0eb7          	lui	t4,0xfffe0
    87cc:	01700e13          	li	t3,23
    87d0:	33d11063          	bne	sp,t4,8af0 <fail>

000087d4 <test_24>:
    87d4:	00700093          	li	ra,7
    87d8:	4010d0b3          	sra	ra,ra,ra
    87dc:	00000e93          	li	t4,0
    87e0:	01800e13          	li	t3,24
    87e4:	31d09663          	bne	ra,t4,8af0 <fail>

000087e8 <test_25>:
    87e8:	00000213          	li	tp,0
    87ec:	800000b7          	lui	ra,0x80000
    87f0:	00700113          	li	sp,7
    87f4:	4020d1b3          	sra	gp,ra,sp
    87f8:	00018313          	mv	t1,gp
    87fc:	00120213          	addi	tp,tp,1 # 1 <reset_vec+0x1>
    8800:	00200293          	li	t0,2
    8804:	fe5214e3          	bne	tp,t0,87ec <test_25+0x4>
    8808:	ff000eb7          	lui	t4,0xff000
    880c:	01900e13          	li	t3,25
    8810:	2fd31063          	bne	t1,t4,8af0 <fail>

00008814 <test_26>:
    8814:	00000213          	li	tp,0
    8818:	800000b7          	lui	ra,0x80000
    881c:	00e00113          	li	sp,14
    8820:	4020d1b3          	sra	gp,ra,sp
    8824:	00000013          	nop
    8828:	00018313          	mv	t1,gp
    882c:	00120213          	addi	tp,tp,1 # 1 <reset_vec+0x1>
    8830:	00200293          	li	t0,2
    8834:	fe5212e3          	bne	tp,t0,8818 <test_26+0x4>
    8838:	fffe0eb7          	lui	t4,0xfffe0
    883c:	01a00e13          	li	t3,26
    8840:	2bd31863          	bne	t1,t4,8af0 <fail>

00008844 <test_27>:
    8844:	00000213          	li	tp,0
    8848:	800000b7          	lui	ra,0x80000
    884c:	01f00113          	li	sp,31
    8850:	4020d1b3          	sra	gp,ra,sp
    8854:	00000013          	nop
    8858:	00000013          	nop
    885c:	00018313          	mv	t1,gp
    8860:	00120213          	addi	tp,tp,1 # 1 <reset_vec+0x1>
    8864:	00200293          	li	t0,2
    8868:	fe5210e3          	bne	tp,t0,8848 <test_27+0x4>
    886c:	fff00e93          	li	t4,-1
    8870:	01b00e13          	li	t3,27
    8874:	27d31e63          	bne	t1,t4,8af0 <fail>

00008878 <test_28>:
    8878:	00000213          	li	tp,0
    887c:	800000b7          	lui	ra,0x80000
    8880:	00700113          	li	sp,7
    8884:	4020d1b3          	sra	gp,ra,sp
    8888:	00120213          	addi	tp,tp,1 # 1 <reset_vec+0x1>
    888c:	00200293          	li	t0,2
    8890:	fe5216e3          	bne	tp,t0,887c <test_28+0x4>
    8894:	ff000eb7          	lui	t4,0xff000
    8898:	01c00e13          	li	t3,28
    889c:	25d19a63          	bne	gp,t4,8af0 <fail>

000088a0 <test_29>:
    88a0:	00000213          	li	tp,0
    88a4:	800000b7          	lui	ra,0x80000
    88a8:	00e00113          	li	sp,14
    88ac:	00000013          	nop
    88b0:	4020d1b3          	sra	gp,ra,sp
    88b4:	00120213          	addi	tp,tp,1 # 1 <reset_vec+0x1>
    88b8:	00200293          	li	t0,2
    88bc:	fe5214e3          	bne	tp,t0,88a4 <test_29+0x4>
    88c0:	fffe0eb7          	lui	t4,0xfffe0
    88c4:	01d00e13          	li	t3,29
    88c8:	23d19463          	bne	gp,t4,8af0 <fail>

000088cc <test_30>:
    88cc:	00000213          	li	tp,0
    88d0:	800000b7          	lui	ra,0x80000
    88d4:	01f00113          	li	sp,31
    88d8:	00000013          	nop
    88dc:	00000013          	nop
    88e0:	4020d1b3          	sra	gp,ra,sp
    88e4:	00120213          	addi	tp,tp,1 # 1 <reset_vec+0x1>
    88e8:	00200293          	li	t0,2
    88ec:	fe5212e3          	bne	tp,t0,88d0 <test_30+0x4>
    88f0:	fff00e93          	li	t4,-1
    88f4:	01e00e13          	li	t3,30
    88f8:	1fd19c63          	bne	gp,t4,8af0 <fail>

000088fc <test_31>:
    88fc:	00000213          	li	tp,0
    8900:	800000b7          	lui	ra,0x80000
    8904:	00000013          	nop
    8908:	00700113          	li	sp,7
    890c:	4020d1b3          	sra	gp,ra,sp
    8910:	00120213          	addi	tp,tp,1 # 1 <reset_vec+0x1>
    8914:	00200293          	li	t0,2
    8918:	fe5214e3          	bne	tp,t0,8900 <test_31+0x4>
    891c:	ff000eb7          	lui	t4,0xff000
    8920:	01f00e13          	li	t3,31
    8924:	1dd19663          	bne	gp,t4,8af0 <fail>

00008928 <test_32>:
    8928:	00000213          	li	tp,0
    892c:	800000b7          	lui	ra,0x80000
    8930:	00000013          	nop
    8934:	00e00113          	li	sp,14
    8938:	00000013          	nop
    893c:	4020d1b3          	sra	gp,ra,sp
    8940:	00120213          	addi	tp,tp,1 # 1 <reset_vec+0x1>
    8944:	00200293          	li	t0,2
    8948:	fe5212e3          	bne	tp,t0,892c <test_32+0x4>
    894c:	fffe0eb7          	lui	t4,0xfffe0
    8950:	02000e13          	li	t3,32
    8954:	19d19e63          	bne	gp,t4,8af0 <fail>

00008958 <test_33>:
    8958:	00000213          	li	tp,0
    895c:	800000b7          	lui	ra,0x80000
    8960:	00000013          	nop
    8964:	00000013          	nop
    8968:	01f00113          	li	sp,31
    896c:	4020d1b3          	sra	gp,ra,sp
    8970:	00120213          	addi	tp,tp,1 # 1 <reset_vec+0x1>
    8974:	00200293          	li	t0,2
    8978:	fe5212e3          	bne	tp,t0,895c <test_33+0x4>
    897c:	fff00e93          	li	t4,-1
    8980:	02100e13          	li	t3,33
    8984:	17d19663          	bne	gp,t4,8af0 <fail>

00008988 <test_34>:
    8988:	00000213          	li	tp,0
    898c:	00700113          	li	sp,7
    8990:	800000b7          	lui	ra,0x80000
    8994:	4020d1b3          	sra	gp,ra,sp
    8998:	00120213          	addi	tp,tp,1 # 1 <reset_vec+0x1>
    899c:	00200293          	li	t0,2
    89a0:	fe5216e3          	bne	tp,t0,898c <test_34+0x4>
    89a4:	ff000eb7          	lui	t4,0xff000
    89a8:	02200e13          	li	t3,34
    89ac:	15d19263          	bne	gp,t4,8af0 <fail>

000089b0 <test_35>:
    89b0:	00000213          	li	tp,0
    89b4:	00e00113          	li	sp,14
    89b8:	800000b7          	lui	ra,0x80000
    89bc:	00000013          	nop
    89c0:	4020d1b3          	sra	gp,ra,sp
    89c4:	00120213          	addi	tp,tp,1 # 1 <reset_vec+0x1>
    89c8:	00200293          	li	t0,2
    89cc:	fe5214e3          	bne	tp,t0,89b4 <test_35+0x4>
    89d0:	fffe0eb7          	lui	t4,0xfffe0
    89d4:	02300e13          	li	t3,35
    89d8:	11d19c63          	bne	gp,t4,8af0 <fail>

000089dc <test_36>:
    89dc:	00000213          	li	tp,0
    89e0:	01f00113          	li	sp,31
    89e4:	800000b7          	lui	ra,0x80000
    89e8:	00000013          	nop
    89ec:	00000013          	nop
    89f0:	4020d1b3          	sra	gp,ra,sp
    89f4:	00120213          	addi	tp,tp,1 # 1 <reset_vec+0x1>
    89f8:	00200293          	li	t0,2
    89fc:	fe5212e3          	bne	tp,t0,89e0 <test_36+0x4>
    8a00:	fff00e93          	li	t4,-1
    8a04:	02400e13          	li	t3,36
    8a08:	0fd19463          	bne	gp,t4,8af0 <fail>

00008a0c <test_37>:
    8a0c:	00000213          	li	tp,0
    8a10:	00700113          	li	sp,7
    8a14:	00000013          	nop
    8a18:	800000b7          	lui	ra,0x80000
    8a1c:	4020d1b3          	sra	gp,ra,sp
    8a20:	00120213          	addi	tp,tp,1 # 1 <reset_vec+0x1>
    8a24:	00200293          	li	t0,2
    8a28:	fe5214e3          	bne	tp,t0,8a10 <test_37+0x4>
    8a2c:	ff000eb7          	lui	t4,0xff000
    8a30:	02500e13          	li	t3,37
    8a34:	0bd19e63          	bne	gp,t4,8af0 <fail>

00008a38 <test_38>:
    8a38:	00000213          	li	tp,0
    8a3c:	00e00113          	li	sp,14
    8a40:	00000013          	nop
    8a44:	800000b7          	lui	ra,0x80000
    8a48:	00000013          	nop
    8a4c:	4020d1b3          	sra	gp,ra,sp
    8a50:	00120213          	addi	tp,tp,1 # 1 <reset_vec+0x1>
    8a54:	00200293          	li	t0,2
    8a58:	fe5212e3          	bne	tp,t0,8a3c <test_38+0x4>
    8a5c:	fffe0eb7          	lui	t4,0xfffe0
    8a60:	02600e13          	li	t3,38
    8a64:	09d19663          	bne	gp,t4,8af0 <fail>

00008a68 <test_39>:
    8a68:	00000213          	li	tp,0
    8a6c:	01f00113          	li	sp,31
    8a70:	00000013          	nop
    8a74:	00000013          	nop
    8a78:	800000b7          	lui	ra,0x80000
    8a7c:	4020d1b3          	sra	gp,ra,sp
    8a80:	00120213          	addi	tp,tp,1 # 1 <reset_vec+0x1>
    8a84:	00200293          	li	t0,2
    8a88:	fe5212e3          	bne	tp,t0,8a6c <test_39+0x4>
    8a8c:	fff00e93          	li	t4,-1
    8a90:	02700e13          	li	t3,39
    8a94:	05d19e63          	bne	gp,t4,8af0 <fail>

00008a98 <test_40>:
    8a98:	00f00093          	li	ra,15
    8a9c:	40105133          	sra	sp,zero,ra
    8aa0:	00000e93          	li	t4,0
    8aa4:	02800e13          	li	t3,40
    8aa8:	05d11463          	bne	sp,t4,8af0 <fail>

00008aac <test_41>:
    8aac:	02000093          	li	ra,32
    8ab0:	4000d133          	sra	sp,ra,zero
    8ab4:	02000e93          	li	t4,32
    8ab8:	02900e13          	li	t3,41
    8abc:	03d11a63          	bne	sp,t4,8af0 <fail>

00008ac0 <test_42>:
    8ac0:	400050b3          	sra	ra,zero,zero
    8ac4:	00000e93          	li	t4,0
    8ac8:	02a00e13          	li	t3,42
    8acc:	03d09263          	bne	ra,t4,8af0 <fail>

00008ad0 <test_43>:
    8ad0:	40000093          	li	ra,1024
    8ad4:	00001137          	lui	sp,0x1
    8ad8:	80010113          	addi	sp,sp,-2048 # 800 <irq+0xf8>
    8adc:	4020d033          	sra	zero,ra,sp
    8ae0:	00000e93          	li	t4,0
    8ae4:	02b00e13          	li	t3,43
    8ae8:	01d01463          	bne	zero,t4,8af0 <fail>
    8aec:	03c01a63          	bne	zero,t3,8b20 <pass>

00008af0 <fail>:
    8af0:	10000537          	lui	a0,0x10000
    8af4:	04500593          	li	a1,69
    8af8:	05200613          	li	a2,82
    8afc:	04f00693          	li	a3,79
    8b00:	00a00713          	li	a4,10
    8b04:	00b52023          	sw	a1,0(a0) # 10000000 <end+0xfff3f28>
    8b08:	00c52023          	sw	a2,0(a0)
    8b0c:	00c52023          	sw	a2,0(a0)
    8b10:	00d52023          	sw	a3,0(a0)
    8b14:	00c52023          	sw	a2,0(a0)
    8b18:	00e52023          	sw	a4,0(a0)
    8b1c:	00100073          	ebreak

00008b20 <pass>:
    8b20:	10000537          	lui	a0,0x10000
    8b24:	04f00593          	li	a1,79
    8b28:	04b00613          	li	a2,75
    8b2c:	00a00693          	li	a3,10
    8b30:	00b52023          	sw	a1,0(a0) # 10000000 <end+0xfff3f28>
    8b34:	00c52023          	sw	a2,0(a0)
    8b38:	00d52023          	sw	a3,0(a0)
    8b3c:	ac1f706f          	j	5fc <sra_ret>

00008b40 <srai>:
    8b40:	00009537          	lui	a0,0x9
    8b44:	b6050513          	addi	a0,a0,-1184 # 8b60 <.test_name>
    8b48:	10000637          	lui	a2,0x10000

00008b4c <.prname_next>:
    8b4c:	00050583          	lb	a1,0(a0)
    8b50:	00058c63          	beqz	a1,8b68 <.prname_done>
    8b54:	00b62023          	sw	a1,0(a2) # 10000000 <end+0xfff3f28>
    8b58:	00150513          	addi	a0,a0,1
    8b5c:	ff1ff06f          	j	8b4c <.prname_next>

00008b60 <.test_name>:
    8b60:	69617273          	csrrci	tp,0x696,2
    8b64:	0000                	unimp
	...

00008b68 <.prname_done>:
    8b68:	02e00593          	li	a1,46
    8b6c:	00b62023          	sw	a1,0(a2)
    8b70:	00b62023          	sw	a1,0(a2)

00008b74 <test_2>:
    8b74:	00000093          	li	ra,0
    8b78:	4000d193          	srai	gp,ra,0x0
    8b7c:	00000e93          	li	t4,0
    8b80:	00200e13          	li	t3,2
    8b84:	2bd19463          	bne	gp,t4,8e2c <fail>

00008b88 <test_3>:
    8b88:	800000b7          	lui	ra,0x80000
    8b8c:	4010d193          	srai	gp,ra,0x1
    8b90:	c0000eb7          	lui	t4,0xc0000
    8b94:	00300e13          	li	t3,3
    8b98:	29d19a63          	bne	gp,t4,8e2c <fail>

00008b9c <test_4>:
    8b9c:	800000b7          	lui	ra,0x80000
    8ba0:	4070d193          	srai	gp,ra,0x7
    8ba4:	ff000eb7          	lui	t4,0xff000
    8ba8:	00400e13          	li	t3,4
    8bac:	29d19063          	bne	gp,t4,8e2c <fail>

00008bb0 <test_5>:
    8bb0:	800000b7          	lui	ra,0x80000
    8bb4:	40e0d193          	srai	gp,ra,0xe
    8bb8:	fffe0eb7          	lui	t4,0xfffe0
    8bbc:	00500e13          	li	t3,5
    8bc0:	27d19663          	bne	gp,t4,8e2c <fail>

00008bc4 <test_6>:
    8bc4:	800000b7          	lui	ra,0x80000
    8bc8:	00108093          	addi	ra,ra,1 # 80000001 <end+0x7fff3f29>
    8bcc:	41f0d193          	srai	gp,ra,0x1f
    8bd0:	fff00e93          	li	t4,-1
    8bd4:	00600e13          	li	t3,6
    8bd8:	25d19a63          	bne	gp,t4,8e2c <fail>

00008bdc <test_7>:
    8bdc:	800000b7          	lui	ra,0x80000
    8be0:	fff08093          	addi	ra,ra,-1 # 7fffffff <end+0x7fff3f27>
    8be4:	4000d193          	srai	gp,ra,0x0
    8be8:	80000eb7          	lui	t4,0x80000
    8bec:	fffe8e93          	addi	t4,t4,-1 # 7fffffff <end+0x7fff3f27>
    8bf0:	00700e13          	li	t3,7
    8bf4:	23d19c63          	bne	gp,t4,8e2c <fail>

00008bf8 <test_8>:
    8bf8:	800000b7          	lui	ra,0x80000
    8bfc:	fff08093          	addi	ra,ra,-1 # 7fffffff <end+0x7fff3f27>
    8c00:	4010d193          	srai	gp,ra,0x1
    8c04:	40000eb7          	lui	t4,0x40000
    8c08:	fffe8e93          	addi	t4,t4,-1 # 3fffffff <end+0x3fff3f27>
    8c0c:	00800e13          	li	t3,8
    8c10:	21d19e63          	bne	gp,t4,8e2c <fail>

00008c14 <test_9>:
    8c14:	800000b7          	lui	ra,0x80000
    8c18:	fff08093          	addi	ra,ra,-1 # 7fffffff <end+0x7fff3f27>
    8c1c:	4070d193          	srai	gp,ra,0x7
    8c20:	01000eb7          	lui	t4,0x1000
    8c24:	fffe8e93          	addi	t4,t4,-1 # ffffff <end+0xff3f27>
    8c28:	00900e13          	li	t3,9
    8c2c:	21d19063          	bne	gp,t4,8e2c <fail>

00008c30 <test_10>:
    8c30:	800000b7          	lui	ra,0x80000
    8c34:	fff08093          	addi	ra,ra,-1 # 7fffffff <end+0x7fff3f27>
    8c38:	40e0d193          	srai	gp,ra,0xe
    8c3c:	00020eb7          	lui	t4,0x20
    8c40:	fffe8e93          	addi	t4,t4,-1 # 1ffff <end+0x13f27>
    8c44:	00a00e13          	li	t3,10
    8c48:	1fd19263          	bne	gp,t4,8e2c <fail>

00008c4c <test_11>:
    8c4c:	800000b7          	lui	ra,0x80000
    8c50:	fff08093          	addi	ra,ra,-1 # 7fffffff <end+0x7fff3f27>
    8c54:	41f0d193          	srai	gp,ra,0x1f
    8c58:	00000e93          	li	t4,0
    8c5c:	00b00e13          	li	t3,11
    8c60:	1dd19663          	bne	gp,t4,8e2c <fail>

00008c64 <test_12>:
    8c64:	818180b7          	lui	ra,0x81818
    8c68:	18108093          	addi	ra,ra,385 # 81818181 <end+0x8180c0a9>
    8c6c:	4000d193          	srai	gp,ra,0x0
    8c70:	81818eb7          	lui	t4,0x81818
    8c74:	181e8e93          	addi	t4,t4,385 # 81818181 <end+0x8180c0a9>
    8c78:	00c00e13          	li	t3,12
    8c7c:	1bd19863          	bne	gp,t4,8e2c <fail>

00008c80 <test_13>:
    8c80:	818180b7          	lui	ra,0x81818
    8c84:	18108093          	addi	ra,ra,385 # 81818181 <end+0x8180c0a9>
    8c88:	4010d193          	srai	gp,ra,0x1
    8c8c:	c0c0ceb7          	lui	t4,0xc0c0c
    8c90:	0c0e8e93          	addi	t4,t4,192 # c0c0c0c0 <end+0xc0bfffe8>
    8c94:	00d00e13          	li	t3,13
    8c98:	19d19a63          	bne	gp,t4,8e2c <fail>

00008c9c <test_14>:
    8c9c:	818180b7          	lui	ra,0x81818
    8ca0:	18108093          	addi	ra,ra,385 # 81818181 <end+0x8180c0a9>
    8ca4:	4070d193          	srai	gp,ra,0x7
    8ca8:	ff030eb7          	lui	t4,0xff030
    8cac:	303e8e93          	addi	t4,t4,771 # ff030303 <end+0xff02422b>
    8cb0:	00e00e13          	li	t3,14
    8cb4:	17d19c63          	bne	gp,t4,8e2c <fail>

00008cb8 <test_15>:
    8cb8:	818180b7          	lui	ra,0x81818
    8cbc:	18108093          	addi	ra,ra,385 # 81818181 <end+0x8180c0a9>
    8cc0:	40e0d193          	srai	gp,ra,0xe
    8cc4:	fffe0eb7          	lui	t4,0xfffe0
    8cc8:	606e8e93          	addi	t4,t4,1542 # fffe0606 <end+0xfffd452e>
    8ccc:	00f00e13          	li	t3,15
    8cd0:	15d19e63          	bne	gp,t4,8e2c <fail>

00008cd4 <test_16>:
    8cd4:	818180b7          	lui	ra,0x81818
    8cd8:	18108093          	addi	ra,ra,385 # 81818181 <end+0x8180c0a9>
    8cdc:	41f0d193          	srai	gp,ra,0x1f
    8ce0:	fff00e93          	li	t4,-1
    8ce4:	01000e13          	li	t3,16
    8ce8:	15d19263          	bne	gp,t4,8e2c <fail>

00008cec <test_17>:
    8cec:	800000b7          	lui	ra,0x80000
    8cf0:	4070d093          	srai	ra,ra,0x7
    8cf4:	ff000eb7          	lui	t4,0xff000
    8cf8:	01100e13          	li	t3,17
    8cfc:	13d09863          	bne	ra,t4,8e2c <fail>

00008d00 <test_18>:
    8d00:	00000213          	li	tp,0
    8d04:	800000b7          	lui	ra,0x80000
    8d08:	4070d193          	srai	gp,ra,0x7
    8d0c:	00018313          	mv	t1,gp
    8d10:	00120213          	addi	tp,tp,1 # 1 <reset_vec+0x1>
    8d14:	00200293          	li	t0,2
    8d18:	fe5216e3          	bne	tp,t0,8d04 <test_18+0x4>
    8d1c:	ff000eb7          	lui	t4,0xff000
    8d20:	01200e13          	li	t3,18
    8d24:	11d31463          	bne	t1,t4,8e2c <fail>

00008d28 <test_19>:
    8d28:	00000213          	li	tp,0
    8d2c:	800000b7          	lui	ra,0x80000
    8d30:	40e0d193          	srai	gp,ra,0xe
    8d34:	00000013          	nop
    8d38:	00018313          	mv	t1,gp
    8d3c:	00120213          	addi	tp,tp,1 # 1 <reset_vec+0x1>
    8d40:	00200293          	li	t0,2
    8d44:	fe5214e3          	bne	tp,t0,8d2c <test_19+0x4>
    8d48:	fffe0eb7          	lui	t4,0xfffe0
    8d4c:	01300e13          	li	t3,19
    8d50:	0dd31e63          	bne	t1,t4,8e2c <fail>

00008d54 <test_20>:
    8d54:	00000213          	li	tp,0
    8d58:	800000b7          	lui	ra,0x80000
    8d5c:	00108093          	addi	ra,ra,1 # 80000001 <end+0x7fff3f29>
    8d60:	41f0d193          	srai	gp,ra,0x1f
    8d64:	00000013          	nop
    8d68:	00000013          	nop
    8d6c:	00018313          	mv	t1,gp
    8d70:	00120213          	addi	tp,tp,1 # 1 <reset_vec+0x1>
    8d74:	00200293          	li	t0,2
    8d78:	fe5210e3          	bne	tp,t0,8d58 <test_20+0x4>
    8d7c:	fff00e93          	li	t4,-1
    8d80:	01400e13          	li	t3,20
    8d84:	0bd31463          	bne	t1,t4,8e2c <fail>

00008d88 <test_21>:
    8d88:	00000213          	li	tp,0
    8d8c:	800000b7          	lui	ra,0x80000
    8d90:	4070d193          	srai	gp,ra,0x7
    8d94:	00120213          	addi	tp,tp,1 # 1 <reset_vec+0x1>
    8d98:	00200293          	li	t0,2
    8d9c:	fe5218e3          	bne	tp,t0,8d8c <test_21+0x4>
    8da0:	ff000eb7          	lui	t4,0xff000
    8da4:	01500e13          	li	t3,21
    8da8:	09d19263          	bne	gp,t4,8e2c <fail>

00008dac <test_22>:
    8dac:	00000213          	li	tp,0
    8db0:	800000b7          	lui	ra,0x80000
    8db4:	00000013          	nop
    8db8:	40e0d193          	srai	gp,ra,0xe
    8dbc:	00120213          	addi	tp,tp,1 # 1 <reset_vec+0x1>
    8dc0:	00200293          	li	t0,2
    8dc4:	fe5216e3          	bne	tp,t0,8db0 <test_22+0x4>
    8dc8:	fffe0eb7          	lui	t4,0xfffe0
    8dcc:	01600e13          	li	t3,22
    8dd0:	05d19e63          	bne	gp,t4,8e2c <fail>

00008dd4 <test_23>:
    8dd4:	00000213          	li	tp,0
    8dd8:	800000b7          	lui	ra,0x80000
    8ddc:	00108093          	addi	ra,ra,1 # 80000001 <end+0x7fff3f29>
    8de0:	00000013          	nop
    8de4:	00000013          	nop
    8de8:	41f0d193          	srai	gp,ra,0x1f
    8dec:	00120213          	addi	tp,tp,1 # 1 <reset_vec+0x1>
    8df0:	00200293          	li	t0,2
    8df4:	fe5212e3          	bne	tp,t0,8dd8 <test_23+0x4>
    8df8:	fff00e93          	li	t4,-1
    8dfc:	01700e13          	li	t3,23
    8e00:	03d19663          	bne	gp,t4,8e2c <fail>

00008e04 <test_24>:
    8e04:	41f05093          	srai	ra,zero,0x1f
    8e08:	00000e93          	li	t4,0
    8e0c:	01800e13          	li	t3,24
    8e10:	01d09e63          	bne	ra,t4,8e2c <fail>

00008e14 <test_25>:
    8e14:	02100093          	li	ra,33
    8e18:	4140d013          	srai	zero,ra,0x14
    8e1c:	00000e93          	li	t4,0
    8e20:	01900e13          	li	t3,25
    8e24:	01d01463          	bne	zero,t4,8e2c <fail>
    8e28:	03c01a63          	bne	zero,t3,8e5c <pass>

00008e2c <fail>:
    8e2c:	10000537          	lui	a0,0x10000
    8e30:	04500593          	li	a1,69
    8e34:	05200613          	li	a2,82
    8e38:	04f00693          	li	a3,79
    8e3c:	00a00713          	li	a4,10
    8e40:	00b52023          	sw	a1,0(a0) # 10000000 <end+0xfff3f28>
    8e44:	00c52023          	sw	a2,0(a0)
    8e48:	00c52023          	sw	a2,0(a0)
    8e4c:	00d52023          	sw	a3,0(a0)
    8e50:	00c52023          	sw	a2,0(a0)
    8e54:	00e52023          	sw	a4,0(a0)
    8e58:	00100073          	ebreak

00008e5c <pass>:
    8e5c:	10000537          	lui	a0,0x10000
    8e60:	04f00593          	li	a1,79
    8e64:	04b00613          	li	a2,75
    8e68:	00a00693          	li	a3,10
    8e6c:	00b52023          	sw	a1,0(a0) # 10000000 <end+0xfff3f28>
    8e70:	00c52023          	sw	a2,0(a0)
    8e74:	00d52023          	sw	a3,0(a0)
    8e78:	f30f706f          	j	5a8 <srai_ret>

00008e7c <srl>:
    8e7c:	00009537          	lui	a0,0x9
    8e80:	e9c50513          	addi	a0,a0,-356 # 8e9c <.test_name>
    8e84:	10000637          	lui	a2,0x10000

00008e88 <.prname_next>:
    8e88:	00050583          	lb	a1,0(a0)
    8e8c:	00058a63          	beqz	a1,8ea0 <.prname_done>
    8e90:	00b62023          	sw	a1,0(a2) # 10000000 <end+0xfff3f28>
    8e94:	00150513          	addi	a0,a0,1
    8e98:	ff1ff06f          	j	8e88 <.prname_next>

00008e9c <.test_name>:
    8e9c:	006c7273          	csrrci	tp,0x6,24

00008ea0 <.prname_done>:
    8ea0:	02e00593          	li	a1,46
    8ea4:	00b62023          	sw	a1,0(a2)
    8ea8:	00b62023          	sw	a1,0(a2)

00008eac <test_2>:
    8eac:	ffff80b7          	lui	ra,0xffff8
    8eb0:	00000113          	li	sp,0
    8eb4:	0020d1b3          	srl	gp,ra,sp
    8eb8:	ffff8eb7          	lui	t4,0xffff8
    8ebc:	00200e13          	li	t3,2
    8ec0:	5bd19463          	bne	gp,t4,9468 <fail>

00008ec4 <test_3>:
    8ec4:	ffff80b7          	lui	ra,0xffff8
    8ec8:	00100113          	li	sp,1
    8ecc:	0020d1b3          	srl	gp,ra,sp
    8ed0:	7fffceb7          	lui	t4,0x7fffc
    8ed4:	00300e13          	li	t3,3
    8ed8:	59d19863          	bne	gp,t4,9468 <fail>

00008edc <test_4>:
    8edc:	ffff80b7          	lui	ra,0xffff8
    8ee0:	00700113          	li	sp,7
    8ee4:	0020d1b3          	srl	gp,ra,sp
    8ee8:	02000eb7          	lui	t4,0x2000
    8eec:	f00e8e93          	addi	t4,t4,-256 # 1ffff00 <end+0x1ff3e28>
    8ef0:	00400e13          	li	t3,4
    8ef4:	57d19a63          	bne	gp,t4,9468 <fail>

00008ef8 <test_5>:
    8ef8:	ffff80b7          	lui	ra,0xffff8
    8efc:	00e00113          	li	sp,14
    8f00:	0020d1b3          	srl	gp,ra,sp
    8f04:	00040eb7          	lui	t4,0x40
    8f08:	ffee8e93          	addi	t4,t4,-2 # 3fffe <end+0x33f26>
    8f0c:	00500e13          	li	t3,5
    8f10:	55d19c63          	bne	gp,t4,9468 <fail>

00008f14 <test_6>:
    8f14:	ffff80b7          	lui	ra,0xffff8
    8f18:	00108093          	addi	ra,ra,1 # ffff8001 <end+0xfffebf29>
    8f1c:	00f00113          	li	sp,15
    8f20:	0020d1b3          	srl	gp,ra,sp
    8f24:	00020eb7          	lui	t4,0x20
    8f28:	fffe8e93          	addi	t4,t4,-1 # 1ffff <end+0x13f27>
    8f2c:	00600e13          	li	t3,6
    8f30:	53d19c63          	bne	gp,t4,9468 <fail>

00008f34 <test_7>:
    8f34:	fff00093          	li	ra,-1
    8f38:	00000113          	li	sp,0
    8f3c:	0020d1b3          	srl	gp,ra,sp
    8f40:	fff00e93          	li	t4,-1
    8f44:	00700e13          	li	t3,7
    8f48:	53d19063          	bne	gp,t4,9468 <fail>

00008f4c <test_8>:
    8f4c:	fff00093          	li	ra,-1
    8f50:	00100113          	li	sp,1
    8f54:	0020d1b3          	srl	gp,ra,sp
    8f58:	80000eb7          	lui	t4,0x80000
    8f5c:	fffe8e93          	addi	t4,t4,-1 # 7fffffff <end+0x7fff3f27>
    8f60:	00800e13          	li	t3,8
    8f64:	51d19263          	bne	gp,t4,9468 <fail>

00008f68 <test_9>:
    8f68:	fff00093          	li	ra,-1
    8f6c:	00700113          	li	sp,7
    8f70:	0020d1b3          	srl	gp,ra,sp
    8f74:	02000eb7          	lui	t4,0x2000
    8f78:	fffe8e93          	addi	t4,t4,-1 # 1ffffff <end+0x1ff3f27>
    8f7c:	00900e13          	li	t3,9
    8f80:	4fd19463          	bne	gp,t4,9468 <fail>

00008f84 <test_10>:
    8f84:	fff00093          	li	ra,-1
    8f88:	00e00113          	li	sp,14
    8f8c:	0020d1b3          	srl	gp,ra,sp
    8f90:	00040eb7          	lui	t4,0x40
    8f94:	fffe8e93          	addi	t4,t4,-1 # 3ffff <end+0x33f27>
    8f98:	00a00e13          	li	t3,10
    8f9c:	4dd19663          	bne	gp,t4,9468 <fail>

00008fa0 <test_11>:
    8fa0:	fff00093          	li	ra,-1
    8fa4:	01f00113          	li	sp,31
    8fa8:	0020d1b3          	srl	gp,ra,sp
    8fac:	00100e93          	li	t4,1
    8fb0:	00b00e13          	li	t3,11
    8fb4:	4bd19a63          	bne	gp,t4,9468 <fail>

00008fb8 <test_12>:
    8fb8:	212120b7          	lui	ra,0x21212
    8fbc:	12108093          	addi	ra,ra,289 # 21212121 <end+0x21206049>
    8fc0:	00000113          	li	sp,0
    8fc4:	0020d1b3          	srl	gp,ra,sp
    8fc8:	21212eb7          	lui	t4,0x21212
    8fcc:	121e8e93          	addi	t4,t4,289 # 21212121 <end+0x21206049>
    8fd0:	00c00e13          	li	t3,12
    8fd4:	49d19a63          	bne	gp,t4,9468 <fail>

00008fd8 <test_13>:
    8fd8:	212120b7          	lui	ra,0x21212
    8fdc:	12108093          	addi	ra,ra,289 # 21212121 <end+0x21206049>
    8fe0:	00100113          	li	sp,1
    8fe4:	0020d1b3          	srl	gp,ra,sp
    8fe8:	10909eb7          	lui	t4,0x10909
    8fec:	090e8e93          	addi	t4,t4,144 # 10909090 <end+0x108fcfb8>
    8ff0:	00d00e13          	li	t3,13
    8ff4:	47d19a63          	bne	gp,t4,9468 <fail>

00008ff8 <test_14>:
    8ff8:	212120b7          	lui	ra,0x21212
    8ffc:	12108093          	addi	ra,ra,289 # 21212121 <end+0x21206049>
    9000:	00700113          	li	sp,7
    9004:	0020d1b3          	srl	gp,ra,sp
    9008:	00424eb7          	lui	t4,0x424
    900c:	242e8e93          	addi	t4,t4,578 # 424242 <end+0x41816a>
    9010:	00e00e13          	li	t3,14
    9014:	45d19a63          	bne	gp,t4,9468 <fail>

00009018 <test_15>:
    9018:	212120b7          	lui	ra,0x21212
    901c:	12108093          	addi	ra,ra,289 # 21212121 <end+0x21206049>
    9020:	00e00113          	li	sp,14
    9024:	0020d1b3          	srl	gp,ra,sp
    9028:	00008eb7          	lui	t4,0x8
    902c:	484e8e93          	addi	t4,t4,1156 # 8484 <test_23+0x8>
    9030:	00f00e13          	li	t3,15
    9034:	43d19a63          	bne	gp,t4,9468 <fail>

00009038 <test_16>:
    9038:	212120b7          	lui	ra,0x21212
    903c:	12108093          	addi	ra,ra,289 # 21212121 <end+0x21206049>
    9040:	01f00113          	li	sp,31
    9044:	0020d1b3          	srl	gp,ra,sp
    9048:	00000e93          	li	t4,0
    904c:	01000e13          	li	t3,16
    9050:	41d19c63          	bne	gp,t4,9468 <fail>

00009054 <test_17>:
    9054:	212120b7          	lui	ra,0x21212
    9058:	12108093          	addi	ra,ra,289 # 21212121 <end+0x21206049>
    905c:	fe000113          	li	sp,-32
    9060:	0020d1b3          	srl	gp,ra,sp
    9064:	21212eb7          	lui	t4,0x21212
    9068:	121e8e93          	addi	t4,t4,289 # 21212121 <end+0x21206049>
    906c:	01100e13          	li	t3,17
    9070:	3fd19c63          	bne	gp,t4,9468 <fail>

00009074 <test_18>:
    9074:	212120b7          	lui	ra,0x21212
    9078:	12108093          	addi	ra,ra,289 # 21212121 <end+0x21206049>
    907c:	fe100113          	li	sp,-31
    9080:	0020d1b3          	srl	gp,ra,sp
    9084:	10909eb7          	lui	t4,0x10909
    9088:	090e8e93          	addi	t4,t4,144 # 10909090 <end+0x108fcfb8>
    908c:	01200e13          	li	t3,18
    9090:	3dd19c63          	bne	gp,t4,9468 <fail>

00009094 <test_19>:
    9094:	212120b7          	lui	ra,0x21212
    9098:	12108093          	addi	ra,ra,289 # 21212121 <end+0x21206049>
    909c:	fe700113          	li	sp,-25
    90a0:	0020d1b3          	srl	gp,ra,sp
    90a4:	00424eb7          	lui	t4,0x424
    90a8:	242e8e93          	addi	t4,t4,578 # 424242 <end+0x41816a>
    90ac:	01300e13          	li	t3,19
    90b0:	3bd19c63          	bne	gp,t4,9468 <fail>

000090b4 <test_20>:
    90b4:	212120b7          	lui	ra,0x21212
    90b8:	12108093          	addi	ra,ra,289 # 21212121 <end+0x21206049>
    90bc:	fee00113          	li	sp,-18
    90c0:	0020d1b3          	srl	gp,ra,sp
    90c4:	00008eb7          	lui	t4,0x8
    90c8:	484e8e93          	addi	t4,t4,1156 # 8484 <test_23+0x8>
    90cc:	01400e13          	li	t3,20
    90d0:	39d19c63          	bne	gp,t4,9468 <fail>

000090d4 <test_21>:
    90d4:	212120b7          	lui	ra,0x21212
    90d8:	12108093          	addi	ra,ra,289 # 21212121 <end+0x21206049>
    90dc:	fff00113          	li	sp,-1
    90e0:	0020d1b3          	srl	gp,ra,sp
    90e4:	00000e93          	li	t4,0
    90e8:	01500e13          	li	t3,21
    90ec:	37d19e63          	bne	gp,t4,9468 <fail>

000090f0 <test_22>:
    90f0:	ffff80b7          	lui	ra,0xffff8
    90f4:	00100113          	li	sp,1
    90f8:	0020d0b3          	srl	ra,ra,sp
    90fc:	7fffceb7          	lui	t4,0x7fffc
    9100:	01600e13          	li	t3,22
    9104:	37d09263          	bne	ra,t4,9468 <fail>

00009108 <test_23>:
    9108:	ffff80b7          	lui	ra,0xffff8
    910c:	00e00113          	li	sp,14
    9110:	0020d133          	srl	sp,ra,sp
    9114:	00040eb7          	lui	t4,0x40
    9118:	ffee8e93          	addi	t4,t4,-2 # 3fffe <end+0x33f26>
    911c:	01700e13          	li	t3,23
    9120:	35d11463          	bne	sp,t4,9468 <fail>

00009124 <test_24>:
    9124:	00700093          	li	ra,7
    9128:	0010d0b3          	srl	ra,ra,ra
    912c:	00000e93          	li	t4,0
    9130:	01800e13          	li	t3,24
    9134:	33d09a63          	bne	ra,t4,9468 <fail>

00009138 <test_25>:
    9138:	00000213          	li	tp,0
    913c:	ffff80b7          	lui	ra,0xffff8
    9140:	00100113          	li	sp,1
    9144:	0020d1b3          	srl	gp,ra,sp
    9148:	00018313          	mv	t1,gp
    914c:	00120213          	addi	tp,tp,1 # 1 <reset_vec+0x1>
    9150:	00200293          	li	t0,2
    9154:	fe5214e3          	bne	tp,t0,913c <test_25+0x4>
    9158:	7fffceb7          	lui	t4,0x7fffc
    915c:	01900e13          	li	t3,25
    9160:	31d31463          	bne	t1,t4,9468 <fail>

00009164 <test_26>:
    9164:	00000213          	li	tp,0
    9168:	ffff80b7          	lui	ra,0xffff8
    916c:	00e00113          	li	sp,14
    9170:	0020d1b3          	srl	gp,ra,sp
    9174:	00000013          	nop
    9178:	00018313          	mv	t1,gp
    917c:	00120213          	addi	tp,tp,1 # 1 <reset_vec+0x1>
    9180:	00200293          	li	t0,2
    9184:	fe5212e3          	bne	tp,t0,9168 <test_26+0x4>
    9188:	00040eb7          	lui	t4,0x40
    918c:	ffee8e93          	addi	t4,t4,-2 # 3fffe <end+0x33f26>
    9190:	01a00e13          	li	t3,26
    9194:	2dd31a63          	bne	t1,t4,9468 <fail>

00009198 <test_27>:
    9198:	00000213          	li	tp,0
    919c:	ffff80b7          	lui	ra,0xffff8
    91a0:	00f00113          	li	sp,15
    91a4:	0020d1b3          	srl	gp,ra,sp
    91a8:	00000013          	nop
    91ac:	00000013          	nop
    91b0:	00018313          	mv	t1,gp
    91b4:	00120213          	addi	tp,tp,1 # 1 <reset_vec+0x1>
    91b8:	00200293          	li	t0,2
    91bc:	fe5210e3          	bne	tp,t0,919c <test_27+0x4>
    91c0:	00020eb7          	lui	t4,0x20
    91c4:	fffe8e93          	addi	t4,t4,-1 # 1ffff <end+0x13f27>
    91c8:	01b00e13          	li	t3,27
    91cc:	29d31e63          	bne	t1,t4,9468 <fail>

000091d0 <test_28>:
    91d0:	00000213          	li	tp,0
    91d4:	ffff80b7          	lui	ra,0xffff8
    91d8:	00100113          	li	sp,1
    91dc:	0020d1b3          	srl	gp,ra,sp
    91e0:	00120213          	addi	tp,tp,1 # 1 <reset_vec+0x1>
    91e4:	00200293          	li	t0,2
    91e8:	fe5216e3          	bne	tp,t0,91d4 <test_28+0x4>
    91ec:	7fffceb7          	lui	t4,0x7fffc
    91f0:	01c00e13          	li	t3,28
    91f4:	27d19a63          	bne	gp,t4,9468 <fail>

000091f8 <test_29>:
    91f8:	00000213          	li	tp,0
    91fc:	ffff80b7          	lui	ra,0xffff8
    9200:	00700113          	li	sp,7
    9204:	00000013          	nop
    9208:	0020d1b3          	srl	gp,ra,sp
    920c:	00120213          	addi	tp,tp,1 # 1 <reset_vec+0x1>
    9210:	00200293          	li	t0,2
    9214:	fe5214e3          	bne	tp,t0,91fc <test_29+0x4>
    9218:	02000eb7          	lui	t4,0x2000
    921c:	f00e8e93          	addi	t4,t4,-256 # 1ffff00 <end+0x1ff3e28>
    9220:	01d00e13          	li	t3,29
    9224:	25d19263          	bne	gp,t4,9468 <fail>

00009228 <test_30>:
    9228:	00000213          	li	tp,0
    922c:	ffff80b7          	lui	ra,0xffff8
    9230:	00f00113          	li	sp,15
    9234:	00000013          	nop
    9238:	00000013          	nop
    923c:	0020d1b3          	srl	gp,ra,sp
    9240:	00120213          	addi	tp,tp,1 # 1 <reset_vec+0x1>
    9244:	00200293          	li	t0,2
    9248:	fe5212e3          	bne	tp,t0,922c <test_30+0x4>
    924c:	00020eb7          	lui	t4,0x20
    9250:	fffe8e93          	addi	t4,t4,-1 # 1ffff <end+0x13f27>
    9254:	01e00e13          	li	t3,30
    9258:	21d19863          	bne	gp,t4,9468 <fail>

0000925c <test_31>:
    925c:	00000213          	li	tp,0
    9260:	ffff80b7          	lui	ra,0xffff8
    9264:	00000013          	nop
    9268:	00100113          	li	sp,1
    926c:	0020d1b3          	srl	gp,ra,sp
    9270:	00120213          	addi	tp,tp,1 # 1 <reset_vec+0x1>
    9274:	00200293          	li	t0,2
    9278:	fe5214e3          	bne	tp,t0,9260 <test_31+0x4>
    927c:	7fffceb7          	lui	t4,0x7fffc
    9280:	01f00e13          	li	t3,31
    9284:	1fd19263          	bne	gp,t4,9468 <fail>

00009288 <test_32>:
    9288:	00000213          	li	tp,0
    928c:	ffff80b7          	lui	ra,0xffff8
    9290:	00000013          	nop
    9294:	00700113          	li	sp,7
    9298:	00000013          	nop
    929c:	0020d1b3          	srl	gp,ra,sp
    92a0:	00120213          	addi	tp,tp,1 # 1 <reset_vec+0x1>
    92a4:	00200293          	li	t0,2
    92a8:	fe5212e3          	bne	tp,t0,928c <test_32+0x4>
    92ac:	02000eb7          	lui	t4,0x2000
    92b0:	f00e8e93          	addi	t4,t4,-256 # 1ffff00 <end+0x1ff3e28>
    92b4:	02000e13          	li	t3,32
    92b8:	1bd19863          	bne	gp,t4,9468 <fail>

000092bc <test_33>:
    92bc:	00000213          	li	tp,0
    92c0:	ffff80b7          	lui	ra,0xffff8
    92c4:	00000013          	nop
    92c8:	00000013          	nop
    92cc:	00f00113          	li	sp,15
    92d0:	0020d1b3          	srl	gp,ra,sp
    92d4:	00120213          	addi	tp,tp,1 # 1 <reset_vec+0x1>
    92d8:	00200293          	li	t0,2
    92dc:	fe5212e3          	bne	tp,t0,92c0 <test_33+0x4>
    92e0:	00020eb7          	lui	t4,0x20
    92e4:	fffe8e93          	addi	t4,t4,-1 # 1ffff <end+0x13f27>
    92e8:	02100e13          	li	t3,33
    92ec:	17d19e63          	bne	gp,t4,9468 <fail>

000092f0 <test_34>:
    92f0:	00000213          	li	tp,0
    92f4:	00100113          	li	sp,1
    92f8:	ffff80b7          	lui	ra,0xffff8
    92fc:	0020d1b3          	srl	gp,ra,sp
    9300:	00120213          	addi	tp,tp,1 # 1 <reset_vec+0x1>
    9304:	00200293          	li	t0,2
    9308:	fe5216e3          	bne	tp,t0,92f4 <test_34+0x4>
    930c:	7fffceb7          	lui	t4,0x7fffc
    9310:	02200e13          	li	t3,34
    9314:	15d19a63          	bne	gp,t4,9468 <fail>

00009318 <test_35>:
    9318:	00000213          	li	tp,0
    931c:	00700113          	li	sp,7
    9320:	ffff80b7          	lui	ra,0xffff8
    9324:	00000013          	nop
    9328:	0020d1b3          	srl	gp,ra,sp
    932c:	00120213          	addi	tp,tp,1 # 1 <reset_vec+0x1>
    9330:	00200293          	li	t0,2
    9334:	fe5214e3          	bne	tp,t0,931c <test_35+0x4>
    9338:	02000eb7          	lui	t4,0x2000
    933c:	f00e8e93          	addi	t4,t4,-256 # 1ffff00 <end+0x1ff3e28>
    9340:	02300e13          	li	t3,35
    9344:	13d19263          	bne	gp,t4,9468 <fail>

00009348 <test_36>:
    9348:	00000213          	li	tp,0
    934c:	00f00113          	li	sp,15
    9350:	ffff80b7          	lui	ra,0xffff8
    9354:	00000013          	nop
    9358:	00000013          	nop
    935c:	0020d1b3          	srl	gp,ra,sp
    9360:	00120213          	addi	tp,tp,1 # 1 <reset_vec+0x1>
    9364:	00200293          	li	t0,2
    9368:	fe5212e3          	bne	tp,t0,934c <test_36+0x4>
    936c:	00020eb7          	lui	t4,0x20
    9370:	fffe8e93          	addi	t4,t4,-1 # 1ffff <end+0x13f27>
    9374:	02400e13          	li	t3,36
    9378:	0fd19863          	bne	gp,t4,9468 <fail>

0000937c <test_37>:
    937c:	00000213          	li	tp,0
    9380:	00100113          	li	sp,1
    9384:	00000013          	nop
    9388:	ffff80b7          	lui	ra,0xffff8
    938c:	0020d1b3          	srl	gp,ra,sp
    9390:	00120213          	addi	tp,tp,1 # 1 <reset_vec+0x1>
    9394:	00200293          	li	t0,2
    9398:	fe5214e3          	bne	tp,t0,9380 <test_37+0x4>
    939c:	7fffceb7          	lui	t4,0x7fffc
    93a0:	02500e13          	li	t3,37
    93a4:	0dd19263          	bne	gp,t4,9468 <fail>

000093a8 <test_38>:
    93a8:	00000213          	li	tp,0
    93ac:	00700113          	li	sp,7
    93b0:	00000013          	nop
    93b4:	ffff80b7          	lui	ra,0xffff8
    93b8:	00000013          	nop
    93bc:	0020d1b3          	srl	gp,ra,sp
    93c0:	00120213          	addi	tp,tp,1 # 1 <reset_vec+0x1>
    93c4:	00200293          	li	t0,2
    93c8:	fe5212e3          	bne	tp,t0,93ac <test_38+0x4>
    93cc:	02000eb7          	lui	t4,0x2000
    93d0:	f00e8e93          	addi	t4,t4,-256 # 1ffff00 <end+0x1ff3e28>
    93d4:	02600e13          	li	t3,38
    93d8:	09d19863          	bne	gp,t4,9468 <fail>

000093dc <test_39>:
    93dc:	00000213          	li	tp,0
    93e0:	00f00113          	li	sp,15
    93e4:	00000013          	nop
    93e8:	00000013          	nop
    93ec:	ffff80b7          	lui	ra,0xffff8
    93f0:	0020d1b3          	srl	gp,ra,sp
    93f4:	00120213          	addi	tp,tp,1 # 1 <reset_vec+0x1>
    93f8:	00200293          	li	t0,2
    93fc:	fe5212e3          	bne	tp,t0,93e0 <test_39+0x4>
    9400:	00020eb7          	lui	t4,0x20
    9404:	fffe8e93          	addi	t4,t4,-1 # 1ffff <end+0x13f27>
    9408:	02700e13          	li	t3,39
    940c:	05d19e63          	bne	gp,t4,9468 <fail>

00009410 <test_40>:
    9410:	00f00093          	li	ra,15
    9414:	00105133          	srl	sp,zero,ra
    9418:	00000e93          	li	t4,0
    941c:	02800e13          	li	t3,40
    9420:	05d11463          	bne	sp,t4,9468 <fail>

00009424 <test_41>:
    9424:	02000093          	li	ra,32
    9428:	0000d133          	srl	sp,ra,zero
    942c:	02000e93          	li	t4,32
    9430:	02900e13          	li	t3,41
    9434:	03d11a63          	bne	sp,t4,9468 <fail>

00009438 <test_42>:
    9438:	000050b3          	srl	ra,zero,zero
    943c:	00000e93          	li	t4,0
    9440:	02a00e13          	li	t3,42
    9444:	03d09263          	bne	ra,t4,9468 <fail>

00009448 <test_43>:
    9448:	40000093          	li	ra,1024
    944c:	00001137          	lui	sp,0x1
    9450:	80010113          	addi	sp,sp,-2048 # 800 <irq+0xf8>
    9454:	0020d033          	srl	zero,ra,sp
    9458:	00000e93          	li	t4,0
    945c:	02b00e13          	li	t3,43
    9460:	01d01463          	bne	zero,t4,9468 <fail>
    9464:	03c01a63          	bne	zero,t3,9498 <pass>

00009468 <fail>:
    9468:	10000537          	lui	a0,0x10000
    946c:	04500593          	li	a1,69
    9470:	05200613          	li	a2,82
    9474:	04f00693          	li	a3,79
    9478:	00a00713          	li	a4,10
    947c:	00b52023          	sw	a1,0(a0) # 10000000 <end+0xfff3f28>
    9480:	00c52023          	sw	a2,0(a0)
    9484:	00c52023          	sw	a2,0(a0)
    9488:	00d52023          	sw	a3,0(a0)
    948c:	00c52023          	sw	a2,0(a0)
    9490:	00e52023          	sw	a4,0(a0)
    9494:	00100073          	ebreak

00009498 <pass>:
    9498:	10000537          	lui	a0,0x10000
    949c:	04f00593          	li	a1,79
    94a0:	04b00613          	li	a2,75
    94a4:	00a00693          	li	a3,10
    94a8:	00b52023          	sw	a1,0(a0) # 10000000 <end+0xfff3f28>
    94ac:	00c52023          	sw	a2,0(a0)
    94b0:	00d52023          	sw	a3,0(a0)
    94b4:	93cf706f          	j	5f0 <srl_ret>

000094b8 <srli>:
    94b8:	00009537          	lui	a0,0x9
    94bc:	4d850513          	addi	a0,a0,1240 # 94d8 <.test_name>
    94c0:	10000637          	lui	a2,0x10000

000094c4 <.prname_next>:
    94c4:	00050583          	lb	a1,0(a0)
    94c8:	00058c63          	beqz	a1,94e0 <.prname_done>
    94cc:	00b62023          	sw	a1,0(a2) # 10000000 <end+0xfff3f28>
    94d0:	00150513          	addi	a0,a0,1
    94d4:	ff1ff06f          	j	94c4 <.prname_next>

000094d8 <.test_name>:
    94d8:	696c7273          	csrrci	tp,0x696,24
    94dc:	0000                	unimp
	...

000094e0 <.prname_done>:
    94e0:	02e00593          	li	a1,46
    94e4:	00b62023          	sw	a1,0(a2)
    94e8:	00b62023          	sw	a1,0(a2)

000094ec <test_2>:
    94ec:	ffff80b7          	lui	ra,0xffff8
    94f0:	0000d193          	srli	gp,ra,0x0
    94f4:	ffff8eb7          	lui	t4,0xffff8
    94f8:	00200e13          	li	t3,2
    94fc:	2bd19263          	bne	gp,t4,97a0 <fail>

00009500 <test_3>:
    9500:	ffff80b7          	lui	ra,0xffff8
    9504:	0010d193          	srli	gp,ra,0x1
    9508:	7fffceb7          	lui	t4,0x7fffc
    950c:	00300e13          	li	t3,3
    9510:	29d19863          	bne	gp,t4,97a0 <fail>

00009514 <test_4>:
    9514:	ffff80b7          	lui	ra,0xffff8
    9518:	0070d193          	srli	gp,ra,0x7
    951c:	02000eb7          	lui	t4,0x2000
    9520:	f00e8e93          	addi	t4,t4,-256 # 1ffff00 <end+0x1ff3e28>
    9524:	00400e13          	li	t3,4
    9528:	27d19c63          	bne	gp,t4,97a0 <fail>

0000952c <test_5>:
    952c:	ffff80b7          	lui	ra,0xffff8
    9530:	00e0d193          	srli	gp,ra,0xe
    9534:	00040eb7          	lui	t4,0x40
    9538:	ffee8e93          	addi	t4,t4,-2 # 3fffe <end+0x33f26>
    953c:	00500e13          	li	t3,5
    9540:	27d19063          	bne	gp,t4,97a0 <fail>

00009544 <test_6>:
    9544:	ffff80b7          	lui	ra,0xffff8
    9548:	00108093          	addi	ra,ra,1 # ffff8001 <end+0xfffebf29>
    954c:	00f0d193          	srli	gp,ra,0xf
    9550:	00020eb7          	lui	t4,0x20
    9554:	fffe8e93          	addi	t4,t4,-1 # 1ffff <end+0x13f27>
    9558:	00600e13          	li	t3,6
    955c:	25d19263          	bne	gp,t4,97a0 <fail>

00009560 <test_7>:
    9560:	fff00093          	li	ra,-1
    9564:	0000d193          	srli	gp,ra,0x0
    9568:	fff00e93          	li	t4,-1
    956c:	00700e13          	li	t3,7
    9570:	23d19863          	bne	gp,t4,97a0 <fail>

00009574 <test_8>:
    9574:	fff00093          	li	ra,-1
    9578:	0010d193          	srli	gp,ra,0x1
    957c:	80000eb7          	lui	t4,0x80000
    9580:	fffe8e93          	addi	t4,t4,-1 # 7fffffff <end+0x7fff3f27>
    9584:	00800e13          	li	t3,8
    9588:	21d19c63          	bne	gp,t4,97a0 <fail>

0000958c <test_9>:
    958c:	fff00093          	li	ra,-1
    9590:	0070d193          	srli	gp,ra,0x7
    9594:	02000eb7          	lui	t4,0x2000
    9598:	fffe8e93          	addi	t4,t4,-1 # 1ffffff <end+0x1ff3f27>
    959c:	00900e13          	li	t3,9
    95a0:	21d19063          	bne	gp,t4,97a0 <fail>

000095a4 <test_10>:
    95a4:	fff00093          	li	ra,-1
    95a8:	00e0d193          	srli	gp,ra,0xe
    95ac:	00040eb7          	lui	t4,0x40
    95b0:	fffe8e93          	addi	t4,t4,-1 # 3ffff <end+0x33f27>
    95b4:	00a00e13          	li	t3,10
    95b8:	1fd19463          	bne	gp,t4,97a0 <fail>

000095bc <test_11>:
    95bc:	fff00093          	li	ra,-1
    95c0:	01f0d193          	srli	gp,ra,0x1f
    95c4:	00100e93          	li	t4,1
    95c8:	00b00e13          	li	t3,11
    95cc:	1dd19a63          	bne	gp,t4,97a0 <fail>

000095d0 <test_12>:
    95d0:	212120b7          	lui	ra,0x21212
    95d4:	12108093          	addi	ra,ra,289 # 21212121 <end+0x21206049>
    95d8:	0000d193          	srli	gp,ra,0x0
    95dc:	21212eb7          	lui	t4,0x21212
    95e0:	121e8e93          	addi	t4,t4,289 # 21212121 <end+0x21206049>
    95e4:	00c00e13          	li	t3,12
    95e8:	1bd19c63          	bne	gp,t4,97a0 <fail>

000095ec <test_13>:
    95ec:	212120b7          	lui	ra,0x21212
    95f0:	12108093          	addi	ra,ra,289 # 21212121 <end+0x21206049>
    95f4:	0010d193          	srli	gp,ra,0x1
    95f8:	10909eb7          	lui	t4,0x10909
    95fc:	090e8e93          	addi	t4,t4,144 # 10909090 <end+0x108fcfb8>
    9600:	00d00e13          	li	t3,13
    9604:	19d19e63          	bne	gp,t4,97a0 <fail>

00009608 <test_14>:
    9608:	212120b7          	lui	ra,0x21212
    960c:	12108093          	addi	ra,ra,289 # 21212121 <end+0x21206049>
    9610:	0070d193          	srli	gp,ra,0x7
    9614:	00424eb7          	lui	t4,0x424
    9618:	242e8e93          	addi	t4,t4,578 # 424242 <end+0x41816a>
    961c:	00e00e13          	li	t3,14
    9620:	19d19063          	bne	gp,t4,97a0 <fail>

00009624 <test_15>:
    9624:	212120b7          	lui	ra,0x21212
    9628:	12108093          	addi	ra,ra,289 # 21212121 <end+0x21206049>
    962c:	00e0d193          	srli	gp,ra,0xe
    9630:	00008eb7          	lui	t4,0x8
    9634:	484e8e93          	addi	t4,t4,1156 # 8484 <test_23+0x8>
    9638:	00f00e13          	li	t3,15
    963c:	17d19263          	bne	gp,t4,97a0 <fail>

00009640 <test_16>:
    9640:	212120b7          	lui	ra,0x21212
    9644:	12108093          	addi	ra,ra,289 # 21212121 <end+0x21206049>
    9648:	01f0d193          	srli	gp,ra,0x1f
    964c:	00000e93          	li	t4,0
    9650:	01000e13          	li	t3,16
    9654:	15d19663          	bne	gp,t4,97a0 <fail>

00009658 <test_21>:
    9658:	ffff80b7          	lui	ra,0xffff8
    965c:	0010d093          	srli	ra,ra,0x1
    9660:	7fffceb7          	lui	t4,0x7fffc
    9664:	01500e13          	li	t3,21
    9668:	13d09c63          	bne	ra,t4,97a0 <fail>

0000966c <test_22>:
    966c:	00000213          	li	tp,0
    9670:	ffff80b7          	lui	ra,0xffff8
    9674:	0010d193          	srli	gp,ra,0x1
    9678:	00018313          	mv	t1,gp
    967c:	00120213          	addi	tp,tp,1 # 1 <reset_vec+0x1>
    9680:	00200293          	li	t0,2
    9684:	fe5216e3          	bne	tp,t0,9670 <test_22+0x4>
    9688:	7fffceb7          	lui	t4,0x7fffc
    968c:	01600e13          	li	t3,22
    9690:	11d31863          	bne	t1,t4,97a0 <fail>

00009694 <test_23>:
    9694:	00000213          	li	tp,0
    9698:	ffff80b7          	lui	ra,0xffff8
    969c:	00e0d193          	srli	gp,ra,0xe
    96a0:	00000013          	nop
    96a4:	00018313          	mv	t1,gp
    96a8:	00120213          	addi	tp,tp,1 # 1 <reset_vec+0x1>
    96ac:	00200293          	li	t0,2
    96b0:	fe5214e3          	bne	tp,t0,9698 <test_23+0x4>
    96b4:	00040eb7          	lui	t4,0x40
    96b8:	ffee8e93          	addi	t4,t4,-2 # 3fffe <end+0x33f26>
    96bc:	01700e13          	li	t3,23
    96c0:	0fd31063          	bne	t1,t4,97a0 <fail>

000096c4 <test_24>:
    96c4:	00000213          	li	tp,0
    96c8:	ffff80b7          	lui	ra,0xffff8
    96cc:	00f0d193          	srli	gp,ra,0xf
    96d0:	00000013          	nop
    96d4:	00000013          	nop
    96d8:	00018313          	mv	t1,gp
    96dc:	00120213          	addi	tp,tp,1 # 1 <reset_vec+0x1>
    96e0:	00200293          	li	t0,2
    96e4:	fe5212e3          	bne	tp,t0,96c8 <test_24+0x4>
    96e8:	00020eb7          	lui	t4,0x20
    96ec:	fffe8e93          	addi	t4,t4,-1 # 1ffff <end+0x13f27>
    96f0:	01800e13          	li	t3,24
    96f4:	0bd31663          	bne	t1,t4,97a0 <fail>

000096f8 <test_25>:
    96f8:	00000213          	li	tp,0
    96fc:	ffff80b7          	lui	ra,0xffff8
    9700:	0010d193          	srli	gp,ra,0x1
    9704:	00120213          	addi	tp,tp,1 # 1 <reset_vec+0x1>
    9708:	00200293          	li	t0,2
    970c:	fe5218e3          	bne	tp,t0,96fc <test_25+0x4>
    9710:	7fffceb7          	lui	t4,0x7fffc
    9714:	01900e13          	li	t3,25
    9718:	09d19463          	bne	gp,t4,97a0 <fail>

0000971c <test_26>:
    971c:	00000213          	li	tp,0
    9720:	ffff80b7          	lui	ra,0xffff8
    9724:	00000013          	nop
    9728:	00e0d193          	srli	gp,ra,0xe
    972c:	00120213          	addi	tp,tp,1 # 1 <reset_vec+0x1>
    9730:	00200293          	li	t0,2
    9734:	fe5216e3          	bne	tp,t0,9720 <test_26+0x4>
    9738:	00040eb7          	lui	t4,0x40
    973c:	ffee8e93          	addi	t4,t4,-2 # 3fffe <end+0x33f26>
    9740:	01a00e13          	li	t3,26
    9744:	05d19e63          	bne	gp,t4,97a0 <fail>

00009748 <test_27>:
    9748:	00000213          	li	tp,0
    974c:	ffff80b7          	lui	ra,0xffff8
    9750:	00000013          	nop
    9754:	00000013          	nop
    9758:	00f0d193          	srli	gp,ra,0xf
    975c:	00120213          	addi	tp,tp,1 # 1 <reset_vec+0x1>
    9760:	00200293          	li	t0,2
    9764:	fe5214e3          	bne	tp,t0,974c <test_27+0x4>
    9768:	00020eb7          	lui	t4,0x20
    976c:	fffe8e93          	addi	t4,t4,-1 # 1ffff <end+0x13f27>
    9770:	01b00e13          	li	t3,27
    9774:	03d19663          	bne	gp,t4,97a0 <fail>

00009778 <test_28>:
    9778:	01f05093          	srli	ra,zero,0x1f
    977c:	00000e93          	li	t4,0
    9780:	01c00e13          	li	t3,28
    9784:	01d09e63          	bne	ra,t4,97a0 <fail>

00009788 <test_29>:
    9788:	02100093          	li	ra,33
    978c:	0140d013          	srli	zero,ra,0x14
    9790:	00000e93          	li	t4,0
    9794:	01d00e13          	li	t3,29
    9798:	01d01463          	bne	zero,t4,97a0 <fail>
    979c:	03c01a63          	bne	zero,t3,97d0 <pass>

000097a0 <fail>:
    97a0:	10000537          	lui	a0,0x10000
    97a4:	04500593          	li	a1,69
    97a8:	05200613          	li	a2,82
    97ac:	04f00693          	li	a3,79
    97b0:	00a00713          	li	a4,10
    97b4:	00b52023          	sw	a1,0(a0) # 10000000 <end+0xfff3f28>
    97b8:	00c52023          	sw	a2,0(a0)
    97bc:	00c52023          	sw	a2,0(a0)
    97c0:	00d52023          	sw	a3,0(a0)
    97c4:	00c52023          	sw	a2,0(a0)
    97c8:	00e52023          	sw	a4,0(a0)
    97cc:	00100073          	ebreak

000097d0 <pass>:
    97d0:	10000537          	lui	a0,0x10000
    97d4:	04f00593          	li	a1,79
    97d8:	04b00613          	li	a2,75
    97dc:	00a00693          	li	a3,10
    97e0:	00b52023          	sw	a1,0(a0) # 10000000 <end+0xfff3f28>
    97e4:	00c52023          	sw	a2,0(a0)
    97e8:	00d52023          	sw	a3,0(a0)
    97ec:	db1f606f          	j	59c <srli_ret>

000097f0 <sub>:
    97f0:	0000a537          	lui	a0,0xa
    97f4:	81050513          	addi	a0,a0,-2032 # 9810 <.test_name>
    97f8:	10000637          	lui	a2,0x10000

000097fc <.prname_next>:
    97fc:	00050583          	lb	a1,0(a0)
    9800:	00058a63          	beqz	a1,9814 <.prname_done>
    9804:	00b62023          	sw	a1,0(a2) # 10000000 <end+0xfff3f28>
    9808:	00150513          	addi	a0,a0,1
    980c:	ff1ff06f          	j	97fc <.prname_next>

00009810 <.test_name>:
    9810:	00627573          	csrrci	a0,0x6,4

00009814 <.prname_done>:
    9814:	02e00593          	li	a1,46
    9818:	00b62023          	sw	a1,0(a2)
    981c:	00b62023          	sw	a1,0(a2)

00009820 <test_2>:
    9820:	00000093          	li	ra,0
    9824:	00000113          	li	sp,0
    9828:	402081b3          	sub	gp,ra,sp
    982c:	00000e93          	li	t4,0
    9830:	00200e13          	li	t3,2
    9834:	4bd19663          	bne	gp,t4,9ce0 <fail>

00009838 <test_3>:
    9838:	00100093          	li	ra,1
    983c:	00100113          	li	sp,1
    9840:	402081b3          	sub	gp,ra,sp
    9844:	00000e93          	li	t4,0
    9848:	00300e13          	li	t3,3
    984c:	49d19a63          	bne	gp,t4,9ce0 <fail>

00009850 <test_4>:
    9850:	00300093          	li	ra,3
    9854:	00700113          	li	sp,7
    9858:	402081b3          	sub	gp,ra,sp
    985c:	ffc00e93          	li	t4,-4
    9860:	00400e13          	li	t3,4
    9864:	47d19e63          	bne	gp,t4,9ce0 <fail>

00009868 <test_5>:
    9868:	00000093          	li	ra,0
    986c:	ffff8137          	lui	sp,0xffff8
    9870:	402081b3          	sub	gp,ra,sp
    9874:	00008eb7          	lui	t4,0x8
    9878:	00500e13          	li	t3,5
    987c:	47d19263          	bne	gp,t4,9ce0 <fail>

00009880 <test_6>:
    9880:	800000b7          	lui	ra,0x80000
    9884:	00000113          	li	sp,0
    9888:	402081b3          	sub	gp,ra,sp
    988c:	80000eb7          	lui	t4,0x80000
    9890:	00600e13          	li	t3,6
    9894:	45d19663          	bne	gp,t4,9ce0 <fail>

00009898 <test_7>:
    9898:	800000b7          	lui	ra,0x80000
    989c:	ffff8137          	lui	sp,0xffff8
    98a0:	402081b3          	sub	gp,ra,sp
    98a4:	80008eb7          	lui	t4,0x80008
    98a8:	00700e13          	li	t3,7
    98ac:	43d19a63          	bne	gp,t4,9ce0 <fail>

000098b0 <test_8>:
    98b0:	00000093          	li	ra,0
    98b4:	00008137          	lui	sp,0x8
    98b8:	fff10113          	addi	sp,sp,-1 # 7fff <test_26+0x13>
    98bc:	402081b3          	sub	gp,ra,sp
    98c0:	ffff8eb7          	lui	t4,0xffff8
    98c4:	001e8e93          	addi	t4,t4,1 # ffff8001 <end+0xfffebf29>
    98c8:	00800e13          	li	t3,8
    98cc:	41d19a63          	bne	gp,t4,9ce0 <fail>

000098d0 <test_9>:
    98d0:	800000b7          	lui	ra,0x80000
    98d4:	fff08093          	addi	ra,ra,-1 # 7fffffff <end+0x7fff3f27>
    98d8:	00000113          	li	sp,0
    98dc:	402081b3          	sub	gp,ra,sp
    98e0:	80000eb7          	lui	t4,0x80000
    98e4:	fffe8e93          	addi	t4,t4,-1 # 7fffffff <end+0x7fff3f27>
    98e8:	00900e13          	li	t3,9
    98ec:	3fd19a63          	bne	gp,t4,9ce0 <fail>

000098f0 <test_10>:
    98f0:	800000b7          	lui	ra,0x80000
    98f4:	fff08093          	addi	ra,ra,-1 # 7fffffff <end+0x7fff3f27>
    98f8:	00008137          	lui	sp,0x8
    98fc:	fff10113          	addi	sp,sp,-1 # 7fff <test_26+0x13>
    9900:	402081b3          	sub	gp,ra,sp
    9904:	7fff8eb7          	lui	t4,0x7fff8
    9908:	00a00e13          	li	t3,10
    990c:	3dd19a63          	bne	gp,t4,9ce0 <fail>

00009910 <test_11>:
    9910:	800000b7          	lui	ra,0x80000
    9914:	00008137          	lui	sp,0x8
    9918:	fff10113          	addi	sp,sp,-1 # 7fff <test_26+0x13>
    991c:	402081b3          	sub	gp,ra,sp
    9920:	7fff8eb7          	lui	t4,0x7fff8
    9924:	001e8e93          	addi	t4,t4,1 # 7fff8001 <end+0x7ffebf29>
    9928:	00b00e13          	li	t3,11
    992c:	3bd19a63          	bne	gp,t4,9ce0 <fail>

00009930 <test_12>:
    9930:	800000b7          	lui	ra,0x80000
    9934:	fff08093          	addi	ra,ra,-1 # 7fffffff <end+0x7fff3f27>
    9938:	ffff8137          	lui	sp,0xffff8
    993c:	402081b3          	sub	gp,ra,sp
    9940:	80008eb7          	lui	t4,0x80008
    9944:	fffe8e93          	addi	t4,t4,-1 # 80007fff <end+0x7fffbf27>
    9948:	00c00e13          	li	t3,12
    994c:	39d19a63          	bne	gp,t4,9ce0 <fail>

00009950 <test_13>:
    9950:	00000093          	li	ra,0
    9954:	fff00113          	li	sp,-1
    9958:	402081b3          	sub	gp,ra,sp
    995c:	00100e93          	li	t4,1
    9960:	00d00e13          	li	t3,13
    9964:	37d19e63          	bne	gp,t4,9ce0 <fail>

00009968 <test_14>:
    9968:	fff00093          	li	ra,-1
    996c:	00100113          	li	sp,1
    9970:	402081b3          	sub	gp,ra,sp
    9974:	ffe00e93          	li	t4,-2
    9978:	00e00e13          	li	t3,14
    997c:	37d19263          	bne	gp,t4,9ce0 <fail>

00009980 <test_15>:
    9980:	fff00093          	li	ra,-1
    9984:	fff00113          	li	sp,-1
    9988:	402081b3          	sub	gp,ra,sp
    998c:	00000e93          	li	t4,0
    9990:	00f00e13          	li	t3,15
    9994:	35d19663          	bne	gp,t4,9ce0 <fail>

00009998 <test_16>:
    9998:	00d00093          	li	ra,13
    999c:	00b00113          	li	sp,11
    99a0:	402080b3          	sub	ra,ra,sp
    99a4:	00200e93          	li	t4,2
    99a8:	01000e13          	li	t3,16
    99ac:	33d09a63          	bne	ra,t4,9ce0 <fail>

000099b0 <test_17>:
    99b0:	00e00093          	li	ra,14
    99b4:	00b00113          	li	sp,11
    99b8:	40208133          	sub	sp,ra,sp
    99bc:	00300e93          	li	t4,3
    99c0:	01100e13          	li	t3,17
    99c4:	31d11e63          	bne	sp,t4,9ce0 <fail>

000099c8 <test_18>:
    99c8:	00d00093          	li	ra,13
    99cc:	401080b3          	sub	ra,ra,ra
    99d0:	00000e93          	li	t4,0
    99d4:	01200e13          	li	t3,18
    99d8:	31d09463          	bne	ra,t4,9ce0 <fail>

000099dc <test_19>:
    99dc:	00000213          	li	tp,0
    99e0:	00d00093          	li	ra,13
    99e4:	00b00113          	li	sp,11
    99e8:	402081b3          	sub	gp,ra,sp
    99ec:	00018313          	mv	t1,gp
    99f0:	00120213          	addi	tp,tp,1 # 1 <reset_vec+0x1>
    99f4:	00200293          	li	t0,2
    99f8:	fe5214e3          	bne	tp,t0,99e0 <test_19+0x4>
    99fc:	00200e93          	li	t4,2
    9a00:	01300e13          	li	t3,19
    9a04:	2dd31e63          	bne	t1,t4,9ce0 <fail>

00009a08 <test_20>:
    9a08:	00000213          	li	tp,0
    9a0c:	00e00093          	li	ra,14
    9a10:	00b00113          	li	sp,11
    9a14:	402081b3          	sub	gp,ra,sp
    9a18:	00000013          	nop
    9a1c:	00018313          	mv	t1,gp
    9a20:	00120213          	addi	tp,tp,1 # 1 <reset_vec+0x1>
    9a24:	00200293          	li	t0,2
    9a28:	fe5212e3          	bne	tp,t0,9a0c <test_20+0x4>
    9a2c:	00300e93          	li	t4,3
    9a30:	01400e13          	li	t3,20
    9a34:	2bd31663          	bne	t1,t4,9ce0 <fail>

00009a38 <test_21>:
    9a38:	00000213          	li	tp,0
    9a3c:	00f00093          	li	ra,15
    9a40:	00b00113          	li	sp,11
    9a44:	402081b3          	sub	gp,ra,sp
    9a48:	00000013          	nop
    9a4c:	00000013          	nop
    9a50:	00018313          	mv	t1,gp
    9a54:	00120213          	addi	tp,tp,1 # 1 <reset_vec+0x1>
    9a58:	00200293          	li	t0,2
    9a5c:	fe5210e3          	bne	tp,t0,9a3c <test_21+0x4>
    9a60:	00400e93          	li	t4,4
    9a64:	01500e13          	li	t3,21
    9a68:	27d31c63          	bne	t1,t4,9ce0 <fail>

00009a6c <test_22>:
    9a6c:	00000213          	li	tp,0
    9a70:	00d00093          	li	ra,13
    9a74:	00b00113          	li	sp,11
    9a78:	402081b3          	sub	gp,ra,sp
    9a7c:	00120213          	addi	tp,tp,1 # 1 <reset_vec+0x1>
    9a80:	00200293          	li	t0,2
    9a84:	fe5216e3          	bne	tp,t0,9a70 <test_22+0x4>
    9a88:	00200e93          	li	t4,2
    9a8c:	01600e13          	li	t3,22
    9a90:	25d19863          	bne	gp,t4,9ce0 <fail>

00009a94 <test_23>:
    9a94:	00000213          	li	tp,0
    9a98:	00e00093          	li	ra,14
    9a9c:	00b00113          	li	sp,11
    9aa0:	00000013          	nop
    9aa4:	402081b3          	sub	gp,ra,sp
    9aa8:	00120213          	addi	tp,tp,1 # 1 <reset_vec+0x1>
    9aac:	00200293          	li	t0,2
    9ab0:	fe5214e3          	bne	tp,t0,9a98 <test_23+0x4>
    9ab4:	00300e93          	li	t4,3
    9ab8:	01700e13          	li	t3,23
    9abc:	23d19263          	bne	gp,t4,9ce0 <fail>

00009ac0 <test_24>:
    9ac0:	00000213          	li	tp,0
    9ac4:	00f00093          	li	ra,15
    9ac8:	00b00113          	li	sp,11
    9acc:	00000013          	nop
    9ad0:	00000013          	nop
    9ad4:	402081b3          	sub	gp,ra,sp
    9ad8:	00120213          	addi	tp,tp,1 # 1 <reset_vec+0x1>
    9adc:	00200293          	li	t0,2
    9ae0:	fe5212e3          	bne	tp,t0,9ac4 <test_24+0x4>
    9ae4:	00400e93          	li	t4,4
    9ae8:	01800e13          	li	t3,24
    9aec:	1fd19a63          	bne	gp,t4,9ce0 <fail>

00009af0 <test_25>:
    9af0:	00000213          	li	tp,0
    9af4:	00d00093          	li	ra,13
    9af8:	00000013          	nop
    9afc:	00b00113          	li	sp,11
    9b00:	402081b3          	sub	gp,ra,sp
    9b04:	00120213          	addi	tp,tp,1 # 1 <reset_vec+0x1>
    9b08:	00200293          	li	t0,2
    9b0c:	fe5214e3          	bne	tp,t0,9af4 <test_25+0x4>
    9b10:	00200e93          	li	t4,2
    9b14:	01900e13          	li	t3,25
    9b18:	1dd19463          	bne	gp,t4,9ce0 <fail>

00009b1c <test_26>:
    9b1c:	00000213          	li	tp,0
    9b20:	00e00093          	li	ra,14
    9b24:	00000013          	nop
    9b28:	00b00113          	li	sp,11
    9b2c:	00000013          	nop
    9b30:	402081b3          	sub	gp,ra,sp
    9b34:	00120213          	addi	tp,tp,1 # 1 <reset_vec+0x1>
    9b38:	00200293          	li	t0,2
    9b3c:	fe5212e3          	bne	tp,t0,9b20 <test_26+0x4>
    9b40:	00300e93          	li	t4,3
    9b44:	01a00e13          	li	t3,26
    9b48:	19d19c63          	bne	gp,t4,9ce0 <fail>

00009b4c <test_27>:
    9b4c:	00000213          	li	tp,0
    9b50:	00f00093          	li	ra,15
    9b54:	00000013          	nop
    9b58:	00000013          	nop
    9b5c:	00b00113          	li	sp,11
    9b60:	402081b3          	sub	gp,ra,sp
    9b64:	00120213          	addi	tp,tp,1 # 1 <reset_vec+0x1>
    9b68:	00200293          	li	t0,2
    9b6c:	fe5212e3          	bne	tp,t0,9b50 <test_27+0x4>
    9b70:	00400e93          	li	t4,4
    9b74:	01b00e13          	li	t3,27
    9b78:	17d19463          	bne	gp,t4,9ce0 <fail>

00009b7c <test_28>:
    9b7c:	00000213          	li	tp,0
    9b80:	00b00113          	li	sp,11
    9b84:	00d00093          	li	ra,13
    9b88:	402081b3          	sub	gp,ra,sp
    9b8c:	00120213          	addi	tp,tp,1 # 1 <reset_vec+0x1>
    9b90:	00200293          	li	t0,2
    9b94:	fe5216e3          	bne	tp,t0,9b80 <test_28+0x4>
    9b98:	00200e93          	li	t4,2
    9b9c:	01c00e13          	li	t3,28
    9ba0:	15d19063          	bne	gp,t4,9ce0 <fail>

00009ba4 <test_29>:
    9ba4:	00000213          	li	tp,0
    9ba8:	00b00113          	li	sp,11
    9bac:	00e00093          	li	ra,14
    9bb0:	00000013          	nop
    9bb4:	402081b3          	sub	gp,ra,sp
    9bb8:	00120213          	addi	tp,tp,1 # 1 <reset_vec+0x1>
    9bbc:	00200293          	li	t0,2
    9bc0:	fe5214e3          	bne	tp,t0,9ba8 <test_29+0x4>
    9bc4:	00300e93          	li	t4,3
    9bc8:	01d00e13          	li	t3,29
    9bcc:	11d19a63          	bne	gp,t4,9ce0 <fail>

00009bd0 <test_30>:
    9bd0:	00000213          	li	tp,0
    9bd4:	00b00113          	li	sp,11
    9bd8:	00f00093          	li	ra,15
    9bdc:	00000013          	nop
    9be0:	00000013          	nop
    9be4:	402081b3          	sub	gp,ra,sp
    9be8:	00120213          	addi	tp,tp,1 # 1 <reset_vec+0x1>
    9bec:	00200293          	li	t0,2
    9bf0:	fe5212e3          	bne	tp,t0,9bd4 <test_30+0x4>
    9bf4:	00400e93          	li	t4,4
    9bf8:	01e00e13          	li	t3,30
    9bfc:	0fd19263          	bne	gp,t4,9ce0 <fail>

00009c00 <test_31>:
    9c00:	00000213          	li	tp,0
    9c04:	00b00113          	li	sp,11
    9c08:	00000013          	nop
    9c0c:	00d00093          	li	ra,13
    9c10:	402081b3          	sub	gp,ra,sp
    9c14:	00120213          	addi	tp,tp,1 # 1 <reset_vec+0x1>
    9c18:	00200293          	li	t0,2
    9c1c:	fe5214e3          	bne	tp,t0,9c04 <test_31+0x4>
    9c20:	00200e93          	li	t4,2
    9c24:	01f00e13          	li	t3,31
    9c28:	0bd19c63          	bne	gp,t4,9ce0 <fail>

00009c2c <test_32>:
    9c2c:	00000213          	li	tp,0
    9c30:	00b00113          	li	sp,11
    9c34:	00000013          	nop
    9c38:	00e00093          	li	ra,14
    9c3c:	00000013          	nop
    9c40:	402081b3          	sub	gp,ra,sp
    9c44:	00120213          	addi	tp,tp,1 # 1 <reset_vec+0x1>
    9c48:	00200293          	li	t0,2
    9c4c:	fe5212e3          	bne	tp,t0,9c30 <test_32+0x4>
    9c50:	00300e93          	li	t4,3
    9c54:	02000e13          	li	t3,32
    9c58:	09d19463          	bne	gp,t4,9ce0 <fail>

00009c5c <test_33>:
    9c5c:	00000213          	li	tp,0
    9c60:	00b00113          	li	sp,11
    9c64:	00000013          	nop
    9c68:	00000013          	nop
    9c6c:	00f00093          	li	ra,15
    9c70:	402081b3          	sub	gp,ra,sp
    9c74:	00120213          	addi	tp,tp,1 # 1 <reset_vec+0x1>
    9c78:	00200293          	li	t0,2
    9c7c:	fe5212e3          	bne	tp,t0,9c60 <test_33+0x4>
    9c80:	00400e93          	li	t4,4
    9c84:	02100e13          	li	t3,33
    9c88:	05d19c63          	bne	gp,t4,9ce0 <fail>

00009c8c <test_34>:
    9c8c:	ff100093          	li	ra,-15
    9c90:	40100133          	neg	sp,ra
    9c94:	00f00e93          	li	t4,15
    9c98:	02200e13          	li	t3,34
    9c9c:	05d11263          	bne	sp,t4,9ce0 <fail>

00009ca0 <test_35>:
    9ca0:	02000093          	li	ra,32
    9ca4:	40008133          	sub	sp,ra,zero
    9ca8:	02000e93          	li	t4,32
    9cac:	02300e13          	li	t3,35
    9cb0:	03d11863          	bne	sp,t4,9ce0 <fail>

00009cb4 <test_36>:
    9cb4:	400000b3          	neg	ra,zero
    9cb8:	00000e93          	li	t4,0
    9cbc:	02400e13          	li	t3,36
    9cc0:	03d09063          	bne	ra,t4,9ce0 <fail>

00009cc4 <test_37>:
    9cc4:	01000093          	li	ra,16
    9cc8:	01e00113          	li	sp,30
    9ccc:	40208033          	sub	zero,ra,sp
    9cd0:	00000e93          	li	t4,0
    9cd4:	02500e13          	li	t3,37
    9cd8:	01d01463          	bne	zero,t4,9ce0 <fail>
    9cdc:	03c01a63          	bne	zero,t3,9d10 <pass>

00009ce0 <fail>:
    9ce0:	10000537          	lui	a0,0x10000
    9ce4:	04500593          	li	a1,69
    9ce8:	05200613          	li	a2,82
    9cec:	04f00693          	li	a3,79
    9cf0:	00a00713          	li	a4,10
    9cf4:	00b52023          	sw	a1,0(a0) # 10000000 <end+0xfff3f28>
    9cf8:	00c52023          	sw	a2,0(a0)
    9cfc:	00c52023          	sw	a2,0(a0)
    9d00:	00d52023          	sw	a3,0(a0)
    9d04:	00c52023          	sw	a2,0(a0)
    9d08:	00e52023          	sw	a4,0(a0)
    9d0c:	00100073          	ebreak

00009d10 <pass>:
    9d10:	10000537          	lui	a0,0x10000
    9d14:	04f00593          	li	a1,79
    9d18:	04b00613          	li	a2,75
    9d1c:	00a00693          	li	a3,10
    9d20:	00b52023          	sw	a1,0(a0) # 10000000 <end+0xfff3f28>
    9d24:	00c52023          	sw	a2,0(a0)
    9d28:	00d52023          	sw	a3,0(a0)
    9d2c:	895f606f          	j	5c0 <sub_ret>

00009d30 <sw>:
    9d30:	0000a537          	lui	a0,0xa
    9d34:	d5050513          	addi	a0,a0,-688 # 9d50 <.test_name>
    9d38:	10000637          	lui	a2,0x10000

00009d3c <.prname_next>:
    9d3c:	00050583          	lb	a1,0(a0)
    9d40:	00058a63          	beqz	a1,9d54 <.prname_done>
    9d44:	00b62023          	sw	a1,0(a2) # 10000000 <end+0xfff3f28>
    9d48:	00150513          	addi	a0,a0,1
    9d4c:	ff1ff06f          	j	9d3c <.prname_next>

00009d50 <.test_name>:
    9d50:	00007773          	csrrci	a4,ustatus,0

00009d54 <.prname_done>:
    9d54:	02e00593          	li	a1,46
    9d58:	00b62023          	sw	a1,0(a2)
    9d5c:	00b62023          	sw	a1,0(a2)

00009d60 <test_2>:
    9d60:	00002097          	auipc	ra,0x2
    9d64:	1b008093          	addi	ra,ra,432 # bf10 <tdat>
    9d68:	00aa0137          	lui	sp,0xaa0
    9d6c:	0aa10113          	addi	sp,sp,170 # aa00aa <end+0xa93fd2>
    9d70:	0020a023          	sw	sp,0(ra)
    9d74:	0000a183          	lw	gp,0(ra)
    9d78:	00aa0eb7          	lui	t4,0xaa0
    9d7c:	0aae8e93          	addi	t4,t4,170 # aa00aa <end+0xa93fd2>
    9d80:	00200e13          	li	t3,2
    9d84:	47d19063          	bne	gp,t4,a1e4 <fail>

00009d88 <test_3>:
    9d88:	00002097          	auipc	ra,0x2
    9d8c:	18808093          	addi	ra,ra,392 # bf10 <tdat>
    9d90:	aa00b137          	lui	sp,0xaa00b
    9d94:	a0010113          	addi	sp,sp,-1536 # aa00aa00 <end+0xa9ffe928>
    9d98:	0020a223          	sw	sp,4(ra)
    9d9c:	0040a183          	lw	gp,4(ra)
    9da0:	aa00beb7          	lui	t4,0xaa00b
    9da4:	a00e8e93          	addi	t4,t4,-1536 # aa00aa00 <end+0xa9ffe928>
    9da8:	00300e13          	li	t3,3
    9dac:	43d19c63          	bne	gp,t4,a1e4 <fail>

00009db0 <test_4>:
    9db0:	00002097          	auipc	ra,0x2
    9db4:	16008093          	addi	ra,ra,352 # bf10 <tdat>
    9db8:	0aa01137          	lui	sp,0xaa01
    9dbc:	aa010113          	addi	sp,sp,-1376 # aa00aa0 <end+0xa9f49c8>
    9dc0:	0020a423          	sw	sp,8(ra)
    9dc4:	0080a183          	lw	gp,8(ra)
    9dc8:	0aa01eb7          	lui	t4,0xaa01
    9dcc:	aa0e8e93          	addi	t4,t4,-1376 # aa00aa0 <end+0xa9f49c8>
    9dd0:	00400e13          	li	t3,4
    9dd4:	41d19863          	bne	gp,t4,a1e4 <fail>

00009dd8 <test_5>:
    9dd8:	00002097          	auipc	ra,0x2
    9ddc:	13808093          	addi	ra,ra,312 # bf10 <tdat>
    9de0:	a00aa137          	lui	sp,0xa00aa
    9de4:	00a10113          	addi	sp,sp,10 # a00aa00a <end+0xa009df32>
    9de8:	0020a623          	sw	sp,12(ra)
    9dec:	00c0a183          	lw	gp,12(ra)
    9df0:	a00aaeb7          	lui	t4,0xa00aa
    9df4:	00ae8e93          	addi	t4,t4,10 # a00aa00a <end+0xa009df32>
    9df8:	00500e13          	li	t3,5
    9dfc:	3fd19463          	bne	gp,t4,a1e4 <fail>

00009e00 <test_6>:
    9e00:	00002097          	auipc	ra,0x2
    9e04:	12c08093          	addi	ra,ra,300 # bf2c <tdat8>
    9e08:	00aa0137          	lui	sp,0xaa0
    9e0c:	0aa10113          	addi	sp,sp,170 # aa00aa <end+0xa93fd2>
    9e10:	fe20aa23          	sw	sp,-12(ra)
    9e14:	ff40a183          	lw	gp,-12(ra)
    9e18:	00aa0eb7          	lui	t4,0xaa0
    9e1c:	0aae8e93          	addi	t4,t4,170 # aa00aa <end+0xa93fd2>
    9e20:	00600e13          	li	t3,6
    9e24:	3dd19063          	bne	gp,t4,a1e4 <fail>

00009e28 <test_7>:
    9e28:	00002097          	auipc	ra,0x2
    9e2c:	10408093          	addi	ra,ra,260 # bf2c <tdat8>
    9e30:	aa00b137          	lui	sp,0xaa00b
    9e34:	a0010113          	addi	sp,sp,-1536 # aa00aa00 <end+0xa9ffe928>
    9e38:	fe20ac23          	sw	sp,-8(ra)
    9e3c:	ff80a183          	lw	gp,-8(ra)
    9e40:	aa00beb7          	lui	t4,0xaa00b
    9e44:	a00e8e93          	addi	t4,t4,-1536 # aa00aa00 <end+0xa9ffe928>
    9e48:	00700e13          	li	t3,7
    9e4c:	39d19c63          	bne	gp,t4,a1e4 <fail>

00009e50 <test_8>:
    9e50:	00002097          	auipc	ra,0x2
    9e54:	0dc08093          	addi	ra,ra,220 # bf2c <tdat8>
    9e58:	0aa01137          	lui	sp,0xaa01
    9e5c:	aa010113          	addi	sp,sp,-1376 # aa00aa0 <end+0xa9f49c8>
    9e60:	fe20ae23          	sw	sp,-4(ra)
    9e64:	ffc0a183          	lw	gp,-4(ra)
    9e68:	0aa01eb7          	lui	t4,0xaa01
    9e6c:	aa0e8e93          	addi	t4,t4,-1376 # aa00aa0 <end+0xa9f49c8>
    9e70:	00800e13          	li	t3,8
    9e74:	37d19863          	bne	gp,t4,a1e4 <fail>

00009e78 <test_9>:
    9e78:	00002097          	auipc	ra,0x2
    9e7c:	0b408093          	addi	ra,ra,180 # bf2c <tdat8>
    9e80:	a00aa137          	lui	sp,0xa00aa
    9e84:	00a10113          	addi	sp,sp,10 # a00aa00a <end+0xa009df32>
    9e88:	0020a023          	sw	sp,0(ra)
    9e8c:	0000a183          	lw	gp,0(ra)
    9e90:	a00aaeb7          	lui	t4,0xa00aa
    9e94:	00ae8e93          	addi	t4,t4,10 # a00aa00a <end+0xa009df32>
    9e98:	00900e13          	li	t3,9
    9e9c:	35d19463          	bne	gp,t4,a1e4 <fail>

00009ea0 <test_10>:
    9ea0:	00002097          	auipc	ra,0x2
    9ea4:	09008093          	addi	ra,ra,144 # bf30 <tdat9>
    9ea8:	12345137          	lui	sp,0x12345
    9eac:	67810113          	addi	sp,sp,1656 # 12345678 <end+0x123395a0>
    9eb0:	fe008213          	addi	tp,ra,-32
    9eb4:	02222023          	sw	sp,32(tp) # 20 <irq_vec+0x10>
    9eb8:	0000a183          	lw	gp,0(ra)
    9ebc:	12345eb7          	lui	t4,0x12345
    9ec0:	678e8e93          	addi	t4,t4,1656 # 12345678 <end+0x123395a0>
    9ec4:	00a00e13          	li	t3,10
    9ec8:	31d19e63          	bne	gp,t4,a1e4 <fail>

00009ecc <test_11>:
    9ecc:	00002097          	auipc	ra,0x2
    9ed0:	06408093          	addi	ra,ra,100 # bf30 <tdat9>
    9ed4:	58213137          	lui	sp,0x58213
    9ed8:	09810113          	addi	sp,sp,152 # 58213098 <end+0x58206fc0>
    9edc:	ffd08093          	addi	ra,ra,-3
    9ee0:	0020a3a3          	sw	sp,7(ra)
    9ee4:	00002217          	auipc	tp,0x2
    9ee8:	05020213          	addi	tp,tp,80 # bf34 <tdat10>
    9eec:	00022183          	lw	gp,0(tp) # 0 <reset_vec>
    9ef0:	58213eb7          	lui	t4,0x58213
    9ef4:	098e8e93          	addi	t4,t4,152 # 58213098 <end+0x58206fc0>
    9ef8:	00b00e13          	li	t3,11
    9efc:	2fd19463          	bne	gp,t4,a1e4 <fail>

00009f00 <test_12>:
    9f00:	00c00e13          	li	t3,12
    9f04:	00000213          	li	tp,0
    9f08:	aabbd0b7          	lui	ra,0xaabbd
    9f0c:	cdd08093          	addi	ra,ra,-803 # aabbccdd <end+0xaabb0c05>
    9f10:	00002117          	auipc	sp,0x2
    9f14:	00010113          	mv	sp,sp
    9f18:	00112023          	sw	ra,0(sp) # bf10 <tdat>
    9f1c:	00012183          	lw	gp,0(sp)
    9f20:	aabbdeb7          	lui	t4,0xaabbd
    9f24:	cdde8e93          	addi	t4,t4,-803 # aabbccdd <end+0xaabb0c05>
    9f28:	2bd19e63          	bne	gp,t4,a1e4 <fail>
    9f2c:	00120213          	addi	tp,tp,1 # 1 <reset_vec+0x1>
    9f30:	00200293          	li	t0,2
    9f34:	fc521ae3          	bne	tp,t0,9f08 <test_12+0x8>

00009f38 <test_13>:
    9f38:	00d00e13          	li	t3,13
    9f3c:	00000213          	li	tp,0
    9f40:	daabc0b7          	lui	ra,0xdaabc
    9f44:	ccd08093          	addi	ra,ra,-819 # daabbccd <end+0xdaaafbf5>
    9f48:	00002117          	auipc	sp,0x2
    9f4c:	fc810113          	addi	sp,sp,-56 # bf10 <tdat>
    9f50:	00000013          	nop
    9f54:	00112223          	sw	ra,4(sp)
    9f58:	00412183          	lw	gp,4(sp)
    9f5c:	daabceb7          	lui	t4,0xdaabc
    9f60:	ccde8e93          	addi	t4,t4,-819 # daabbccd <end+0xdaaafbf5>
    9f64:	29d19063          	bne	gp,t4,a1e4 <fail>
    9f68:	00120213          	addi	tp,tp,1 # 1 <reset_vec+0x1>
    9f6c:	00200293          	li	t0,2
    9f70:	fc5218e3          	bne	tp,t0,9f40 <test_13+0x8>

00009f74 <test_14>:
    9f74:	00e00e13          	li	t3,14
    9f78:	00000213          	li	tp,0
    9f7c:	ddaac0b7          	lui	ra,0xddaac
    9f80:	bcc08093          	addi	ra,ra,-1076 # ddaabbcc <end+0xdda9faf4>
    9f84:	00002117          	auipc	sp,0x2
    9f88:	f8c10113          	addi	sp,sp,-116 # bf10 <tdat>
    9f8c:	00000013          	nop
    9f90:	00000013          	nop
    9f94:	00112423          	sw	ra,8(sp)
    9f98:	00812183          	lw	gp,8(sp)
    9f9c:	ddaaceb7          	lui	t4,0xddaac
    9fa0:	bcce8e93          	addi	t4,t4,-1076 # ddaabbcc <end+0xdda9faf4>
    9fa4:	25d19063          	bne	gp,t4,a1e4 <fail>
    9fa8:	00120213          	addi	tp,tp,1 # 1 <reset_vec+0x1>
    9fac:	00200293          	li	t0,2
    9fb0:	fc5216e3          	bne	tp,t0,9f7c <test_14+0x8>

00009fb4 <test_15>:
    9fb4:	00f00e13          	li	t3,15
    9fb8:	00000213          	li	tp,0
    9fbc:	cddab0b7          	lui	ra,0xcddab
    9fc0:	bbc08093          	addi	ra,ra,-1092 # cddaabbc <end+0xcdd9eae4>
    9fc4:	00000013          	nop
    9fc8:	00002117          	auipc	sp,0x2
    9fcc:	f4810113          	addi	sp,sp,-184 # bf10 <tdat>
    9fd0:	00112623          	sw	ra,12(sp)
    9fd4:	00c12183          	lw	gp,12(sp)
    9fd8:	cddabeb7          	lui	t4,0xcddab
    9fdc:	bbce8e93          	addi	t4,t4,-1092 # cddaabbc <end+0xcdd9eae4>
    9fe0:	21d19263          	bne	gp,t4,a1e4 <fail>
    9fe4:	00120213          	addi	tp,tp,1 # 1 <reset_vec+0x1>
    9fe8:	00200293          	li	t0,2
    9fec:	fc5218e3          	bne	tp,t0,9fbc <test_15+0x8>

00009ff0 <test_16>:
    9ff0:	01000e13          	li	t3,16
    9ff4:	00000213          	li	tp,0
    9ff8:	ccddb0b7          	lui	ra,0xccddb
    9ffc:	abb08093          	addi	ra,ra,-1349 # ccddaabb <end+0xccdce9e3>
    a000:	00000013          	nop
    a004:	00002117          	auipc	sp,0x2
    a008:	f0c10113          	addi	sp,sp,-244 # bf10 <tdat>
    a00c:	00000013          	nop
    a010:	00112823          	sw	ra,16(sp)
    a014:	01012183          	lw	gp,16(sp)
    a018:	ccddbeb7          	lui	t4,0xccddb
    a01c:	abbe8e93          	addi	t4,t4,-1349 # ccddaabb <end+0xccdce9e3>
    a020:	1dd19263          	bne	gp,t4,a1e4 <fail>
    a024:	00120213          	addi	tp,tp,1 # 1 <reset_vec+0x1>
    a028:	00200293          	li	t0,2
    a02c:	fc5216e3          	bne	tp,t0,9ff8 <test_16+0x8>

0000a030 <test_17>:
    a030:	01100e13          	li	t3,17
    a034:	00000213          	li	tp,0
    a038:	bccde0b7          	lui	ra,0xbccde
    a03c:	aab08093          	addi	ra,ra,-1365 # bccddaab <end+0xbccd19d3>
    a040:	00000013          	nop
    a044:	00000013          	nop
    a048:	00002117          	auipc	sp,0x2
    a04c:	ec810113          	addi	sp,sp,-312 # bf10 <tdat>
    a050:	00112a23          	sw	ra,20(sp)
    a054:	01412183          	lw	gp,20(sp)
    a058:	bccdeeb7          	lui	t4,0xbccde
    a05c:	aabe8e93          	addi	t4,t4,-1365 # bccddaab <end+0xbccd19d3>
    a060:	19d19263          	bne	gp,t4,a1e4 <fail>
    a064:	00120213          	addi	tp,tp,1 # 1 <reset_vec+0x1>
    a068:	00200293          	li	t0,2
    a06c:	fc5216e3          	bne	tp,t0,a038 <test_17+0x8>

0000a070 <test_18>:
    a070:	01200e13          	li	t3,18
    a074:	00000213          	li	tp,0
    a078:	00002117          	auipc	sp,0x2
    a07c:	e9810113          	addi	sp,sp,-360 # bf10 <tdat>
    a080:	001120b7          	lui	ra,0x112
    a084:	23308093          	addi	ra,ra,563 # 112233 <end+0x10615b>
    a088:	00112023          	sw	ra,0(sp)
    a08c:	00012183          	lw	gp,0(sp)
    a090:	00112eb7          	lui	t4,0x112
    a094:	233e8e93          	addi	t4,t4,563 # 112233 <end+0x10615b>
    a098:	15d19663          	bne	gp,t4,a1e4 <fail>
    a09c:	00120213          	addi	tp,tp,1 # 1 <reset_vec+0x1>
    a0a0:	00200293          	li	t0,2
    a0a4:	fc521ae3          	bne	tp,t0,a078 <test_18+0x8>

0000a0a8 <test_19>:
    a0a8:	01300e13          	li	t3,19
    a0ac:	00000213          	li	tp,0
    a0b0:	00002117          	auipc	sp,0x2
    a0b4:	e6010113          	addi	sp,sp,-416 # bf10 <tdat>
    a0b8:	300110b7          	lui	ra,0x30011
    a0bc:	22308093          	addi	ra,ra,547 # 30011223 <end+0x3000514b>
    a0c0:	00000013          	nop
    a0c4:	00112223          	sw	ra,4(sp)
    a0c8:	00412183          	lw	gp,4(sp)
    a0cc:	30011eb7          	lui	t4,0x30011
    a0d0:	223e8e93          	addi	t4,t4,547 # 30011223 <end+0x3000514b>
    a0d4:	11d19863          	bne	gp,t4,a1e4 <fail>
    a0d8:	00120213          	addi	tp,tp,1 # 1 <reset_vec+0x1>
    a0dc:	00200293          	li	t0,2
    a0e0:	fc5218e3          	bne	tp,t0,a0b0 <test_19+0x8>

0000a0e4 <test_20>:
    a0e4:	01400e13          	li	t3,20
    a0e8:	00000213          	li	tp,0
    a0ec:	00002117          	auipc	sp,0x2
    a0f0:	e2410113          	addi	sp,sp,-476 # bf10 <tdat>
    a0f4:	330010b7          	lui	ra,0x33001
    a0f8:	12208093          	addi	ra,ra,290 # 33001122 <end+0x32ff504a>
    a0fc:	00000013          	nop
    a100:	00000013          	nop
    a104:	00112423          	sw	ra,8(sp)
    a108:	00812183          	lw	gp,8(sp)
    a10c:	33001eb7          	lui	t4,0x33001
    a110:	122e8e93          	addi	t4,t4,290 # 33001122 <end+0x32ff504a>
    a114:	0dd19863          	bne	gp,t4,a1e4 <fail>
    a118:	00120213          	addi	tp,tp,1 # 1 <reset_vec+0x1>
    a11c:	00200293          	li	t0,2
    a120:	fc5216e3          	bne	tp,t0,a0ec <test_20+0x8>

0000a124 <test_21>:
    a124:	01500e13          	li	t3,21
    a128:	00000213          	li	tp,0
    a12c:	00002117          	auipc	sp,0x2
    a130:	de410113          	addi	sp,sp,-540 # bf10 <tdat>
    a134:	00000013          	nop
    a138:	233000b7          	lui	ra,0x23300
    a13c:	11208093          	addi	ra,ra,274 # 23300112 <end+0x232f403a>
    a140:	00112623          	sw	ra,12(sp)
    a144:	00c12183          	lw	gp,12(sp)
    a148:	23300eb7          	lui	t4,0x23300
    a14c:	112e8e93          	addi	t4,t4,274 # 23300112 <end+0x232f403a>
    a150:	09d19a63          	bne	gp,t4,a1e4 <fail>
    a154:	00120213          	addi	tp,tp,1 # 1 <reset_vec+0x1>
    a158:	00200293          	li	t0,2
    a15c:	fc5218e3          	bne	tp,t0,a12c <test_21+0x8>

0000a160 <test_22>:
    a160:	01600e13          	li	t3,22
    a164:	00000213          	li	tp,0
    a168:	00002117          	auipc	sp,0x2
    a16c:	da810113          	addi	sp,sp,-600 # bf10 <tdat>
    a170:	00000013          	nop
    a174:	223300b7          	lui	ra,0x22330
    a178:	01108093          	addi	ra,ra,17 # 22330011 <end+0x22323f39>
    a17c:	00000013          	nop
    a180:	00112823          	sw	ra,16(sp)
    a184:	01012183          	lw	gp,16(sp)
    a188:	22330eb7          	lui	t4,0x22330
    a18c:	011e8e93          	addi	t4,t4,17 # 22330011 <end+0x22323f39>
    a190:	05d19a63          	bne	gp,t4,a1e4 <fail>
    a194:	00120213          	addi	tp,tp,1 # 1 <reset_vec+0x1>
    a198:	00200293          	li	t0,2
    a19c:	fc5216e3          	bne	tp,t0,a168 <test_22+0x8>

0000a1a0 <test_23>:
    a1a0:	01700e13          	li	t3,23
    a1a4:	00000213          	li	tp,0
    a1a8:	00002117          	auipc	sp,0x2
    a1ac:	d6810113          	addi	sp,sp,-664 # bf10 <tdat>
    a1b0:	00000013          	nop
    a1b4:	00000013          	nop
    a1b8:	122330b7          	lui	ra,0x12233
    a1bc:	00108093          	addi	ra,ra,1 # 12233001 <end+0x12226f29>
    a1c0:	00112a23          	sw	ra,20(sp)
    a1c4:	01412183          	lw	gp,20(sp)
    a1c8:	12233eb7          	lui	t4,0x12233
    a1cc:	001e8e93          	addi	t4,t4,1 # 12233001 <end+0x12226f29>
    a1d0:	01d19a63          	bne	gp,t4,a1e4 <fail>
    a1d4:	00120213          	addi	tp,tp,1 # 1 <reset_vec+0x1>
    a1d8:	00200293          	li	t0,2
    a1dc:	fc5216e3          	bne	tp,t0,a1a8 <test_23+0x8>
    a1e0:	03c01a63          	bne	zero,t3,a214 <pass>

0000a1e4 <fail>:
    a1e4:	10000537          	lui	a0,0x10000
    a1e8:	04500593          	li	a1,69
    a1ec:	05200613          	li	a2,82
    a1f0:	04f00693          	li	a3,79
    a1f4:	00a00713          	li	a4,10
    a1f8:	00b52023          	sw	a1,0(a0) # 10000000 <end+0xfff3f28>
    a1fc:	00c52023          	sw	a2,0(a0)
    a200:	00c52023          	sw	a2,0(a0)
    a204:	00d52023          	sw	a3,0(a0)
    a208:	00c52023          	sw	a2,0(a0)
    a20c:	00e52023          	sw	a4,0(a0)
    a210:	00100073          	ebreak

0000a214 <pass>:
    a214:	10000537          	lui	a0,0x10000
    a218:	04f00593          	li	a1,79
    a21c:	04b00613          	li	a2,75
    a220:	00a00693          	li	a3,10
    a224:	00b52023          	sw	a1,0(a0) # 10000000 <end+0xfff3f28>
    a228:	00c52023          	sw	a2,0(a0)
    a22c:	00d52023          	sw	a3,0(a0)
    a230:	b18f606f          	j	548 <sw_ret>

0000a234 <xor>:
    a234:	0000a537          	lui	a0,0xa
    a238:	25450513          	addi	a0,a0,596 # a254 <.test_name>
    a23c:	10000637          	lui	a2,0x10000

0000a240 <.prname_next>:
    a240:	00050583          	lb	a1,0(a0)
    a244:	00058a63          	beqz	a1,a258 <.prname_done>
    a248:	00b62023          	sw	a1,0(a2) # 10000000 <end+0xfff3f28>
    a24c:	00150513          	addi	a0,a0,1
    a250:	ff1ff06f          	j	a240 <.prname_next>

0000a254 <.test_name>:
    a254:	6f78                	flw	fa4,92(a4)
    a256:	0072                	c.slli	zero,0x1c

0000a258 <.prname_done>:
    a258:	02e00593          	li	a1,46
    a25c:	00b62023          	sw	a1,0(a2)
    a260:	00b62023          	sw	a1,0(a2)

0000a264 <test_2>:
    a264:	ff0100b7          	lui	ra,0xff010
    a268:	f0008093          	addi	ra,ra,-256 # ff00ff00 <end+0xff003e28>
    a26c:	0f0f1137          	lui	sp,0xf0f1
    a270:	f0f10113          	addi	sp,sp,-241 # f0f0f0f <end+0xf0e4e37>
    a274:	0020c1b3          	xor	gp,ra,sp
    a278:	f00ffeb7          	lui	t4,0xf00ff
    a27c:	00fe8e93          	addi	t4,t4,15 # f00ff00f <end+0xf00f2f37>
    a280:	00200e13          	li	t3,2
    a284:	4bd19063          	bne	gp,t4,a724 <fail>

0000a288 <test_3>:
    a288:	0ff010b7          	lui	ra,0xff01
    a28c:	ff008093          	addi	ra,ra,-16 # ff00ff0 <end+0xfef4f18>
    a290:	f0f0f137          	lui	sp,0xf0f0f
    a294:	0f010113          	addi	sp,sp,240 # f0f0f0f0 <end+0xf0f03018>
    a298:	0020c1b3          	xor	gp,ra,sp
    a29c:	ff010eb7          	lui	t4,0xff010
    a2a0:	f00e8e93          	addi	t4,t4,-256 # ff00ff00 <end+0xff003e28>
    a2a4:	00300e13          	li	t3,3
    a2a8:	47d19e63          	bne	gp,t4,a724 <fail>

0000a2ac <test_4>:
    a2ac:	00ff00b7          	lui	ra,0xff0
    a2b0:	0ff08093          	addi	ra,ra,255 # ff00ff <end+0xfe4027>
    a2b4:	0f0f1137          	lui	sp,0xf0f1
    a2b8:	f0f10113          	addi	sp,sp,-241 # f0f0f0f <end+0xf0e4e37>
    a2bc:	0020c1b3          	xor	gp,ra,sp
    a2c0:	0ff01eb7          	lui	t4,0xff01
    a2c4:	ff0e8e93          	addi	t4,t4,-16 # ff00ff0 <end+0xfef4f18>
    a2c8:	00400e13          	li	t3,4
    a2cc:	45d19c63          	bne	gp,t4,a724 <fail>

0000a2d0 <test_5>:
    a2d0:	f00ff0b7          	lui	ra,0xf00ff
    a2d4:	00f08093          	addi	ra,ra,15 # f00ff00f <end+0xf00f2f37>
    a2d8:	f0f0f137          	lui	sp,0xf0f0f
    a2dc:	0f010113          	addi	sp,sp,240 # f0f0f0f0 <end+0xf0f03018>
    a2e0:	0020c1b3          	xor	gp,ra,sp
    a2e4:	00ff0eb7          	lui	t4,0xff0
    a2e8:	0ffe8e93          	addi	t4,t4,255 # ff00ff <end+0xfe4027>
    a2ec:	00500e13          	li	t3,5
    a2f0:	43d19a63          	bne	gp,t4,a724 <fail>

0000a2f4 <test_6>:
    a2f4:	ff0100b7          	lui	ra,0xff010
    a2f8:	f0008093          	addi	ra,ra,-256 # ff00ff00 <end+0xff003e28>
    a2fc:	0f0f1137          	lui	sp,0xf0f1
    a300:	f0f10113          	addi	sp,sp,-241 # f0f0f0f <end+0xf0e4e37>
    a304:	0020c0b3          	xor	ra,ra,sp
    a308:	f00ffeb7          	lui	t4,0xf00ff
    a30c:	00fe8e93          	addi	t4,t4,15 # f00ff00f <end+0xf00f2f37>
    a310:	00600e13          	li	t3,6
    a314:	41d09863          	bne	ra,t4,a724 <fail>

0000a318 <test_7>:
    a318:	ff0100b7          	lui	ra,0xff010
    a31c:	f0008093          	addi	ra,ra,-256 # ff00ff00 <end+0xff003e28>
    a320:	0f0f1137          	lui	sp,0xf0f1
    a324:	f0f10113          	addi	sp,sp,-241 # f0f0f0f <end+0xf0e4e37>
    a328:	0020c133          	xor	sp,ra,sp
    a32c:	f00ffeb7          	lui	t4,0xf00ff
    a330:	00fe8e93          	addi	t4,t4,15 # f00ff00f <end+0xf00f2f37>
    a334:	00700e13          	li	t3,7
    a338:	3fd11663          	bne	sp,t4,a724 <fail>

0000a33c <test_8>:
    a33c:	ff0100b7          	lui	ra,0xff010
    a340:	f0008093          	addi	ra,ra,-256 # ff00ff00 <end+0xff003e28>
    a344:	0010c0b3          	xor	ra,ra,ra
    a348:	00000e93          	li	t4,0
    a34c:	00800e13          	li	t3,8
    a350:	3dd09a63          	bne	ra,t4,a724 <fail>

0000a354 <test_9>:
    a354:	00000213          	li	tp,0
    a358:	ff0100b7          	lui	ra,0xff010
    a35c:	f0008093          	addi	ra,ra,-256 # ff00ff00 <end+0xff003e28>
    a360:	0f0f1137          	lui	sp,0xf0f1
    a364:	f0f10113          	addi	sp,sp,-241 # f0f0f0f <end+0xf0e4e37>
    a368:	0020c1b3          	xor	gp,ra,sp
    a36c:	00018313          	mv	t1,gp
    a370:	00120213          	addi	tp,tp,1 # 1 <reset_vec+0x1>
    a374:	00200293          	li	t0,2
    a378:	fe5210e3          	bne	tp,t0,a358 <test_9+0x4>
    a37c:	f00ffeb7          	lui	t4,0xf00ff
    a380:	00fe8e93          	addi	t4,t4,15 # f00ff00f <end+0xf00f2f37>
    a384:	00900e13          	li	t3,9
    a388:	39d31e63          	bne	t1,t4,a724 <fail>

0000a38c <test_10>:
    a38c:	00000213          	li	tp,0
    a390:	0ff010b7          	lui	ra,0xff01
    a394:	ff008093          	addi	ra,ra,-16 # ff00ff0 <end+0xfef4f18>
    a398:	f0f0f137          	lui	sp,0xf0f0f
    a39c:	0f010113          	addi	sp,sp,240 # f0f0f0f0 <end+0xf0f03018>
    a3a0:	0020c1b3          	xor	gp,ra,sp
    a3a4:	00000013          	nop
    a3a8:	00018313          	mv	t1,gp
    a3ac:	00120213          	addi	tp,tp,1 # 1 <reset_vec+0x1>
    a3b0:	00200293          	li	t0,2
    a3b4:	fc521ee3          	bne	tp,t0,a390 <test_10+0x4>
    a3b8:	ff010eb7          	lui	t4,0xff010
    a3bc:	f00e8e93          	addi	t4,t4,-256 # ff00ff00 <end+0xff003e28>
    a3c0:	00a00e13          	li	t3,10
    a3c4:	37d31063          	bne	t1,t4,a724 <fail>

0000a3c8 <test_11>:
    a3c8:	00000213          	li	tp,0
    a3cc:	00ff00b7          	lui	ra,0xff0
    a3d0:	0ff08093          	addi	ra,ra,255 # ff00ff <end+0xfe4027>
    a3d4:	0f0f1137          	lui	sp,0xf0f1
    a3d8:	f0f10113          	addi	sp,sp,-241 # f0f0f0f <end+0xf0e4e37>
    a3dc:	0020c1b3          	xor	gp,ra,sp
    a3e0:	00000013          	nop
    a3e4:	00000013          	nop
    a3e8:	00018313          	mv	t1,gp
    a3ec:	00120213          	addi	tp,tp,1 # 1 <reset_vec+0x1>
    a3f0:	00200293          	li	t0,2
    a3f4:	fc521ce3          	bne	tp,t0,a3cc <test_11+0x4>
    a3f8:	0ff01eb7          	lui	t4,0xff01
    a3fc:	ff0e8e93          	addi	t4,t4,-16 # ff00ff0 <end+0xfef4f18>
    a400:	00b00e13          	li	t3,11
    a404:	33d31063          	bne	t1,t4,a724 <fail>

0000a408 <test_12>:
    a408:	00000213          	li	tp,0
    a40c:	ff0100b7          	lui	ra,0xff010
    a410:	f0008093          	addi	ra,ra,-256 # ff00ff00 <end+0xff003e28>
    a414:	0f0f1137          	lui	sp,0xf0f1
    a418:	f0f10113          	addi	sp,sp,-241 # f0f0f0f <end+0xf0e4e37>
    a41c:	0020c1b3          	xor	gp,ra,sp
    a420:	00120213          	addi	tp,tp,1 # 1 <reset_vec+0x1>
    a424:	00200293          	li	t0,2
    a428:	fe5212e3          	bne	tp,t0,a40c <test_12+0x4>
    a42c:	f00ffeb7          	lui	t4,0xf00ff
    a430:	00fe8e93          	addi	t4,t4,15 # f00ff00f <end+0xf00f2f37>
    a434:	00c00e13          	li	t3,12
    a438:	2fd19663          	bne	gp,t4,a724 <fail>

0000a43c <test_13>:
    a43c:	00000213          	li	tp,0
    a440:	0ff010b7          	lui	ra,0xff01
    a444:	ff008093          	addi	ra,ra,-16 # ff00ff0 <end+0xfef4f18>
    a448:	f0f0f137          	lui	sp,0xf0f0f
    a44c:	0f010113          	addi	sp,sp,240 # f0f0f0f0 <end+0xf0f03018>
    a450:	00000013          	nop
    a454:	0020c1b3          	xor	gp,ra,sp
    a458:	00120213          	addi	tp,tp,1 # 1 <reset_vec+0x1>
    a45c:	00200293          	li	t0,2
    a460:	fe5210e3          	bne	tp,t0,a440 <test_13+0x4>
    a464:	ff010eb7          	lui	t4,0xff010
    a468:	f00e8e93          	addi	t4,t4,-256 # ff00ff00 <end+0xff003e28>
    a46c:	00d00e13          	li	t3,13
    a470:	2bd19a63          	bne	gp,t4,a724 <fail>

0000a474 <test_14>:
    a474:	00000213          	li	tp,0
    a478:	00ff00b7          	lui	ra,0xff0
    a47c:	0ff08093          	addi	ra,ra,255 # ff00ff <end+0xfe4027>
    a480:	0f0f1137          	lui	sp,0xf0f1
    a484:	f0f10113          	addi	sp,sp,-241 # f0f0f0f <end+0xf0e4e37>
    a488:	00000013          	nop
    a48c:	00000013          	nop
    a490:	0020c1b3          	xor	gp,ra,sp
    a494:	00120213          	addi	tp,tp,1 # 1 <reset_vec+0x1>
    a498:	00200293          	li	t0,2
    a49c:	fc521ee3          	bne	tp,t0,a478 <test_14+0x4>
    a4a0:	0ff01eb7          	lui	t4,0xff01
    a4a4:	ff0e8e93          	addi	t4,t4,-16 # ff00ff0 <end+0xfef4f18>
    a4a8:	00e00e13          	li	t3,14
    a4ac:	27d19c63          	bne	gp,t4,a724 <fail>

0000a4b0 <test_15>:
    a4b0:	00000213          	li	tp,0
    a4b4:	ff0100b7          	lui	ra,0xff010
    a4b8:	f0008093          	addi	ra,ra,-256 # ff00ff00 <end+0xff003e28>
    a4bc:	00000013          	nop
    a4c0:	0f0f1137          	lui	sp,0xf0f1
    a4c4:	f0f10113          	addi	sp,sp,-241 # f0f0f0f <end+0xf0e4e37>
    a4c8:	0020c1b3          	xor	gp,ra,sp
    a4cc:	00120213          	addi	tp,tp,1 # 1 <reset_vec+0x1>
    a4d0:	00200293          	li	t0,2
    a4d4:	fe5210e3          	bne	tp,t0,a4b4 <test_15+0x4>
    a4d8:	f00ffeb7          	lui	t4,0xf00ff
    a4dc:	00fe8e93          	addi	t4,t4,15 # f00ff00f <end+0xf00f2f37>
    a4e0:	00f00e13          	li	t3,15
    a4e4:	25d19063          	bne	gp,t4,a724 <fail>

0000a4e8 <test_16>:
    a4e8:	00000213          	li	tp,0
    a4ec:	0ff010b7          	lui	ra,0xff01
    a4f0:	ff008093          	addi	ra,ra,-16 # ff00ff0 <end+0xfef4f18>
    a4f4:	00000013          	nop
    a4f8:	f0f0f137          	lui	sp,0xf0f0f
    a4fc:	0f010113          	addi	sp,sp,240 # f0f0f0f0 <end+0xf0f03018>
    a500:	00000013          	nop
    a504:	0020c1b3          	xor	gp,ra,sp
    a508:	00120213          	addi	tp,tp,1 # 1 <reset_vec+0x1>
    a50c:	00200293          	li	t0,2
    a510:	fc521ee3          	bne	tp,t0,a4ec <test_16+0x4>
    a514:	ff010eb7          	lui	t4,0xff010
    a518:	f00e8e93          	addi	t4,t4,-256 # ff00ff00 <end+0xff003e28>
    a51c:	01000e13          	li	t3,16
    a520:	21d19263          	bne	gp,t4,a724 <fail>

0000a524 <test_17>:
    a524:	00000213          	li	tp,0
    a528:	00ff00b7          	lui	ra,0xff0
    a52c:	0ff08093          	addi	ra,ra,255 # ff00ff <end+0xfe4027>
    a530:	00000013          	nop
    a534:	00000013          	nop
    a538:	0f0f1137          	lui	sp,0xf0f1
    a53c:	f0f10113          	addi	sp,sp,-241 # f0f0f0f <end+0xf0e4e37>
    a540:	0020c1b3          	xor	gp,ra,sp
    a544:	00120213          	addi	tp,tp,1 # 1 <reset_vec+0x1>
    a548:	00200293          	li	t0,2
    a54c:	fc521ee3          	bne	tp,t0,a528 <test_17+0x4>
    a550:	0ff01eb7          	lui	t4,0xff01
    a554:	ff0e8e93          	addi	t4,t4,-16 # ff00ff0 <end+0xfef4f18>
    a558:	01100e13          	li	t3,17
    a55c:	1dd19463          	bne	gp,t4,a724 <fail>

0000a560 <test_18>:
    a560:	00000213          	li	tp,0
    a564:	0f0f1137          	lui	sp,0xf0f1
    a568:	f0f10113          	addi	sp,sp,-241 # f0f0f0f <end+0xf0e4e37>
    a56c:	ff0100b7          	lui	ra,0xff010
    a570:	f0008093          	addi	ra,ra,-256 # ff00ff00 <end+0xff003e28>
    a574:	0020c1b3          	xor	gp,ra,sp
    a578:	00120213          	addi	tp,tp,1 # 1 <reset_vec+0x1>
    a57c:	00200293          	li	t0,2
    a580:	fe5212e3          	bne	tp,t0,a564 <test_18+0x4>
    a584:	f00ffeb7          	lui	t4,0xf00ff
    a588:	00fe8e93          	addi	t4,t4,15 # f00ff00f <end+0xf00f2f37>
    a58c:	01200e13          	li	t3,18
    a590:	19d19a63          	bne	gp,t4,a724 <fail>

0000a594 <test_19>:
    a594:	00000213          	li	tp,0
    a598:	f0f0f137          	lui	sp,0xf0f0f
    a59c:	0f010113          	addi	sp,sp,240 # f0f0f0f0 <end+0xf0f03018>
    a5a0:	0ff010b7          	lui	ra,0xff01
    a5a4:	ff008093          	addi	ra,ra,-16 # ff00ff0 <end+0xfef4f18>
    a5a8:	00000013          	nop
    a5ac:	0020c1b3          	xor	gp,ra,sp
    a5b0:	00120213          	addi	tp,tp,1 # 1 <reset_vec+0x1>
    a5b4:	00200293          	li	t0,2
    a5b8:	fe5210e3          	bne	tp,t0,a598 <test_19+0x4>
    a5bc:	ff010eb7          	lui	t4,0xff010
    a5c0:	f00e8e93          	addi	t4,t4,-256 # ff00ff00 <end+0xff003e28>
    a5c4:	01300e13          	li	t3,19
    a5c8:	15d19e63          	bne	gp,t4,a724 <fail>

0000a5cc <test_20>:
    a5cc:	00000213          	li	tp,0
    a5d0:	0f0f1137          	lui	sp,0xf0f1
    a5d4:	f0f10113          	addi	sp,sp,-241 # f0f0f0f <end+0xf0e4e37>
    a5d8:	00ff00b7          	lui	ra,0xff0
    a5dc:	0ff08093          	addi	ra,ra,255 # ff00ff <end+0xfe4027>
    a5e0:	00000013          	nop
    a5e4:	00000013          	nop
    a5e8:	0020c1b3          	xor	gp,ra,sp
    a5ec:	00120213          	addi	tp,tp,1 # 1 <reset_vec+0x1>
    a5f0:	00200293          	li	t0,2
    a5f4:	fc521ee3          	bne	tp,t0,a5d0 <test_20+0x4>
    a5f8:	0ff01eb7          	lui	t4,0xff01
    a5fc:	ff0e8e93          	addi	t4,t4,-16 # ff00ff0 <end+0xfef4f18>
    a600:	01400e13          	li	t3,20
    a604:	13d19063          	bne	gp,t4,a724 <fail>

0000a608 <test_21>:
    a608:	00000213          	li	tp,0
    a60c:	0f0f1137          	lui	sp,0xf0f1
    a610:	f0f10113          	addi	sp,sp,-241 # f0f0f0f <end+0xf0e4e37>
    a614:	00000013          	nop
    a618:	ff0100b7          	lui	ra,0xff010
    a61c:	f0008093          	addi	ra,ra,-256 # ff00ff00 <end+0xff003e28>
    a620:	0020c1b3          	xor	gp,ra,sp
    a624:	00120213          	addi	tp,tp,1 # 1 <reset_vec+0x1>
    a628:	00200293          	li	t0,2
    a62c:	fe5210e3          	bne	tp,t0,a60c <test_21+0x4>
    a630:	f00ffeb7          	lui	t4,0xf00ff
    a634:	00fe8e93          	addi	t4,t4,15 # f00ff00f <end+0xf00f2f37>
    a638:	01500e13          	li	t3,21
    a63c:	0fd19463          	bne	gp,t4,a724 <fail>

0000a640 <test_22>:
    a640:	00000213          	li	tp,0
    a644:	f0f0f137          	lui	sp,0xf0f0f
    a648:	0f010113          	addi	sp,sp,240 # f0f0f0f0 <end+0xf0f03018>
    a64c:	00000013          	nop
    a650:	0ff010b7          	lui	ra,0xff01
    a654:	ff008093          	addi	ra,ra,-16 # ff00ff0 <end+0xfef4f18>
    a658:	00000013          	nop
    a65c:	0020c1b3          	xor	gp,ra,sp
    a660:	00120213          	addi	tp,tp,1 # 1 <reset_vec+0x1>
    a664:	00200293          	li	t0,2
    a668:	fc521ee3          	bne	tp,t0,a644 <test_22+0x4>
    a66c:	ff010eb7          	lui	t4,0xff010
    a670:	f00e8e93          	addi	t4,t4,-256 # ff00ff00 <end+0xff003e28>
    a674:	01600e13          	li	t3,22
    a678:	0bd19663          	bne	gp,t4,a724 <fail>

0000a67c <test_23>:
    a67c:	00000213          	li	tp,0
    a680:	0f0f1137          	lui	sp,0xf0f1
    a684:	f0f10113          	addi	sp,sp,-241 # f0f0f0f <end+0xf0e4e37>
    a688:	00000013          	nop
    a68c:	00000013          	nop
    a690:	00ff00b7          	lui	ra,0xff0
    a694:	0ff08093          	addi	ra,ra,255 # ff00ff <end+0xfe4027>
    a698:	0020c1b3          	xor	gp,ra,sp
    a69c:	00120213          	addi	tp,tp,1 # 1 <reset_vec+0x1>
    a6a0:	00200293          	li	t0,2
    a6a4:	fc521ee3          	bne	tp,t0,a680 <test_23+0x4>
    a6a8:	0ff01eb7          	lui	t4,0xff01
    a6ac:	ff0e8e93          	addi	t4,t4,-16 # ff00ff0 <end+0xfef4f18>
    a6b0:	01700e13          	li	t3,23
    a6b4:	07d19863          	bne	gp,t4,a724 <fail>

0000a6b8 <test_24>:
    a6b8:	ff0100b7          	lui	ra,0xff010
    a6bc:	f0008093          	addi	ra,ra,-256 # ff00ff00 <end+0xff003e28>
    a6c0:	00104133          	xor	sp,zero,ra
    a6c4:	ff010eb7          	lui	t4,0xff010
    a6c8:	f00e8e93          	addi	t4,t4,-256 # ff00ff00 <end+0xff003e28>
    a6cc:	01800e13          	li	t3,24
    a6d0:	05d11a63          	bne	sp,t4,a724 <fail>

0000a6d4 <test_25>:
    a6d4:	00ff00b7          	lui	ra,0xff0
    a6d8:	0ff08093          	addi	ra,ra,255 # ff00ff <end+0xfe4027>
    a6dc:	0000c133          	xor	sp,ra,zero
    a6e0:	00ff0eb7          	lui	t4,0xff0
    a6e4:	0ffe8e93          	addi	t4,t4,255 # ff00ff <end+0xfe4027>
    a6e8:	01900e13          	li	t3,25
    a6ec:	03d11c63          	bne	sp,t4,a724 <fail>

0000a6f0 <test_26>:
    a6f0:	000040b3          	xor	ra,zero,zero
    a6f4:	00000e93          	li	t4,0
    a6f8:	01a00e13          	li	t3,26
    a6fc:	03d09463          	bne	ra,t4,a724 <fail>

0000a700 <test_27>:
    a700:	111110b7          	lui	ra,0x11111
    a704:	11108093          	addi	ra,ra,273 # 11111111 <end+0x11105039>
    a708:	22222137          	lui	sp,0x22222
    a70c:	22210113          	addi	sp,sp,546 # 22222222 <end+0x2221614a>
    a710:	0020c033          	xor	zero,ra,sp
    a714:	00000e93          	li	t4,0
    a718:	01b00e13          	li	t3,27
    a71c:	01d01463          	bne	zero,t4,a724 <fail>
    a720:	03c01a63          	bne	zero,t3,a754 <pass>

0000a724 <fail>:
    a724:	10000537          	lui	a0,0x10000
    a728:	04500593          	li	a1,69
    a72c:	05200613          	li	a2,82
    a730:	04f00693          	li	a3,79
    a734:	00a00713          	li	a4,10
    a738:	00b52023          	sw	a1,0(a0) # 10000000 <end+0xfff3f28>
    a73c:	00c52023          	sw	a2,0(a0)
    a740:	00c52023          	sw	a2,0(a0)
    a744:	00d52023          	sw	a3,0(a0)
    a748:	00c52023          	sw	a2,0(a0)
    a74c:	00e52023          	sw	a4,0(a0)
    a750:	00100073          	ebreak

0000a754 <pass>:
    a754:	10000537          	lui	a0,0x10000
    a758:	04f00593          	li	a1,79
    a75c:	04b00613          	li	a2,75
    a760:	00a00693          	li	a3,10
    a764:	00b52023          	sw	a1,0(a0) # 10000000 <end+0xfff3f28>
    a768:	00c52023          	sw	a2,0(a0)
    a76c:	00d52023          	sw	a3,0(a0)
    a770:	e75f506f          	j	5e4 <xor_ret>

0000a774 <xori>:
    a774:	0000a537          	lui	a0,0xa
    a778:	79450513          	addi	a0,a0,1940 # a794 <.test_name>
    a77c:	10000637          	lui	a2,0x10000

0000a780 <.prname_next>:
    a780:	00050583          	lb	a1,0(a0)
    a784:	00058c63          	beqz	a1,a79c <.prname_done>
    a788:	00b62023          	sw	a1,0(a2) # 10000000 <end+0xfff3f28>
    a78c:	00150513          	addi	a0,a0,1
    a790:	ff1ff06f          	j	a780 <.prname_next>

0000a794 <.test_name>:
    a794:	6f78                	flw	fa4,92(a4)
    a796:	6972                	flw	fs2,28(sp)
    a798:	0000                	unimp
	...

0000a79c <.prname_done>:
    a79c:	02e00593          	li	a1,46
    a7a0:	00b62023          	sw	a1,0(a2)
    a7a4:	00b62023          	sw	a1,0(a2)

0000a7a8 <test_2>:
    a7a8:	00ff10b7          	lui	ra,0xff1
    a7ac:	f0008093          	addi	ra,ra,-256 # ff0f00 <end+0xfe4e28>
    a7b0:	f0f0c193          	xori	gp,ra,-241
    a7b4:	ff00feb7          	lui	t4,0xff00f
    a7b8:	00fe8e93          	addi	t4,t4,15 # ff00f00f <end+0xff002f37>
    a7bc:	00200e13          	li	t3,2
    a7c0:	1dd19663          	bne	gp,t4,a98c <fail>

0000a7c4 <test_3>:
    a7c4:	0ff010b7          	lui	ra,0xff01
    a7c8:	ff008093          	addi	ra,ra,-16 # ff00ff0 <end+0xfef4f18>
    a7cc:	0f00c193          	xori	gp,ra,240
    a7d0:	0ff01eb7          	lui	t4,0xff01
    a7d4:	f00e8e93          	addi	t4,t4,-256 # ff00f00 <end+0xfef4e28>
    a7d8:	00300e13          	li	t3,3
    a7dc:	1bd19863          	bne	gp,t4,a98c <fail>

0000a7e0 <test_4>:
    a7e0:	00ff10b7          	lui	ra,0xff1
    a7e4:	8ff08093          	addi	ra,ra,-1793 # ff08ff <end+0xfe4827>
    a7e8:	70f0c193          	xori	gp,ra,1807
    a7ec:	00ff1eb7          	lui	t4,0xff1
    a7f0:	ff0e8e93          	addi	t4,t4,-16 # ff0ff0 <end+0xfe4f18>
    a7f4:	00400e13          	li	t3,4
    a7f8:	19d19a63          	bne	gp,t4,a98c <fail>

0000a7fc <test_5>:
    a7fc:	f00ff0b7          	lui	ra,0xf00ff
    a800:	00f08093          	addi	ra,ra,15 # f00ff00f <end+0xf00f2f37>
    a804:	0f00c193          	xori	gp,ra,240
    a808:	f00ffeb7          	lui	t4,0xf00ff
    a80c:	0ffe8e93          	addi	t4,t4,255 # f00ff0ff <end+0xf00f3027>
    a810:	00500e13          	li	t3,5
    a814:	17d19c63          	bne	gp,t4,a98c <fail>

0000a818 <test_6>:
    a818:	ff00f0b7          	lui	ra,0xff00f
    a81c:	70008093          	addi	ra,ra,1792 # ff00f700 <end+0xff003628>
    a820:	70f0c093          	xori	ra,ra,1807
    a824:	ff00feb7          	lui	t4,0xff00f
    a828:	00fe8e93          	addi	t4,t4,15 # ff00f00f <end+0xff002f37>
    a82c:	00600e13          	li	t3,6
    a830:	15d09e63          	bne	ra,t4,a98c <fail>

0000a834 <test_7>:
    a834:	00000213          	li	tp,0
    a838:	0ff010b7          	lui	ra,0xff01
    a83c:	ff008093          	addi	ra,ra,-16 # ff00ff0 <end+0xfef4f18>
    a840:	0f00c193          	xori	gp,ra,240
    a844:	00018313          	mv	t1,gp
    a848:	00120213          	addi	tp,tp,1 # 1 <reset_vec+0x1>
    a84c:	00200293          	li	t0,2
    a850:	fe5214e3          	bne	tp,t0,a838 <test_7+0x4>
    a854:	0ff01eb7          	lui	t4,0xff01
    a858:	f00e8e93          	addi	t4,t4,-256 # ff00f00 <end+0xfef4e28>
    a85c:	00700e13          	li	t3,7
    a860:	13d31663          	bne	t1,t4,a98c <fail>

0000a864 <test_8>:
    a864:	00000213          	li	tp,0
    a868:	00ff10b7          	lui	ra,0xff1
    a86c:	8ff08093          	addi	ra,ra,-1793 # ff08ff <end+0xfe4827>
    a870:	70f0c193          	xori	gp,ra,1807
    a874:	00000013          	nop
    a878:	00018313          	mv	t1,gp
    a87c:	00120213          	addi	tp,tp,1 # 1 <reset_vec+0x1>
    a880:	00200293          	li	t0,2
    a884:	fe5212e3          	bne	tp,t0,a868 <test_8+0x4>
    a888:	00ff1eb7          	lui	t4,0xff1
    a88c:	ff0e8e93          	addi	t4,t4,-16 # ff0ff0 <end+0xfe4f18>
    a890:	00800e13          	li	t3,8
    a894:	0fd31c63          	bne	t1,t4,a98c <fail>

0000a898 <test_9>:
    a898:	00000213          	li	tp,0
    a89c:	f00ff0b7          	lui	ra,0xf00ff
    a8a0:	00f08093          	addi	ra,ra,15 # f00ff00f <end+0xf00f2f37>
    a8a4:	0f00c193          	xori	gp,ra,240
    a8a8:	00000013          	nop
    a8ac:	00000013          	nop
    a8b0:	00018313          	mv	t1,gp
    a8b4:	00120213          	addi	tp,tp,1 # 1 <reset_vec+0x1>
    a8b8:	00200293          	li	t0,2
    a8bc:	fe5210e3          	bne	tp,t0,a89c <test_9+0x4>
    a8c0:	f00ffeb7          	lui	t4,0xf00ff
    a8c4:	0ffe8e93          	addi	t4,t4,255 # f00ff0ff <end+0xf00f3027>
    a8c8:	00900e13          	li	t3,9
    a8cc:	0dd31063          	bne	t1,t4,a98c <fail>

0000a8d0 <test_10>:
    a8d0:	00000213          	li	tp,0
    a8d4:	0ff010b7          	lui	ra,0xff01
    a8d8:	ff008093          	addi	ra,ra,-16 # ff00ff0 <end+0xfef4f18>
    a8dc:	0f00c193          	xori	gp,ra,240
    a8e0:	00120213          	addi	tp,tp,1 # 1 <reset_vec+0x1>
    a8e4:	00200293          	li	t0,2
    a8e8:	fe5216e3          	bne	tp,t0,a8d4 <test_10+0x4>
    a8ec:	0ff01eb7          	lui	t4,0xff01
    a8f0:	f00e8e93          	addi	t4,t4,-256 # ff00f00 <end+0xfef4e28>
    a8f4:	00a00e13          	li	t3,10
    a8f8:	09d19a63          	bne	gp,t4,a98c <fail>

0000a8fc <test_11>:
    a8fc:	00000213          	li	tp,0
    a900:	00ff10b7          	lui	ra,0xff1
    a904:	fff08093          	addi	ra,ra,-1 # ff0fff <end+0xfe4f27>
    a908:	00000013          	nop
    a90c:	00f0c193          	xori	gp,ra,15
    a910:	00120213          	addi	tp,tp,1 # 1 <reset_vec+0x1>
    a914:	00200293          	li	t0,2
    a918:	fe5214e3          	bne	tp,t0,a900 <test_11+0x4>
    a91c:	00ff1eb7          	lui	t4,0xff1
    a920:	ff0e8e93          	addi	t4,t4,-16 # ff0ff0 <end+0xfe4f18>
    a924:	00b00e13          	li	t3,11
    a928:	07d19263          	bne	gp,t4,a98c <fail>

0000a92c <test_12>:
    a92c:	00000213          	li	tp,0
    a930:	f00ff0b7          	lui	ra,0xf00ff
    a934:	00f08093          	addi	ra,ra,15 # f00ff00f <end+0xf00f2f37>
    a938:	00000013          	nop
    a93c:	00000013          	nop
    a940:	0f00c193          	xori	gp,ra,240
    a944:	00120213          	addi	tp,tp,1 # 1 <reset_vec+0x1>
    a948:	00200293          	li	t0,2
    a94c:	fe5212e3          	bne	tp,t0,a930 <test_12+0x4>
    a950:	f00ffeb7          	lui	t4,0xf00ff
    a954:	0ffe8e93          	addi	t4,t4,255 # f00ff0ff <end+0xf00f3027>
    a958:	00c00e13          	li	t3,12
    a95c:	03d19863          	bne	gp,t4,a98c <fail>

0000a960 <test_13>:
    a960:	0f004093          	xori	ra,zero,240
    a964:	0f000e93          	li	t4,240
    a968:	00d00e13          	li	t3,13
    a96c:	03d09063          	bne	ra,t4,a98c <fail>

0000a970 <test_14>:
    a970:	00ff00b7          	lui	ra,0xff0
    a974:	0ff08093          	addi	ra,ra,255 # ff00ff <end+0xfe4027>
    a978:	70f0c013          	xori	zero,ra,1807
    a97c:	00000e93          	li	t4,0
    a980:	00e00e13          	li	t3,14
    a984:	01d01463          	bne	zero,t4,a98c <fail>
    a988:	03c01a63          	bne	zero,t3,a9bc <pass>

0000a98c <fail>:
    a98c:	10000537          	lui	a0,0x10000
    a990:	04500593          	li	a1,69
    a994:	05200613          	li	a2,82
    a998:	04f00693          	li	a3,79
    a99c:	00a00713          	li	a4,10
    a9a0:	00b52023          	sw	a1,0(a0) # 10000000 <end+0xfff3f28>
    a9a4:	00c52023          	sw	a2,0(a0)
    a9a8:	00c52023          	sw	a2,0(a0)
    a9ac:	00d52023          	sw	a3,0(a0)
    a9b0:	00c52023          	sw	a2,0(a0)
    a9b4:	00e52023          	sw	a4,0(a0)
    a9b8:	00100073          	ebreak

0000a9bc <pass>:
    a9bc:	10000537          	lui	a0,0x10000
    a9c0:	04f00593          	li	a1,79
    a9c4:	04b00613          	li	a2,75
    a9c8:	00a00693          	li	a3,10
    a9cc:	00b52023          	sw	a1,0(a0) # 10000000 <end+0xfff3f28>
    a9d0:	00c52023          	sw	a2,0(a0)
    a9d4:	00d52023          	sw	a3,0(a0)
    a9d8:	b95f506f          	j	56c <xori_ret>

0000a9dc <__divdi3>:
    a9dc:	00000893          	li	a7,0
    a9e0:	0005dc63          	bgez	a1,a9f8 <__divdi3+0x1c>
    a9e4:	40a00533          	neg	a0,a0
    a9e8:	00a037b3          	snez	a5,a0
    a9ec:	40b005b3          	neg	a1,a1
    a9f0:	40f585b3          	sub	a1,a1,a5
    a9f4:	fff00893          	li	a7,-1
    a9f8:	0006dc63          	bgez	a3,aa10 <__divdi3+0x34>
    a9fc:	40c00633          	neg	a2,a2
    aa00:	00c037b3          	snez	a5,a2
    aa04:	40d006b3          	neg	a3,a3
    aa08:	fff8c893          	not	a7,a7
    aa0c:	40f686b3          	sub	a3,a3,a5
    aa10:	00060813          	mv	a6,a2
    aa14:	00068713          	mv	a4,a3
    aa18:	00050313          	mv	t1,a0
    aa1c:	00058e13          	mv	t3,a1
    aa20:	2a069263          	bnez	a3,acc4 <__divdi3+0x2e8>
    aa24:	00001697          	auipc	a3,0x1
    aa28:	5b468693          	addi	a3,a3,1460 # bfd8 <__clz_tab>
    aa2c:	0ec5f663          	bleu	a2,a1,ab18 <__divdi3+0x13c>
    aa30:	000107b7          	lui	a5,0x10
    aa34:	0cf67863          	bleu	a5,a2,ab04 <__divdi3+0x128>
    aa38:	0ff00793          	li	a5,255
    aa3c:	00c7b7b3          	sltu	a5,a5,a2
    aa40:	00379793          	slli	a5,a5,0x3
    aa44:	00f65733          	srl	a4,a2,a5
    aa48:	00e686b3          	add	a3,a3,a4
    aa4c:	0006c703          	lbu	a4,0(a3)
    aa50:	00f707b3          	add	a5,a4,a5
    aa54:	02000713          	li	a4,32
    aa58:	40f70733          	sub	a4,a4,a5
    aa5c:	00070c63          	beqz	a4,aa74 <__divdi3+0x98>
    aa60:	00e595b3          	sll	a1,a1,a4
    aa64:	00f557b3          	srl	a5,a0,a5
    aa68:	00e61833          	sll	a6,a2,a4
    aa6c:	00b7ee33          	or	t3,a5,a1
    aa70:	00e51333          	sll	t1,a0,a4
    aa74:	01085613          	srli	a2,a6,0x10
    aa78:	02ce77b3          	remu	a5,t3,a2
    aa7c:	01081593          	slli	a1,a6,0x10
    aa80:	0105d593          	srli	a1,a1,0x10
    aa84:	01035713          	srli	a4,t1,0x10
    aa88:	02ce5e33          	divu	t3,t3,a2
    aa8c:	01079793          	slli	a5,a5,0x10
    aa90:	00e7e733          	or	a4,a5,a4
    aa94:	03c586b3          	mul	a3,a1,t3
    aa98:	000e0793          	mv	a5,t3
    aa9c:	00d77e63          	bleu	a3,a4,aab8 <__divdi3+0xdc>
    aaa0:	01070733          	add	a4,a4,a6
    aaa4:	fffe0793          	addi	a5,t3,-1 # 17fff <end+0xbf27>
    aaa8:	01076863          	bltu	a4,a6,aab8 <__divdi3+0xdc>
    aaac:	00d77663          	bleu	a3,a4,aab8 <__divdi3+0xdc>
    aab0:	ffee0793          	addi	a5,t3,-2
    aab4:	01070733          	add	a4,a4,a6
    aab8:	40d70733          	sub	a4,a4,a3
    aabc:	02c776b3          	remu	a3,a4,a2
    aac0:	01031313          	slli	t1,t1,0x10
    aac4:	01035313          	srli	t1,t1,0x10
    aac8:	02c75733          	divu	a4,a4,a2
    aacc:	01069693          	slli	a3,a3,0x10
    aad0:	0066e333          	or	t1,a3,t1
    aad4:	02e585b3          	mul	a1,a1,a4
    aad8:	00070513          	mv	a0,a4
    aadc:	00b37c63          	bleu	a1,t1,aaf4 <__divdi3+0x118>
    aae0:	00680333          	add	t1,a6,t1
    aae4:	fff70513          	addi	a0,a4,-1
    aae8:	01036663          	bltu	t1,a6,aaf4 <__divdi3+0x118>
    aaec:	00b37463          	bleu	a1,t1,aaf4 <__divdi3+0x118>
    aaf0:	ffe70513          	addi	a0,a4,-2
    aaf4:	01079793          	slli	a5,a5,0x10
    aaf8:	00a7e7b3          	or	a5,a5,a0
    aafc:	00000e13          	li	t3,0
    ab00:	0e40006f          	j	abe4 <__divdi3+0x208>
    ab04:	01000737          	lui	a4,0x1000
    ab08:	01000793          	li	a5,16
    ab0c:	f2e66ce3          	bltu	a2,a4,aa44 <__divdi3+0x68>
    ab10:	01800793          	li	a5,24
    ab14:	f31ff06f          	j	aa44 <__divdi3+0x68>
    ab18:	00061663          	bnez	a2,ab24 <__divdi3+0x148>
    ab1c:	00100813          	li	a6,1
    ab20:	02e85833          	divu	a6,a6,a4
    ab24:	000107b7          	lui	a5,0x10
    ab28:	0cf87e63          	bleu	a5,a6,ac04 <__divdi3+0x228>
    ab2c:	0ff00793          	li	a5,255
    ab30:	0107f463          	bleu	a6,a5,ab38 <__divdi3+0x15c>
    ab34:	00800713          	li	a4,8
    ab38:	00e857b3          	srl	a5,a6,a4
    ab3c:	00f686b3          	add	a3,a3,a5
    ab40:	0006c783          	lbu	a5,0(a3)
    ab44:	02000693          	li	a3,32
    ab48:	00e787b3          	add	a5,a5,a4
    ab4c:	40f686b3          	sub	a3,a3,a5
    ab50:	0c069463          	bnez	a3,ac18 <__divdi3+0x23c>
    ab54:	410585b3          	sub	a1,a1,a6
    ab58:	00100e13          	li	t3,1
    ab5c:	01085513          	srli	a0,a6,0x10
    ab60:	01081613          	slli	a2,a6,0x10
    ab64:	01065613          	srli	a2,a2,0x10
    ab68:	01035693          	srli	a3,t1,0x10
    ab6c:	02a5d733          	divu	a4,a1,a0
    ab70:	02a5f7b3          	remu	a5,a1,a0
    ab74:	02e605b3          	mul	a1,a2,a4
    ab78:	01079793          	slli	a5,a5,0x10
    ab7c:	00d7e6b3          	or	a3,a5,a3
    ab80:	00070793          	mv	a5,a4
    ab84:	00b6fe63          	bleu	a1,a3,aba0 <__divdi3+0x1c4>
    ab88:	010686b3          	add	a3,a3,a6
    ab8c:	fff70793          	addi	a5,a4,-1 # ffffff <end+0xff3f27>
    ab90:	0106e863          	bltu	a3,a6,aba0 <__divdi3+0x1c4>
    ab94:	00b6f663          	bleu	a1,a3,aba0 <__divdi3+0x1c4>
    ab98:	ffe70793          	addi	a5,a4,-2
    ab9c:	010686b3          	add	a3,a3,a6
    aba0:	40b686b3          	sub	a3,a3,a1
    aba4:	02a6f733          	remu	a4,a3,a0
    aba8:	01031313          	slli	t1,t1,0x10
    abac:	01035313          	srli	t1,t1,0x10
    abb0:	02a6d6b3          	divu	a3,a3,a0
    abb4:	01071713          	slli	a4,a4,0x10
    abb8:	00676333          	or	t1,a4,t1
    abbc:	02d605b3          	mul	a1,a2,a3
    abc0:	00068513          	mv	a0,a3
    abc4:	00b37c63          	bleu	a1,t1,abdc <__divdi3+0x200>
    abc8:	00680333          	add	t1,a6,t1
    abcc:	fff68513          	addi	a0,a3,-1
    abd0:	01036663          	bltu	t1,a6,abdc <__divdi3+0x200>
    abd4:	00b37463          	bleu	a1,t1,abdc <__divdi3+0x200>
    abd8:	ffe68513          	addi	a0,a3,-2
    abdc:	01079793          	slli	a5,a5,0x10
    abe0:	00a7e7b3          	or	a5,a5,a0
    abe4:	00078513          	mv	a0,a5
    abe8:	000e0593          	mv	a1,t3
    abec:	00088a63          	beqz	a7,ac00 <__divdi3+0x224>
    abf0:	40f00533          	neg	a0,a5
    abf4:	00a037b3          	snez	a5,a0
    abf8:	41c005b3          	neg	a1,t3
    abfc:	40f585b3          	sub	a1,a1,a5
    ac00:	00008067          	ret
    ac04:	010007b7          	lui	a5,0x1000
    ac08:	01000713          	li	a4,16
    ac0c:	f2f866e3          	bltu	a6,a5,ab38 <__divdi3+0x15c>
    ac10:	01800713          	li	a4,24
    ac14:	f25ff06f          	j	ab38 <__divdi3+0x15c>
    ac18:	00d81833          	sll	a6,a6,a3
    ac1c:	00f5d733          	srl	a4,a1,a5
    ac20:	00d51333          	sll	t1,a0,a3
    ac24:	00d595b3          	sll	a1,a1,a3
    ac28:	00f557b3          	srl	a5,a0,a5
    ac2c:	01085513          	srli	a0,a6,0x10
    ac30:	00b7e633          	or	a2,a5,a1
    ac34:	02a777b3          	remu	a5,a4,a0
    ac38:	01081593          	slli	a1,a6,0x10
    ac3c:	0105d593          	srli	a1,a1,0x10
    ac40:	01065e13          	srli	t3,a2,0x10
    ac44:	02a75733          	divu	a4,a4,a0
    ac48:	01079793          	slli	a5,a5,0x10
    ac4c:	01c7e7b3          	or	a5,a5,t3
    ac50:	02e586b3          	mul	a3,a1,a4
    ac54:	00070e13          	mv	t3,a4
    ac58:	00d7fe63          	bleu	a3,a5,ac74 <__divdi3+0x298>
    ac5c:	010787b3          	add	a5,a5,a6
    ac60:	fff70e13          	addi	t3,a4,-1
    ac64:	0107e863          	bltu	a5,a6,ac74 <__divdi3+0x298>
    ac68:	00d7f663          	bleu	a3,a5,ac74 <__divdi3+0x298>
    ac6c:	ffe70e13          	addi	t3,a4,-2
    ac70:	010787b3          	add	a5,a5,a6
    ac74:	40d786b3          	sub	a3,a5,a3
    ac78:	02a6f7b3          	remu	a5,a3,a0
    ac7c:	01061613          	slli	a2,a2,0x10
    ac80:	01065613          	srli	a2,a2,0x10
    ac84:	02a6d6b3          	divu	a3,a3,a0
    ac88:	01079793          	slli	a5,a5,0x10
    ac8c:	02d58733          	mul	a4,a1,a3
    ac90:	00c7e5b3          	or	a1,a5,a2
    ac94:	00068793          	mv	a5,a3
    ac98:	00e5fe63          	bleu	a4,a1,acb4 <__divdi3+0x2d8>
    ac9c:	010585b3          	add	a1,a1,a6
    aca0:	fff68793          	addi	a5,a3,-1
    aca4:	0105e863          	bltu	a1,a6,acb4 <__divdi3+0x2d8>
    aca8:	00e5f663          	bleu	a4,a1,acb4 <__divdi3+0x2d8>
    acac:	ffe68793          	addi	a5,a3,-2
    acb0:	010585b3          	add	a1,a1,a6
    acb4:	010e1e13          	slli	t3,t3,0x10
    acb8:	40e585b3          	sub	a1,a1,a4
    acbc:	00fe6e33          	or	t3,t3,a5
    acc0:	e9dff06f          	j	ab5c <__divdi3+0x180>
    acc4:	18d5e663          	bltu	a1,a3,ae50 <__divdi3+0x474>
    acc8:	000107b7          	lui	a5,0x10
    accc:	04f6f463          	bleu	a5,a3,ad14 <__divdi3+0x338>
    acd0:	0ff00813          	li	a6,255
    acd4:	00d83733          	sltu	a4,a6,a3
    acd8:	00371713          	slli	a4,a4,0x3
    acdc:	00e6d833          	srl	a6,a3,a4
    ace0:	00001797          	auipc	a5,0x1
    ace4:	2f878793          	addi	a5,a5,760 # bfd8 <__clz_tab>
    ace8:	010787b3          	add	a5,a5,a6
    acec:	0007c803          	lbu	a6,0(a5)
    acf0:	02000e13          	li	t3,32
    acf4:	00e80833          	add	a6,a6,a4
    acf8:	410e0e33          	sub	t3,t3,a6
    acfc:	020e1663          	bnez	t3,ad28 <__divdi3+0x34c>
    ad00:	00100793          	li	a5,1
    ad04:	eeb6e0e3          	bltu	a3,a1,abe4 <__divdi3+0x208>
    ad08:	00c53533          	sltu	a0,a0,a2
    ad0c:	00154793          	xori	a5,a0,1
    ad10:	ed5ff06f          	j	abe4 <__divdi3+0x208>
    ad14:	010007b7          	lui	a5,0x1000
    ad18:	01000713          	li	a4,16
    ad1c:	fcf6e0e3          	bltu	a3,a5,acdc <__divdi3+0x300>
    ad20:	01800713          	li	a4,24
    ad24:	fb9ff06f          	j	acdc <__divdi3+0x300>
    ad28:	010657b3          	srl	a5,a2,a6
    ad2c:	01c696b3          	sll	a3,a3,t3
    ad30:	00d7e6b3          	or	a3,a5,a3
    ad34:	01c59733          	sll	a4,a1,t3
    ad38:	0105d7b3          	srl	a5,a1,a6
    ad3c:	0106df93          	srli	t6,a3,0x10
    ad40:	01055833          	srl	a6,a0,a6
    ad44:	00e865b3          	or	a1,a6,a4
    ad48:	03f7f833          	remu	a6,a5,t6
    ad4c:	01069f13          	slli	t5,a3,0x10
    ad50:	010f5f13          	srli	t5,t5,0x10
    ad54:	0105d713          	srli	a4,a1,0x10
    ad58:	01c61633          	sll	a2,a2,t3
    ad5c:	03f7d7b3          	divu	a5,a5,t6
    ad60:	01081813          	slli	a6,a6,0x10
    ad64:	00e86733          	or	a4,a6,a4
    ad68:	02ff0333          	mul	t1,t5,a5
    ad6c:	00078e93          	mv	t4,a5
    ad70:	00677e63          	bleu	t1,a4,ad8c <__divdi3+0x3b0>
    ad74:	00d70733          	add	a4,a4,a3
    ad78:	fff78e93          	addi	t4,a5,-1 # ffffff <end+0xff3f27>
    ad7c:	00d76863          	bltu	a4,a3,ad8c <__divdi3+0x3b0>
    ad80:	00677663          	bleu	t1,a4,ad8c <__divdi3+0x3b0>
    ad84:	ffe78e93          	addi	t4,a5,-2
    ad88:	00d70733          	add	a4,a4,a3
    ad8c:	40670733          	sub	a4,a4,t1
    ad90:	03f77333          	remu	t1,a4,t6
    ad94:	01059593          	slli	a1,a1,0x10
    ad98:	0105d593          	srli	a1,a1,0x10
    ad9c:	03f75733          	divu	a4,a4,t6
    ada0:	01031313          	slli	t1,t1,0x10
    ada4:	00b36833          	or	a6,t1,a1
    ada8:	02ef0f33          	mul	t5,t5,a4
    adac:	00070793          	mv	a5,a4
    adb0:	01e87e63          	bleu	t5,a6,adcc <__divdi3+0x3f0>
    adb4:	00d80833          	add	a6,a6,a3
    adb8:	fff70793          	addi	a5,a4,-1
    adbc:	00d86863          	bltu	a6,a3,adcc <__divdi3+0x3f0>
    adc0:	01e87663          	bleu	t5,a6,adcc <__divdi3+0x3f0>
    adc4:	ffe70793          	addi	a5,a4,-2
    adc8:	00d80833          	add	a6,a6,a3
    adcc:	010e9e93          	slli	t4,t4,0x10
    add0:	41e80833          	sub	a6,a6,t5
    add4:	00010f37          	lui	t5,0x10
    add8:	00fee7b3          	or	a5,t4,a5
    addc:	ffff0693          	addi	a3,t5,-1 # ffff <end+0x3f27>
    ade0:	00d7f333          	and	t1,a5,a3
    ade4:	0107d593          	srli	a1,a5,0x10
    ade8:	00d676b3          	and	a3,a2,a3
    adec:	01065613          	srli	a2,a2,0x10
    adf0:	02d30eb3          	mul	t4,t1,a3
    adf4:	02d586b3          	mul	a3,a1,a3
    adf8:	010ed713          	srli	a4,t4,0x10
    adfc:	02c30333          	mul	t1,t1,a2
    ae00:	00d30333          	add	t1,t1,a3
    ae04:	00670733          	add	a4,a4,t1
    ae08:	02c585b3          	mul	a1,a1,a2
    ae0c:	00d77463          	bleu	a3,a4,ae14 <__divdi3+0x438>
    ae10:	01e585b3          	add	a1,a1,t5
    ae14:	01075693          	srli	a3,a4,0x10
    ae18:	00b685b3          	add	a1,a3,a1
    ae1c:	02b86663          	bltu	a6,a1,ae48 <__divdi3+0x46c>
    ae20:	ccb81ee3          	bne	a6,a1,aafc <__divdi3+0x120>
    ae24:	000106b7          	lui	a3,0x10
    ae28:	fff68693          	addi	a3,a3,-1 # ffff <end+0x3f27>
    ae2c:	00d77733          	and	a4,a4,a3
    ae30:	01071713          	slli	a4,a4,0x10
    ae34:	00defeb3          	and	t4,t4,a3
    ae38:	01c51533          	sll	a0,a0,t3
    ae3c:	01d70733          	add	a4,a4,t4
    ae40:	00000e13          	li	t3,0
    ae44:	dae570e3          	bleu	a4,a0,abe4 <__divdi3+0x208>
    ae48:	fff78793          	addi	a5,a5,-1
    ae4c:	cb1ff06f          	j	aafc <__divdi3+0x120>
    ae50:	00000e13          	li	t3,0
    ae54:	00000793          	li	a5,0
    ae58:	d8dff06f          	j	abe4 <__divdi3+0x208>

0000ae5c <__moddi3>:
    ae5c:	00000893          	li	a7,0
    ae60:	0005dc63          	bgez	a1,ae78 <__moddi3+0x1c>
    ae64:	40a00533          	neg	a0,a0
    ae68:	00a037b3          	snez	a5,a0
    ae6c:	40b005b3          	neg	a1,a1
    ae70:	40f585b3          	sub	a1,a1,a5
    ae74:	fff00893          	li	a7,-1
    ae78:	0006da63          	bgez	a3,ae8c <__moddi3+0x30>
    ae7c:	40c00633          	neg	a2,a2
    ae80:	00c037b3          	snez	a5,a2
    ae84:	40d006b3          	neg	a3,a3
    ae88:	40f686b3          	sub	a3,a3,a5
    ae8c:	00060313          	mv	t1,a2
    ae90:	00068713          	mv	a4,a3
    ae94:	00050793          	mv	a5,a0
    ae98:	00058813          	mv	a6,a1
    ae9c:	24069863          	bnez	a3,b0ec <__moddi3+0x290>
    aea0:	00001697          	auipc	a3,0x1
    aea4:	13868693          	addi	a3,a3,312 # bfd8 <__clz_tab>
    aea8:	0ec5f863          	bleu	a2,a1,af98 <__moddi3+0x13c>
    aeac:	00010e37          	lui	t3,0x10
    aeb0:	0dc67a63          	bleu	t3,a2,af84 <__moddi3+0x128>
    aeb4:	0ff00e13          	li	t3,255
    aeb8:	00ce7463          	bleu	a2,t3,aec0 <__moddi3+0x64>
    aebc:	00800713          	li	a4,8
    aec0:	00e65e33          	srl	t3,a2,a4
    aec4:	01c686b3          	add	a3,a3,t3
    aec8:	0006c683          	lbu	a3,0(a3)
    aecc:	02000e13          	li	t3,32
    aed0:	00e68733          	add	a4,a3,a4
    aed4:	40ee0e33          	sub	t3,t3,a4
    aed8:	000e0c63          	beqz	t3,aef0 <__moddi3+0x94>
    aedc:	01c595b3          	sll	a1,a1,t3
    aee0:	00e55733          	srl	a4,a0,a4
    aee4:	01c61333          	sll	t1,a2,t3
    aee8:	00b76833          	or	a6,a4,a1
    aeec:	01c517b3          	sll	a5,a0,t3
    aef0:	01035613          	srli	a2,t1,0x10
    aef4:	02c855b3          	divu	a1,a6,a2
    aef8:	01031513          	slli	a0,t1,0x10
    aefc:	01055513          	srli	a0,a0,0x10
    af00:	0107d713          	srli	a4,a5,0x10
    af04:	02c876b3          	remu	a3,a6,a2
    af08:	02b505b3          	mul	a1,a0,a1
    af0c:	01069693          	slli	a3,a3,0x10
    af10:	00e6e733          	or	a4,a3,a4
    af14:	00b77a63          	bleu	a1,a4,af28 <__moddi3+0xcc>
    af18:	00670733          	add	a4,a4,t1
    af1c:	00676663          	bltu	a4,t1,af28 <__moddi3+0xcc>
    af20:	00b77463          	bleu	a1,a4,af28 <__moddi3+0xcc>
    af24:	00670733          	add	a4,a4,t1
    af28:	40b70733          	sub	a4,a4,a1
    af2c:	02c776b3          	remu	a3,a4,a2
    af30:	01079793          	slli	a5,a5,0x10
    af34:	0107d793          	srli	a5,a5,0x10
    af38:	02c75733          	divu	a4,a4,a2
    af3c:	02e50733          	mul	a4,a0,a4
    af40:	01069513          	slli	a0,a3,0x10
    af44:	00f567b3          	or	a5,a0,a5
    af48:	00e7fa63          	bleu	a4,a5,af5c <__moddi3+0x100>
    af4c:	006787b3          	add	a5,a5,t1
    af50:	0067e663          	bltu	a5,t1,af5c <__moddi3+0x100>
    af54:	00e7f463          	bleu	a4,a5,af5c <__moddi3+0x100>
    af58:	006787b3          	add	a5,a5,t1
    af5c:	40e787b3          	sub	a5,a5,a4
    af60:	01c7d533          	srl	a0,a5,t3
    af64:	00000593          	li	a1,0
    af68:	00088c63          	beqz	a7,af80 <__moddi3+0x124>
    af6c:	40a007b3          	neg	a5,a0
    af70:	00f03733          	snez	a4,a5
    af74:	40b005b3          	neg	a1,a1
    af78:	00078513          	mv	a0,a5
    af7c:	40e585b3          	sub	a1,a1,a4
    af80:	00008067          	ret
    af84:	01000e37          	lui	t3,0x1000
    af88:	01000713          	li	a4,16
    af8c:	f3c66ae3          	bltu	a2,t3,aec0 <__moddi3+0x64>
    af90:	01800713          	li	a4,24
    af94:	f2dff06f          	j	aec0 <__moddi3+0x64>
    af98:	00061663          	bnez	a2,afa4 <__moddi3+0x148>
    af9c:	00100313          	li	t1,1
    afa0:	02e35333          	divu	t1,t1,a4
    afa4:	00010637          	lui	a2,0x10
    afa8:	0ac37263          	bleu	a2,t1,b04c <__moddi3+0x1f0>
    afac:	0ff00613          	li	a2,255
    afb0:	00667463          	bleu	t1,a2,afb8 <__moddi3+0x15c>
    afb4:	00800713          	li	a4,8
    afb8:	00e35633          	srl	a2,t1,a4
    afbc:	00c686b3          	add	a3,a3,a2
    afc0:	0006c803          	lbu	a6,0(a3)
    afc4:	02000e13          	li	t3,32
    afc8:	00e80833          	add	a6,a6,a4
    afcc:	410e0e33          	sub	t3,t3,a6
    afd0:	080e1863          	bnez	t3,b060 <__moddi3+0x204>
    afd4:	406585b3          	sub	a1,a1,t1
    afd8:	01035693          	srli	a3,t1,0x10
    afdc:	01031513          	slli	a0,t1,0x10
    afe0:	01055513          	srli	a0,a0,0x10
    afe4:	0107d613          	srli	a2,a5,0x10
    afe8:	02d5f733          	remu	a4,a1,a3
    afec:	02d5d5b3          	divu	a1,a1,a3
    aff0:	01071713          	slli	a4,a4,0x10
    aff4:	00c76733          	or	a4,a4,a2
    aff8:	02b505b3          	mul	a1,a0,a1
    affc:	00b77a63          	bleu	a1,a4,b010 <__moddi3+0x1b4>
    b000:	00670733          	add	a4,a4,t1
    b004:	00676663          	bltu	a4,t1,b010 <__moddi3+0x1b4>
    b008:	00b77463          	bleu	a1,a4,b010 <__moddi3+0x1b4>
    b00c:	00670733          	add	a4,a4,t1
    b010:	40b705b3          	sub	a1,a4,a1
    b014:	02d5f733          	remu	a4,a1,a3
    b018:	01079793          	slli	a5,a5,0x10
    b01c:	0107d793          	srli	a5,a5,0x10
    b020:	02d5d5b3          	divu	a1,a1,a3
    b024:	02b505b3          	mul	a1,a0,a1
    b028:	01071513          	slli	a0,a4,0x10
    b02c:	00f567b3          	or	a5,a0,a5
    b030:	00b7fa63          	bleu	a1,a5,b044 <__moddi3+0x1e8>
    b034:	006787b3          	add	a5,a5,t1
    b038:	0067e663          	bltu	a5,t1,b044 <__moddi3+0x1e8>
    b03c:	00b7f463          	bleu	a1,a5,b044 <__moddi3+0x1e8>
    b040:	006787b3          	add	a5,a5,t1
    b044:	40b787b3          	sub	a5,a5,a1
    b048:	f19ff06f          	j	af60 <__moddi3+0x104>
    b04c:	01000637          	lui	a2,0x1000
    b050:	01000713          	li	a4,16
    b054:	f6c362e3          	bltu	t1,a2,afb8 <__moddi3+0x15c>
    b058:	01800713          	li	a4,24
    b05c:	f5dff06f          	j	afb8 <__moddi3+0x15c>
    b060:	01c31333          	sll	t1,t1,t3
    b064:	0105d633          	srl	a2,a1,a6
    b068:	01c517b3          	sll	a5,a0,t3
    b06c:	01055833          	srl	a6,a0,a6
    b070:	01035513          	srli	a0,t1,0x10
    b074:	02a67733          	remu	a4,a2,a0
    b078:	01c595b3          	sll	a1,a1,t3
    b07c:	00b86833          	or	a6,a6,a1
    b080:	01031593          	slli	a1,t1,0x10
    b084:	0105d593          	srli	a1,a1,0x10
    b088:	01085693          	srli	a3,a6,0x10
    b08c:	02a65633          	divu	a2,a2,a0
    b090:	01071713          	slli	a4,a4,0x10
    b094:	00d76733          	or	a4,a4,a3
    b098:	02c58633          	mul	a2,a1,a2
    b09c:	00c77a63          	bleu	a2,a4,b0b0 <__moddi3+0x254>
    b0a0:	00670733          	add	a4,a4,t1
    b0a4:	00676663          	bltu	a4,t1,b0b0 <__moddi3+0x254>
    b0a8:	00c77463          	bleu	a2,a4,b0b0 <__moddi3+0x254>
    b0ac:	00670733          	add	a4,a4,t1
    b0b0:	40c706b3          	sub	a3,a4,a2
    b0b4:	02a6f733          	remu	a4,a3,a0
    b0b8:	01081813          	slli	a6,a6,0x10
    b0bc:	01085813          	srli	a6,a6,0x10
    b0c0:	02a6d6b3          	divu	a3,a3,a0
    b0c4:	01071713          	slli	a4,a4,0x10
    b0c8:	02d586b3          	mul	a3,a1,a3
    b0cc:	010765b3          	or	a1,a4,a6
    b0d0:	00d5fa63          	bleu	a3,a1,b0e4 <__moddi3+0x288>
    b0d4:	006585b3          	add	a1,a1,t1
    b0d8:	0065e663          	bltu	a1,t1,b0e4 <__moddi3+0x288>
    b0dc:	00d5f463          	bleu	a3,a1,b0e4 <__moddi3+0x288>
    b0e0:	006585b3          	add	a1,a1,t1
    b0e4:	40d585b3          	sub	a1,a1,a3
    b0e8:	ef1ff06f          	j	afd8 <__moddi3+0x17c>
    b0ec:	e6d5eee3          	bltu	a1,a3,af68 <__moddi3+0x10c>
    b0f0:	00010737          	lui	a4,0x10
    b0f4:	04e6fc63          	bleu	a4,a3,b14c <__moddi3+0x2f0>
    b0f8:	0ff00f13          	li	t5,255
    b0fc:	00df3733          	sltu	a4,t5,a3
    b100:	00371713          	slli	a4,a4,0x3
    b104:	00e6de33          	srl	t3,a3,a4
    b108:	00001317          	auipc	t1,0x1
    b10c:	ed030313          	addi	t1,t1,-304 # bfd8 <__clz_tab>
    b110:	01c30333          	add	t1,t1,t3
    b114:	00034f03          	lbu	t5,0(t1)
    b118:	02000e93          	li	t4,32
    b11c:	00ef0f33          	add	t5,t5,a4
    b120:	41ee8eb3          	sub	t4,t4,t5
    b124:	020e9e63          	bnez	t4,b160 <__moddi3+0x304>
    b128:	00b6e463          	bltu	a3,a1,b130 <__moddi3+0x2d4>
    b12c:	00c56a63          	bltu	a0,a2,b140 <__moddi3+0x2e4>
    b130:	40c507b3          	sub	a5,a0,a2
    b134:	40d585b3          	sub	a1,a1,a3
    b138:	00f53533          	sltu	a0,a0,a5
    b13c:	40a58833          	sub	a6,a1,a0
    b140:	00078513          	mv	a0,a5
    b144:	00080593          	mv	a1,a6
    b148:	e21ff06f          	j	af68 <__moddi3+0x10c>
    b14c:	01000337          	lui	t1,0x1000
    b150:	01000713          	li	a4,16
    b154:	fa66e8e3          	bltu	a3,t1,b104 <__moddi3+0x2a8>
    b158:	01800713          	li	a4,24
    b15c:	fa9ff06f          	j	b104 <__moddi3+0x2a8>
    b160:	01e65733          	srl	a4,a2,t5
    b164:	01d696b3          	sll	a3,a3,t4
    b168:	00d766b3          	or	a3,a4,a3
    b16c:	0106d813          	srli	a6,a3,0x10
    b170:	01e5d733          	srl	a4,a1,t5
    b174:	03077e33          	remu	t3,a4,a6
    b178:	01d595b3          	sll	a1,a1,t4
    b17c:	01e557b3          	srl	a5,a0,t5
    b180:	00b7e7b3          	or	a5,a5,a1
    b184:	01069593          	slli	a1,a3,0x10
    b188:	0105d593          	srli	a1,a1,0x10
    b18c:	0107d313          	srli	t1,a5,0x10
    b190:	01d61633          	sll	a2,a2,t4
    b194:	01d51533          	sll	a0,a0,t4
    b198:	03075733          	divu	a4,a4,a6
    b19c:	010e1e13          	slli	t3,t3,0x10
    b1a0:	006e6333          	or	t1,t3,t1
    b1a4:	02e58fb3          	mul	t6,a1,a4
    b1a8:	00070e13          	mv	t3,a4
    b1ac:	01f37e63          	bleu	t6,t1,b1c8 <__moddi3+0x36c>
    b1b0:	00d30333          	add	t1,t1,a3
    b1b4:	fff70e13          	addi	t3,a4,-1 # ffff <end+0x3f27>
    b1b8:	00d36863          	bltu	t1,a3,b1c8 <__moddi3+0x36c>
    b1bc:	01f37663          	bleu	t6,t1,b1c8 <__moddi3+0x36c>
    b1c0:	ffe70e13          	addi	t3,a4,-2
    b1c4:	00d30333          	add	t1,t1,a3
    b1c8:	41f30333          	sub	t1,t1,t6
    b1cc:	03037fb3          	remu	t6,t1,a6
    b1d0:	01079793          	slli	a5,a5,0x10
    b1d4:	0107d793          	srli	a5,a5,0x10
    b1d8:	03035333          	divu	t1,t1,a6
    b1dc:	010f9f93          	slli	t6,t6,0x10
    b1e0:	00ffefb3          	or	t6,t6,a5
    b1e4:	026585b3          	mul	a1,a1,t1
    b1e8:	00030793          	mv	a5,t1
    b1ec:	00bffe63          	bleu	a1,t6,b208 <__moddi3+0x3ac>
    b1f0:	00df8fb3          	add	t6,t6,a3
    b1f4:	fff30793          	addi	a5,t1,-1 # ffffff <end+0xff3f27>
    b1f8:	00dfe863          	bltu	t6,a3,b208 <__moddi3+0x3ac>
    b1fc:	00bff663          	bleu	a1,t6,b208 <__moddi3+0x3ac>
    b200:	ffe30793          	addi	a5,t1,-2
    b204:	00df8fb3          	add	t6,t6,a3
    b208:	40bf85b3          	sub	a1,t6,a1
    b20c:	010e1e13          	slli	t3,t3,0x10
    b210:	00010fb7          	lui	t6,0x10
    b214:	00fe6e33          	or	t3,t3,a5
    b218:	ffff8793          	addi	a5,t6,-1 # ffff <end+0x3f27>
    b21c:	00fe7333          	and	t1,t3,a5
    b220:	01065813          	srli	a6,a2,0x10
    b224:	010e5e13          	srli	t3,t3,0x10
    b228:	00f677b3          	and	a5,a2,a5
    b22c:	02f30733          	mul	a4,t1,a5
    b230:	02fe07b3          	mul	a5,t3,a5
    b234:	03030333          	mul	t1,t1,a6
    b238:	030e0e33          	mul	t3,t3,a6
    b23c:	00f30333          	add	t1,t1,a5
    b240:	01075813          	srli	a6,a4,0x10
    b244:	00680833          	add	a6,a6,t1
    b248:	00f87463          	bleu	a5,a6,b250 <__moddi3+0x3f4>
    b24c:	01fe0e33          	add	t3,t3,t6
    b250:	01085793          	srli	a5,a6,0x10
    b254:	01c78e33          	add	t3,a5,t3
    b258:	000107b7          	lui	a5,0x10
    b25c:	fff78793          	addi	a5,a5,-1 # ffff <end+0x3f27>
    b260:	00f87833          	and	a6,a6,a5
    b264:	01081813          	slli	a6,a6,0x10
    b268:	00f77733          	and	a4,a4,a5
    b26c:	00e80733          	add	a4,a6,a4
    b270:	01c5e663          	bltu	a1,t3,b27c <__moddi3+0x420>
    b274:	01c59e63          	bne	a1,t3,b290 <__moddi3+0x434>
    b278:	00e57c63          	bleu	a4,a0,b290 <__moddi3+0x434>
    b27c:	40c70633          	sub	a2,a4,a2
    b280:	00c73733          	sltu	a4,a4,a2
    b284:	00d70733          	add	a4,a4,a3
    b288:	40ee0e33          	sub	t3,t3,a4
    b28c:	00060713          	mv	a4,a2
    b290:	40e50733          	sub	a4,a0,a4
    b294:	00e53533          	sltu	a0,a0,a4
    b298:	41c585b3          	sub	a1,a1,t3
    b29c:	40a585b3          	sub	a1,a1,a0
    b2a0:	01e597b3          	sll	a5,a1,t5
    b2a4:	01d75733          	srl	a4,a4,t4
    b2a8:	00e7e533          	or	a0,a5,a4
    b2ac:	01d5d5b3          	srl	a1,a1,t4
    b2b0:	cb9ff06f          	j	af68 <__moddi3+0x10c>

0000b2b4 <__udivdi3>:
    b2b4:	00058793          	mv	a5,a1
    b2b8:	00060813          	mv	a6,a2
    b2bc:	00068713          	mv	a4,a3
    b2c0:	00050313          	mv	t1,a0
    b2c4:	28069663          	bnez	a3,b550 <__udivdi3+0x29c>
    b2c8:	00001897          	auipc	a7,0x1
    b2cc:	d1088893          	addi	a7,a7,-752 # bfd8 <__clz_tab>
    b2d0:	0ec5f663          	bleu	a2,a1,b3bc <__udivdi3+0x108>
    b2d4:	00010737          	lui	a4,0x10
    b2d8:	0ce67863          	bleu	a4,a2,b3a8 <__udivdi3+0xf4>
    b2dc:	0ff00713          	li	a4,255
    b2e0:	00c73733          	sltu	a4,a4,a2
    b2e4:	00371713          	slli	a4,a4,0x3
    b2e8:	00e656b3          	srl	a3,a2,a4
    b2ec:	00d888b3          	add	a7,a7,a3
    b2f0:	0008c683          	lbu	a3,0(a7)
    b2f4:	00e68733          	add	a4,a3,a4
    b2f8:	02000693          	li	a3,32
    b2fc:	40e686b3          	sub	a3,a3,a4
    b300:	00068c63          	beqz	a3,b318 <__udivdi3+0x64>
    b304:	00d797b3          	sll	a5,a5,a3
    b308:	00e55733          	srl	a4,a0,a4
    b30c:	00d61833          	sll	a6,a2,a3
    b310:	00f765b3          	or	a1,a4,a5
    b314:	00d51333          	sll	t1,a0,a3
    b318:	01085513          	srli	a0,a6,0x10
    b31c:	02a5f733          	remu	a4,a1,a0
    b320:	01081613          	slli	a2,a6,0x10
    b324:	01065613          	srli	a2,a2,0x10
    b328:	01035693          	srli	a3,t1,0x10
    b32c:	02a5d5b3          	divu	a1,a1,a0
    b330:	01071713          	slli	a4,a4,0x10
    b334:	00d766b3          	or	a3,a4,a3
    b338:	02b607b3          	mul	a5,a2,a1
    b33c:	00058713          	mv	a4,a1
    b340:	00f6fe63          	bleu	a5,a3,b35c <__udivdi3+0xa8>
    b344:	010686b3          	add	a3,a3,a6
    b348:	fff58713          	addi	a4,a1,-1
    b34c:	0106e863          	bltu	a3,a6,b35c <__udivdi3+0xa8>
    b350:	00f6f663          	bleu	a5,a3,b35c <__udivdi3+0xa8>
    b354:	ffe58713          	addi	a4,a1,-2
    b358:	010686b3          	add	a3,a3,a6
    b35c:	40f686b3          	sub	a3,a3,a5
    b360:	02a6f7b3          	remu	a5,a3,a0
    b364:	01031313          	slli	t1,t1,0x10
    b368:	01035313          	srli	t1,t1,0x10
    b36c:	02a6d6b3          	divu	a3,a3,a0
    b370:	01079793          	slli	a5,a5,0x10
    b374:	0067e333          	or	t1,a5,t1
    b378:	02d605b3          	mul	a1,a2,a3
    b37c:	00068513          	mv	a0,a3
    b380:	00b37c63          	bleu	a1,t1,b398 <__udivdi3+0xe4>
    b384:	00680333          	add	t1,a6,t1
    b388:	fff68513          	addi	a0,a3,-1
    b38c:	01036663          	bltu	t1,a6,b398 <__udivdi3+0xe4>
    b390:	00b37463          	bleu	a1,t1,b398 <__udivdi3+0xe4>
    b394:	ffe68513          	addi	a0,a3,-2
    b398:	01071713          	slli	a4,a4,0x10
    b39c:	00a76733          	or	a4,a4,a0
    b3a0:	00000593          	li	a1,0
    b3a4:	0e40006f          	j	b488 <__udivdi3+0x1d4>
    b3a8:	010006b7          	lui	a3,0x1000
    b3ac:	01000713          	li	a4,16
    b3b0:	f2d66ce3          	bltu	a2,a3,b2e8 <__udivdi3+0x34>
    b3b4:	01800713          	li	a4,24
    b3b8:	f31ff06f          	j	b2e8 <__udivdi3+0x34>
    b3bc:	00061663          	bnez	a2,b3c8 <__udivdi3+0x114>
    b3c0:	00100693          	li	a3,1
    b3c4:	02c6d833          	divu	a6,a3,a2
    b3c8:	000106b7          	lui	a3,0x10
    b3cc:	0cd87263          	bleu	a3,a6,b490 <__udivdi3+0x1dc>
    b3d0:	0ff00693          	li	a3,255
    b3d4:	0106f463          	bleu	a6,a3,b3dc <__udivdi3+0x128>
    b3d8:	00800713          	li	a4,8
    b3dc:	00e856b3          	srl	a3,a6,a4
    b3e0:	00d888b3          	add	a7,a7,a3
    b3e4:	0008c683          	lbu	a3,0(a7)
    b3e8:	00e686b3          	add	a3,a3,a4
    b3ec:	02000713          	li	a4,32
    b3f0:	40d70733          	sub	a4,a4,a3
    b3f4:	0a071863          	bnez	a4,b4a4 <__udivdi3+0x1f0>
    b3f8:	410787b3          	sub	a5,a5,a6
    b3fc:	00100593          	li	a1,1
    b400:	01085613          	srli	a2,a6,0x10
    b404:	01081893          	slli	a7,a6,0x10
    b408:	0108d893          	srli	a7,a7,0x10
    b40c:	01035693          	srli	a3,t1,0x10
    b410:	02c7f733          	remu	a4,a5,a2
    b414:	02c7d7b3          	divu	a5,a5,a2
    b418:	01071713          	slli	a4,a4,0x10
    b41c:	00d766b3          	or	a3,a4,a3
    b420:	02f88533          	mul	a0,a7,a5
    b424:	00078713          	mv	a4,a5
    b428:	00a6fe63          	bleu	a0,a3,b444 <__udivdi3+0x190>
    b42c:	010686b3          	add	a3,a3,a6
    b430:	fff78713          	addi	a4,a5,-1
    b434:	0106e863          	bltu	a3,a6,b444 <__udivdi3+0x190>
    b438:	00a6f663          	bleu	a0,a3,b444 <__udivdi3+0x190>
    b43c:	ffe78713          	addi	a4,a5,-2
    b440:	010686b3          	add	a3,a3,a6
    b444:	40a686b3          	sub	a3,a3,a0
    b448:	02c6f7b3          	remu	a5,a3,a2
    b44c:	01031313          	slli	t1,t1,0x10
    b450:	01035313          	srli	t1,t1,0x10
    b454:	02c6d6b3          	divu	a3,a3,a2
    b458:	01079793          	slli	a5,a5,0x10
    b45c:	0067e333          	or	t1,a5,t1
    b460:	02d888b3          	mul	a7,a7,a3
    b464:	00068513          	mv	a0,a3
    b468:	01137c63          	bleu	a7,t1,b480 <__udivdi3+0x1cc>
    b46c:	00680333          	add	t1,a6,t1
    b470:	fff68513          	addi	a0,a3,-1 # ffff <end+0x3f27>
    b474:	01036663          	bltu	t1,a6,b480 <__udivdi3+0x1cc>
    b478:	01137463          	bleu	a7,t1,b480 <__udivdi3+0x1cc>
    b47c:	ffe68513          	addi	a0,a3,-2
    b480:	01071713          	slli	a4,a4,0x10
    b484:	00a76733          	or	a4,a4,a0
    b488:	00070513          	mv	a0,a4
    b48c:	00008067          	ret
    b490:	010006b7          	lui	a3,0x1000
    b494:	01000713          	li	a4,16
    b498:	f4d862e3          	bltu	a6,a3,b3dc <__udivdi3+0x128>
    b49c:	01800713          	li	a4,24
    b4a0:	f3dff06f          	j	b3dc <__udivdi3+0x128>
    b4a4:	00e81833          	sll	a6,a6,a4
    b4a8:	00d7d5b3          	srl	a1,a5,a3
    b4ac:	00e51333          	sll	t1,a0,a4
    b4b0:	00d556b3          	srl	a3,a0,a3
    b4b4:	01085513          	srli	a0,a6,0x10
    b4b8:	00e797b3          	sll	a5,a5,a4
    b4bc:	02a5f733          	remu	a4,a1,a0
    b4c0:	00f6e8b3          	or	a7,a3,a5
    b4c4:	01081793          	slli	a5,a6,0x10
    b4c8:	0107d793          	srli	a5,a5,0x10
    b4cc:	0108d613          	srli	a2,a7,0x10
    b4d0:	02a5d5b3          	divu	a1,a1,a0
    b4d4:	01071713          	slli	a4,a4,0x10
    b4d8:	00c76733          	or	a4,a4,a2
    b4dc:	02b786b3          	mul	a3,a5,a1
    b4e0:	00058613          	mv	a2,a1
    b4e4:	00d77e63          	bleu	a3,a4,b500 <__udivdi3+0x24c>
    b4e8:	01070733          	add	a4,a4,a6
    b4ec:	fff58613          	addi	a2,a1,-1
    b4f0:	01076863          	bltu	a4,a6,b500 <__udivdi3+0x24c>
    b4f4:	00d77663          	bleu	a3,a4,b500 <__udivdi3+0x24c>
    b4f8:	ffe58613          	addi	a2,a1,-2
    b4fc:	01070733          	add	a4,a4,a6
    b500:	40d706b3          	sub	a3,a4,a3
    b504:	02a6f733          	remu	a4,a3,a0
    b508:	01089893          	slli	a7,a7,0x10
    b50c:	0108d893          	srli	a7,a7,0x10
    b510:	02a6d6b3          	divu	a3,a3,a0
    b514:	01071713          	slli	a4,a4,0x10
    b518:	02d785b3          	mul	a1,a5,a3
    b51c:	011767b3          	or	a5,a4,a7
    b520:	00068713          	mv	a4,a3
    b524:	00b7fe63          	bleu	a1,a5,b540 <__udivdi3+0x28c>
    b528:	010787b3          	add	a5,a5,a6
    b52c:	fff68713          	addi	a4,a3,-1 # ffffff <end+0xff3f27>
    b530:	0107e863          	bltu	a5,a6,b540 <__udivdi3+0x28c>
    b534:	00b7f663          	bleu	a1,a5,b540 <__udivdi3+0x28c>
    b538:	ffe68713          	addi	a4,a3,-2
    b53c:	010787b3          	add	a5,a5,a6
    b540:	40b787b3          	sub	a5,a5,a1
    b544:	01061593          	slli	a1,a2,0x10
    b548:	00e5e5b3          	or	a1,a1,a4
    b54c:	eb5ff06f          	j	b400 <__udivdi3+0x14c>
    b550:	18d5e663          	bltu	a1,a3,b6dc <__udivdi3+0x428>
    b554:	00010737          	lui	a4,0x10
    b558:	04e6f463          	bleu	a4,a3,b5a0 <__udivdi3+0x2ec>
    b55c:	0ff00813          	li	a6,255
    b560:	00d83733          	sltu	a4,a6,a3
    b564:	00371713          	slli	a4,a4,0x3
    b568:	00e6d833          	srl	a6,a3,a4
    b56c:	00001597          	auipc	a1,0x1
    b570:	a6c58593          	addi	a1,a1,-1428 # bfd8 <__clz_tab>
    b574:	010585b3          	add	a1,a1,a6
    b578:	0005c803          	lbu	a6,0(a1)
    b57c:	02000593          	li	a1,32
    b580:	00e80833          	add	a6,a6,a4
    b584:	410585b3          	sub	a1,a1,a6
    b588:	02059663          	bnez	a1,b5b4 <__udivdi3+0x300>
    b58c:	00100713          	li	a4,1
    b590:	eef6ece3          	bltu	a3,a5,b488 <__udivdi3+0x1d4>
    b594:	00c53533          	sltu	a0,a0,a2
    b598:	00154713          	xori	a4,a0,1
    b59c:	eedff06f          	j	b488 <__udivdi3+0x1d4>
    b5a0:	010005b7          	lui	a1,0x1000
    b5a4:	01000713          	li	a4,16
    b5a8:	fcb6e0e3          	bltu	a3,a1,b568 <__udivdi3+0x2b4>
    b5ac:	01800713          	li	a4,24
    b5b0:	fb9ff06f          	j	b568 <__udivdi3+0x2b4>
    b5b4:	01065733          	srl	a4,a2,a6
    b5b8:	00b696b3          	sll	a3,a3,a1
    b5bc:	00d766b3          	or	a3,a4,a3
    b5c0:	0106de93          	srli	t4,a3,0x10
    b5c4:	0107d733          	srl	a4,a5,a6
    b5c8:	03d778b3          	remu	a7,a4,t4
    b5cc:	00b797b3          	sll	a5,a5,a1
    b5d0:	01055833          	srl	a6,a0,a6
    b5d4:	00f86333          	or	t1,a6,a5
    b5d8:	01069793          	slli	a5,a3,0x10
    b5dc:	0107d793          	srli	a5,a5,0x10
    b5e0:	01035813          	srli	a6,t1,0x10
    b5e4:	00b61633          	sll	a2,a2,a1
    b5e8:	03d75733          	divu	a4,a4,t4
    b5ec:	01089893          	slli	a7,a7,0x10
    b5f0:	0108e833          	or	a6,a7,a6
    b5f4:	02e78f33          	mul	t5,a5,a4
    b5f8:	00070e13          	mv	t3,a4
    b5fc:	01e87e63          	bleu	t5,a6,b618 <__udivdi3+0x364>
    b600:	00d80833          	add	a6,a6,a3
    b604:	fff70e13          	addi	t3,a4,-1 # ffff <end+0x3f27>
    b608:	00d86863          	bltu	a6,a3,b618 <__udivdi3+0x364>
    b60c:	01e87663          	bleu	t5,a6,b618 <__udivdi3+0x364>
    b610:	ffe70e13          	addi	t3,a4,-2
    b614:	00d80833          	add	a6,a6,a3
    b618:	41e80833          	sub	a6,a6,t5
    b61c:	03d878b3          	remu	a7,a6,t4
    b620:	03d85833          	divu	a6,a6,t4
    b624:	01089893          	slli	a7,a7,0x10
    b628:	03078eb3          	mul	t4,a5,a6
    b62c:	01031793          	slli	a5,t1,0x10
    b630:	0107d793          	srli	a5,a5,0x10
    b634:	00f8e7b3          	or	a5,a7,a5
    b638:	00080713          	mv	a4,a6
    b63c:	01d7fe63          	bleu	t4,a5,b658 <__udivdi3+0x3a4>
    b640:	00d787b3          	add	a5,a5,a3
    b644:	fff80713          	addi	a4,a6,-1
    b648:	00d7e863          	bltu	a5,a3,b658 <__udivdi3+0x3a4>
    b64c:	01d7f663          	bleu	t4,a5,b658 <__udivdi3+0x3a4>
    b650:	ffe80713          	addi	a4,a6,-2
    b654:	00d787b3          	add	a5,a5,a3
    b658:	010e1e13          	slli	t3,t3,0x10
    b65c:	41d787b3          	sub	a5,a5,t4
    b660:	00010eb7          	lui	t4,0x10
    b664:	00ee6733          	or	a4,t3,a4
    b668:	fffe8813          	addi	a6,t4,-1 # ffff <end+0x3f27>
    b66c:	01077333          	and	t1,a4,a6
    b670:	01075893          	srli	a7,a4,0x10
    b674:	01067833          	and	a6,a2,a6
    b678:	01065613          	srli	a2,a2,0x10
    b67c:	03030e33          	mul	t3,t1,a6
    b680:	03088833          	mul	a6,a7,a6
    b684:	010e5693          	srli	a3,t3,0x10
    b688:	02c30333          	mul	t1,t1,a2
    b68c:	01030333          	add	t1,t1,a6
    b690:	006686b3          	add	a3,a3,t1
    b694:	02c888b3          	mul	a7,a7,a2
    b698:	0106f463          	bleu	a6,a3,b6a0 <__udivdi3+0x3ec>
    b69c:	01d888b3          	add	a7,a7,t4
    b6a0:	0106d613          	srli	a2,a3,0x10
    b6a4:	011608b3          	add	a7,a2,a7
    b6a8:	0317e663          	bltu	a5,a7,b6d4 <__udivdi3+0x420>
    b6ac:	cf179ae3          	bne	a5,a7,b3a0 <__udivdi3+0xec>
    b6b0:	000107b7          	lui	a5,0x10
    b6b4:	fff78793          	addi	a5,a5,-1 # ffff <end+0x3f27>
    b6b8:	00f6f6b3          	and	a3,a3,a5
    b6bc:	01069693          	slli	a3,a3,0x10
    b6c0:	00fe7e33          	and	t3,t3,a5
    b6c4:	00b51533          	sll	a0,a0,a1
    b6c8:	01c686b3          	add	a3,a3,t3
    b6cc:	00000593          	li	a1,0
    b6d0:	dad57ce3          	bleu	a3,a0,b488 <__udivdi3+0x1d4>
    b6d4:	fff70713          	addi	a4,a4,-1
    b6d8:	cc9ff06f          	j	b3a0 <__udivdi3+0xec>
    b6dc:	00000593          	li	a1,0
    b6e0:	00000713          	li	a4,0
    b6e4:	da5ff06f          	j	b488 <__udivdi3+0x1d4>

0000b6e8 <__umoddi3>:
    b6e8:	00060893          	mv	a7,a2
    b6ec:	00068713          	mv	a4,a3
    b6f0:	00050793          	mv	a5,a0
    b6f4:	00058813          	mv	a6,a1
    b6f8:	22069c63          	bnez	a3,b930 <__umoddi3+0x248>
    b6fc:	00001697          	auipc	a3,0x1
    b700:	8dc68693          	addi	a3,a3,-1828 # bfd8 <__clz_tab>
    b704:	0cc5fc63          	bleu	a2,a1,b7dc <__umoddi3+0xf4>
    b708:	00010337          	lui	t1,0x10
    b70c:	0a667e63          	bleu	t1,a2,b7c8 <__umoddi3+0xe0>
    b710:	0ff00313          	li	t1,255
    b714:	00c37463          	bleu	a2,t1,b71c <__umoddi3+0x34>
    b718:	00800713          	li	a4,8
    b71c:	00e65333          	srl	t1,a2,a4
    b720:	006686b3          	add	a3,a3,t1
    b724:	0006ce03          	lbu	t3,0(a3)
    b728:	02000313          	li	t1,32
    b72c:	00ee0e33          	add	t3,t3,a4
    b730:	41c30333          	sub	t1,t1,t3
    b734:	00030c63          	beqz	t1,b74c <__umoddi3+0x64>
    b738:	006595b3          	sll	a1,a1,t1
    b73c:	01c55e33          	srl	t3,a0,t3
    b740:	006618b3          	sll	a7,a2,t1
    b744:	00be6833          	or	a6,t3,a1
    b748:	006517b3          	sll	a5,a0,t1
    b74c:	0108d613          	srli	a2,a7,0x10
    b750:	02c87733          	remu	a4,a6,a2
    b754:	01089513          	slli	a0,a7,0x10
    b758:	01055513          	srli	a0,a0,0x10
    b75c:	0107d693          	srli	a3,a5,0x10
    b760:	02c85833          	divu	a6,a6,a2
    b764:	01071713          	slli	a4,a4,0x10
    b768:	00d766b3          	or	a3,a4,a3
    b76c:	03050833          	mul	a6,a0,a6
    b770:	0106fa63          	bleu	a6,a3,b784 <__umoddi3+0x9c>
    b774:	011686b3          	add	a3,a3,a7
    b778:	0116e663          	bltu	a3,a7,b784 <__umoddi3+0x9c>
    b77c:	0106f463          	bleu	a6,a3,b784 <__umoddi3+0x9c>
    b780:	011686b3          	add	a3,a3,a7
    b784:	410686b3          	sub	a3,a3,a6
    b788:	02c6f733          	remu	a4,a3,a2
    b78c:	01079793          	slli	a5,a5,0x10
    b790:	0107d793          	srli	a5,a5,0x10
    b794:	02c6d6b3          	divu	a3,a3,a2
    b798:	02d506b3          	mul	a3,a0,a3
    b79c:	01071513          	slli	a0,a4,0x10
    b7a0:	00f567b3          	or	a5,a0,a5
    b7a4:	00d7fa63          	bleu	a3,a5,b7b8 <__umoddi3+0xd0>
    b7a8:	011787b3          	add	a5,a5,a7
    b7ac:	0117e663          	bltu	a5,a7,b7b8 <__umoddi3+0xd0>
    b7b0:	00d7f463          	bleu	a3,a5,b7b8 <__umoddi3+0xd0>
    b7b4:	011787b3          	add	a5,a5,a7
    b7b8:	40d787b3          	sub	a5,a5,a3
    b7bc:	0067d533          	srl	a0,a5,t1
    b7c0:	00000593          	li	a1,0
    b7c4:	00008067          	ret
    b7c8:	01000337          	lui	t1,0x1000
    b7cc:	01000713          	li	a4,16
    b7d0:	f46666e3          	bltu	a2,t1,b71c <__umoddi3+0x34>
    b7d4:	01800713          	li	a4,24
    b7d8:	f45ff06f          	j	b71c <__umoddi3+0x34>
    b7dc:	00061663          	bnez	a2,b7e8 <__umoddi3+0x100>
    b7e0:	00100613          	li	a2,1
    b7e4:	031658b3          	divu	a7,a2,a7
    b7e8:	00010637          	lui	a2,0x10
    b7ec:	0ac8f263          	bleu	a2,a7,b890 <__umoddi3+0x1a8>
    b7f0:	0ff00613          	li	a2,255
    b7f4:	01167463          	bleu	a7,a2,b7fc <__umoddi3+0x114>
    b7f8:	00800713          	li	a4,8
    b7fc:	00e8d633          	srl	a2,a7,a4
    b800:	00c686b3          	add	a3,a3,a2
    b804:	0006ce03          	lbu	t3,0(a3)
    b808:	02000313          	li	t1,32
    b80c:	00ee0e33          	add	t3,t3,a4
    b810:	41c30333          	sub	t1,t1,t3
    b814:	08031863          	bnez	t1,b8a4 <__umoddi3+0x1bc>
    b818:	411585b3          	sub	a1,a1,a7
    b81c:	0108d713          	srli	a4,a7,0x10
    b820:	01089513          	slli	a0,a7,0x10
    b824:	01055513          	srli	a0,a0,0x10
    b828:	0107d613          	srli	a2,a5,0x10
    b82c:	02e5f6b3          	remu	a3,a1,a4
    b830:	02e5d5b3          	divu	a1,a1,a4
    b834:	01069693          	slli	a3,a3,0x10
    b838:	00c6e6b3          	or	a3,a3,a2
    b83c:	02b505b3          	mul	a1,a0,a1
    b840:	00b6fa63          	bleu	a1,a3,b854 <__umoddi3+0x16c>
    b844:	011686b3          	add	a3,a3,a7
    b848:	0116e663          	bltu	a3,a7,b854 <__umoddi3+0x16c>
    b84c:	00b6f463          	bleu	a1,a3,b854 <__umoddi3+0x16c>
    b850:	011686b3          	add	a3,a3,a7
    b854:	40b685b3          	sub	a1,a3,a1
    b858:	02e5f6b3          	remu	a3,a1,a4
    b85c:	01079793          	slli	a5,a5,0x10
    b860:	0107d793          	srli	a5,a5,0x10
    b864:	02e5d5b3          	divu	a1,a1,a4
    b868:	02b505b3          	mul	a1,a0,a1
    b86c:	01069513          	slli	a0,a3,0x10
    b870:	00f567b3          	or	a5,a0,a5
    b874:	00b7fa63          	bleu	a1,a5,b888 <__umoddi3+0x1a0>
    b878:	011787b3          	add	a5,a5,a7
    b87c:	0117e663          	bltu	a5,a7,b888 <__umoddi3+0x1a0>
    b880:	00b7f463          	bleu	a1,a5,b888 <__umoddi3+0x1a0>
    b884:	011787b3          	add	a5,a5,a7
    b888:	40b787b3          	sub	a5,a5,a1
    b88c:	f31ff06f          	j	b7bc <__umoddi3+0xd4>
    b890:	01000637          	lui	a2,0x1000
    b894:	01000713          	li	a4,16
    b898:	f6c8e2e3          	bltu	a7,a2,b7fc <__umoddi3+0x114>
    b89c:	01800713          	li	a4,24
    b8a0:	f5dff06f          	j	b7fc <__umoddi3+0x114>
    b8a4:	006898b3          	sll	a7,a7,t1
    b8a8:	01c5d733          	srl	a4,a1,t3
    b8ac:	006517b3          	sll	a5,a0,t1
    b8b0:	01c55e33          	srl	t3,a0,t3
    b8b4:	0108d513          	srli	a0,a7,0x10
    b8b8:	02a776b3          	remu	a3,a4,a0
    b8bc:	006595b3          	sll	a1,a1,t1
    b8c0:	00be6e33          	or	t3,t3,a1
    b8c4:	01089593          	slli	a1,a7,0x10
    b8c8:	0105d593          	srli	a1,a1,0x10
    b8cc:	010e5613          	srli	a2,t3,0x10
    b8d0:	02a75733          	divu	a4,a4,a0
    b8d4:	01069693          	slli	a3,a3,0x10
    b8d8:	00c6e6b3          	or	a3,a3,a2
    b8dc:	02e58733          	mul	a4,a1,a4
    b8e0:	00e6fa63          	bleu	a4,a3,b8f4 <__umoddi3+0x20c>
    b8e4:	011686b3          	add	a3,a3,a7
    b8e8:	0116e663          	bltu	a3,a7,b8f4 <__umoddi3+0x20c>
    b8ec:	00e6f463          	bleu	a4,a3,b8f4 <__umoddi3+0x20c>
    b8f0:	011686b3          	add	a3,a3,a7
    b8f4:	40e68633          	sub	a2,a3,a4
    b8f8:	02a676b3          	remu	a3,a2,a0
    b8fc:	010e1e13          	slli	t3,t3,0x10
    b900:	010e5e13          	srli	t3,t3,0x10
    b904:	02a65633          	divu	a2,a2,a0
    b908:	01069693          	slli	a3,a3,0x10
    b90c:	02c58633          	mul	a2,a1,a2
    b910:	01c6e5b3          	or	a1,a3,t3
    b914:	00c5fa63          	bleu	a2,a1,b928 <__umoddi3+0x240>
    b918:	011585b3          	add	a1,a1,a7
    b91c:	0115e663          	bltu	a1,a7,b928 <__umoddi3+0x240>
    b920:	00c5f463          	bleu	a2,a1,b928 <__umoddi3+0x240>
    b924:	011585b3          	add	a1,a1,a7
    b928:	40c585b3          	sub	a1,a1,a2
    b92c:	ef1ff06f          	j	b81c <__umoddi3+0x134>
    b930:	e8d5eae3          	bltu	a1,a3,b7c4 <__umoddi3+0xdc>
    b934:	00010737          	lui	a4,0x10
    b938:	04e6fc63          	bleu	a4,a3,b990 <__umoddi3+0x2a8>
    b93c:	0ff00e93          	li	t4,255
    b940:	00deb733          	sltu	a4,t4,a3
    b944:	00371713          	slli	a4,a4,0x3
    b948:	00e6d333          	srl	t1,a3,a4
    b94c:	00000897          	auipc	a7,0x0
    b950:	68c88893          	addi	a7,a7,1676 # bfd8 <__clz_tab>
    b954:	006888b3          	add	a7,a7,t1
    b958:	0008ce83          	lbu	t4,0(a7)
    b95c:	02000e13          	li	t3,32
    b960:	00ee8eb3          	add	t4,t4,a4
    b964:	41de0e33          	sub	t3,t3,t4
    b968:	020e1e63          	bnez	t3,b9a4 <__umoddi3+0x2bc>
    b96c:	00b6e463          	bltu	a3,a1,b974 <__umoddi3+0x28c>
    b970:	00c56a63          	bltu	a0,a2,b984 <__umoddi3+0x29c>
    b974:	40c507b3          	sub	a5,a0,a2
    b978:	40d585b3          	sub	a1,a1,a3
    b97c:	00f53533          	sltu	a0,a0,a5
    b980:	40a58833          	sub	a6,a1,a0
    b984:	00078513          	mv	a0,a5
    b988:	00080593          	mv	a1,a6
    b98c:	e39ff06f          	j	b7c4 <__umoddi3+0xdc>
    b990:	010008b7          	lui	a7,0x1000
    b994:	01000713          	li	a4,16
    b998:	fb16e8e3          	bltu	a3,a7,b948 <__umoddi3+0x260>
    b99c:	01800713          	li	a4,24
    b9a0:	fa9ff06f          	j	b948 <__umoddi3+0x260>
    b9a4:	01d65733          	srl	a4,a2,t4
    b9a8:	01c696b3          	sll	a3,a3,t3
    b9ac:	00d766b3          	or	a3,a4,a3
    b9b0:	0106d813          	srli	a6,a3,0x10
    b9b4:	01d5d733          	srl	a4,a1,t4
    b9b8:	03077333          	remu	t1,a4,a6
    b9bc:	01c595b3          	sll	a1,a1,t3
    b9c0:	01d557b3          	srl	a5,a0,t4
    b9c4:	00b7e7b3          	or	a5,a5,a1
    b9c8:	01069593          	slli	a1,a3,0x10
    b9cc:	0105d593          	srli	a1,a1,0x10
    b9d0:	0107d893          	srli	a7,a5,0x10
    b9d4:	01c61633          	sll	a2,a2,t3
    b9d8:	01c51533          	sll	a0,a0,t3
    b9dc:	03075733          	divu	a4,a4,a6
    b9e0:	01031313          	slli	t1,t1,0x10
    b9e4:	011368b3          	or	a7,t1,a7
    b9e8:	02e58f33          	mul	t5,a1,a4
    b9ec:	00070313          	mv	t1,a4
    b9f0:	01e8fe63          	bleu	t5,a7,ba0c <__umoddi3+0x324>
    b9f4:	00d888b3          	add	a7,a7,a3
    b9f8:	fff70313          	addi	t1,a4,-1 # ffff <end+0x3f27>
    b9fc:	00d8e863          	bltu	a7,a3,ba0c <__umoddi3+0x324>
    ba00:	01e8f663          	bleu	t5,a7,ba0c <__umoddi3+0x324>
    ba04:	ffe70313          	addi	t1,a4,-2
    ba08:	00d888b3          	add	a7,a7,a3
    ba0c:	41e888b3          	sub	a7,a7,t5
    ba10:	0308ff33          	remu	t5,a7,a6
    ba14:	0308d8b3          	divu	a7,a7,a6
    ba18:	010f1f13          	slli	t5,t5,0x10
    ba1c:	03158833          	mul	a6,a1,a7
    ba20:	01079593          	slli	a1,a5,0x10
    ba24:	0105d593          	srli	a1,a1,0x10
    ba28:	00bf65b3          	or	a1,t5,a1
    ba2c:	00088793          	mv	a5,a7
    ba30:	0105fe63          	bleu	a6,a1,ba4c <__umoddi3+0x364>
    ba34:	00d585b3          	add	a1,a1,a3
    ba38:	fff88793          	addi	a5,a7,-1 # ffffff <end+0xff3f27>
    ba3c:	00d5e863          	bltu	a1,a3,ba4c <__umoddi3+0x364>
    ba40:	0105f663          	bleu	a6,a1,ba4c <__umoddi3+0x364>
    ba44:	ffe88793          	addi	a5,a7,-2
    ba48:	00d585b3          	add	a1,a1,a3
    ba4c:	01031313          	slli	t1,t1,0x10
    ba50:	00010f37          	lui	t5,0x10
    ba54:	00f36333          	or	t1,t1,a5
    ba58:	ffff0793          	addi	a5,t5,-1 # ffff <end+0x3f27>
    ba5c:	00f378b3          	and	a7,t1,a5
    ba60:	410585b3          	sub	a1,a1,a6
    ba64:	01035313          	srli	t1,t1,0x10
    ba68:	01065813          	srli	a6,a2,0x10
    ba6c:	00f677b3          	and	a5,a2,a5
    ba70:	02f88733          	mul	a4,a7,a5
    ba74:	02f307b3          	mul	a5,t1,a5
    ba78:	030888b3          	mul	a7,a7,a6
    ba7c:	03030333          	mul	t1,t1,a6
    ba80:	00f888b3          	add	a7,a7,a5
    ba84:	01075813          	srli	a6,a4,0x10
    ba88:	01180833          	add	a6,a6,a7
    ba8c:	00f87463          	bleu	a5,a6,ba94 <__umoddi3+0x3ac>
    ba90:	01e30333          	add	t1,t1,t5
    ba94:	01085793          	srli	a5,a6,0x10
    ba98:	00678333          	add	t1,a5,t1
    ba9c:	000107b7          	lui	a5,0x10
    baa0:	fff78793          	addi	a5,a5,-1 # ffff <end+0x3f27>
    baa4:	00f87833          	and	a6,a6,a5
    baa8:	01081813          	slli	a6,a6,0x10
    baac:	00f77733          	and	a4,a4,a5
    bab0:	00e80733          	add	a4,a6,a4
    bab4:	0065e663          	bltu	a1,t1,bac0 <__umoddi3+0x3d8>
    bab8:	00659e63          	bne	a1,t1,bad4 <__umoddi3+0x3ec>
    babc:	00e57c63          	bleu	a4,a0,bad4 <__umoddi3+0x3ec>
    bac0:	40c70633          	sub	a2,a4,a2
    bac4:	00c73733          	sltu	a4,a4,a2
    bac8:	00d70733          	add	a4,a4,a3
    bacc:	40e30333          	sub	t1,t1,a4
    bad0:	00060713          	mv	a4,a2
    bad4:	40e50733          	sub	a4,a0,a4
    bad8:	00e53533          	sltu	a0,a0,a4
    badc:	406585b3          	sub	a1,a1,t1
    bae0:	40a585b3          	sub	a1,a1,a0
    bae4:	01d597b3          	sll	a5,a1,t4
    bae8:	01c75733          	srl	a4,a4,t3
    baec:	00e7e533          	or	a0,a5,a4
    baf0:	01c5d5b3          	srl	a1,a1,t3
    baf4:	cd1ff06f          	j	b7c4 <__umoddi3+0xdc>

0000baf8 <__mulsi3>:
    baf8:	00050613          	mv	a2,a0
    bafc:	00000513          	li	a0,0
    bb00:	0015f693          	andi	a3,a1,1
    bb04:	00068463          	beqz	a3,bb0c <__mulsi3+0x14>
    bb08:	00c50533          	add	a0,a0,a2
    bb0c:	0015d593          	srli	a1,a1,0x1
    bb10:	00161613          	slli	a2,a2,0x1
    bb14:	fe0596e3          	bnez	a1,bb00 <__mulsi3+0x8>
    bb18:	00008067          	ret

0000bb1c <__muldi3>:
    bb1c:	00060893          	mv	a7,a2
    bb20:	00050313          	mv	t1,a0
    bb24:	00000713          	li	a4,0
    bb28:	00000793          	li	a5,0
    bb2c:	00000813          	li	a6,0
    bb30:	0018fe13          	andi	t3,a7,1
    bb34:	00171e93          	slli	t4,a4,0x1
    bb38:	000e0c63          	beqz	t3,bb50 <__muldi3+0x34>
    bb3c:	01030e33          	add	t3,t1,a6
    bb40:	010e3833          	sltu	a6,t3,a6
    bb44:	00e787b3          	add	a5,a5,a4
    bb48:	00f807b3          	add	a5,a6,a5
    bb4c:	000e0813          	mv	a6,t3
    bb50:	01f35713          	srli	a4,t1,0x1f
    bb54:	0018d893          	srli	a7,a7,0x1
    bb58:	00eee733          	or	a4,t4,a4
    bb5c:	00131313          	slli	t1,t1,0x1
    bb60:	fc0898e3          	bnez	a7,bb30 <__muldi3+0x14>
    bb64:	00059e63          	bnez	a1,bb80 <__muldi3+0x64>
    bb68:	00078593          	mv	a1,a5
    bb6c:	00068663          	beqz	a3,bb78 <__muldi3+0x5c>
    bb70:	02a686b3          	mul	a3,a3,a0
    bb74:	00b685b3          	add	a1,a3,a1
    bb78:	00080513          	mv	a0,a6
    bb7c:	00008067          	ret
    bb80:	02c585b3          	mul	a1,a1,a2
    bb84:	00f585b3          	add	a1,a1,a5
    bb88:	fe5ff06f          	j	bb6c <__muldi3+0x50>

0000bb8c <__divsi3>:
    bb8c:	06054063          	bltz	a0,bbec <__umodsi3+0x10>
    bb90:	0605c663          	bltz	a1,bbfc <__umodsi3+0x20>

0000bb94 <__udivsi3>:
    bb94:	00058613          	mv	a2,a1
    bb98:	00050593          	mv	a1,a0
    bb9c:	fff00513          	li	a0,-1
    bba0:	02060c63          	beqz	a2,bbd8 <__udivsi3+0x44>
    bba4:	00100693          	li	a3,1
    bba8:	00b67a63          	bleu	a1,a2,bbbc <__udivsi3+0x28>
    bbac:	00c05863          	blez	a2,bbbc <__udivsi3+0x28>
    bbb0:	00161613          	slli	a2,a2,0x1
    bbb4:	00169693          	slli	a3,a3,0x1
    bbb8:	feb66ae3          	bltu	a2,a1,bbac <__udivsi3+0x18>
    bbbc:	00000513          	li	a0,0
    bbc0:	00c5e663          	bltu	a1,a2,bbcc <__udivsi3+0x38>
    bbc4:	40c585b3          	sub	a1,a1,a2
    bbc8:	00d56533          	or	a0,a0,a3
    bbcc:	0016d693          	srli	a3,a3,0x1
    bbd0:	00165613          	srli	a2,a2,0x1
    bbd4:	fe0696e3          	bnez	a3,bbc0 <__udivsi3+0x2c>
    bbd8:	00008067          	ret

0000bbdc <__umodsi3>:
    bbdc:	00008293          	mv	t0,ra
    bbe0:	fb5ff0ef          	jal	ra,bb94 <__udivsi3>
    bbe4:	00058513          	mv	a0,a1
    bbe8:	00028067          	jr	t0
    bbec:	40a00533          	neg	a0,a0
    bbf0:	0005d863          	bgez	a1,bc00 <__umodsi3+0x24>
    bbf4:	40b005b3          	neg	a1,a1
    bbf8:	f9dff06f          	j	bb94 <__udivsi3>
    bbfc:	40b005b3          	neg	a1,a1
    bc00:	00008293          	mv	t0,ra
    bc04:	f91ff0ef          	jal	ra,bb94 <__udivsi3>
    bc08:	40a00533          	neg	a0,a0
    bc0c:	00028067          	jr	t0

0000bc10 <__modsi3>:
    bc10:	00008293          	mv	t0,ra
    bc14:	0005ca63          	bltz	a1,bc28 <__modsi3+0x18>
    bc18:	00054c63          	bltz	a0,bc30 <__modsi3+0x20>
    bc1c:	f79ff0ef          	jal	ra,bb94 <__udivsi3>
    bc20:	00058513          	mv	a0,a1
    bc24:	00028067          	jr	t0
    bc28:	40b005b3          	neg	a1,a1
    bc2c:	fe0558e3          	bgez	a0,bc1c <__modsi3+0xc>
    bc30:	40a00533          	neg	a0,a0
    bc34:	f61ff0ef          	jal	ra,bb94 <__udivsi3>
    bc38:	40b00533          	neg	a0,a1
    bc3c:	00028067          	jr	t0
    bc40:	2020                	fld	fs0,64(s0)
    bc42:	2020                	fld	fs0,64(s0)
    bc44:	0000                	unimp
    bc46:	0000                	unimp
    bc48:	694d                	lui	s2,0x13
    bc4a:	74616d73          	csrrsi	s10,0x746,2
    bc4e:	62206863          	bltu	zero,sp,c27e <end+0x1a6>
    bc52:	7465                	lui	s0,0xffff9
    bc54:	6e656577          	0x6e656577
    bc58:	7120                	flw	fs0,96(a0)
    bc5a:	2030                	fld	fa2,64(s0)
    bc5c:	534c                	lw	a1,36(a4)
    bc5e:	2042                	fld	ft0,16(sp)
    bc60:	6e61                	lui	t3,0x18
    bc62:	2064                	fld	fs1,192(s0)
    bc64:	6564                	flw	fs1,76(a0)
    bc66:	65646f63          	bltu	s0,s6,c2c4 <end+0x1ec>
    bc6a:	2064                	fld	fs1,192(s0)
    bc6c:	6e69                	lui	t3,0x1a
    bc6e:	75727473          	csrrci	s0,0x757,4
    bc72:	6f697463          	bleu	s6,s2,c35a <end+0x282>
    bc76:	206e                	fld	ft0,216(sp)
    bc78:	64726f77          	0x64726f77
    bc7c:	2021                	jal	bc84 <__modsi3+0x74>
    bc7e:	3071                	jal	b50a <__udivdi3+0x256>
    bc80:	303d                	jal	b4ae <__udivdi3+0x1fa>
    bc82:	0078                	addi	a4,sp,12
    bc84:	202c                	fld	fa1,64(s0)
    bc86:	6e69                	lui	t3,0x1a
    bc88:	3d727473          	csrrci	s0,0x3d7,4
    bc8c:	7830                	flw	fa2,112(s0)
    bc8e:	0000                	unimp
    bc90:	2d2d                	jal	c2ca <end+0x1f2>
    bc92:	2d2d                	jal	c2cc <end+0x1f4>
    bc94:	2d2d                	jal	c2ce <end+0x1f6>
    bc96:	2d2d                	jal	c2d0 <end+0x1f8>
    bc98:	2d2d                	jal	c2d2 <end+0x1fa>
    bc9a:	2d2d                	jal	c2d4 <end+0x1fc>
    bc9c:	2d2d                	jal	c2d6 <end+0x1fe>
    bc9e:	2d2d                	jal	c2d8 <end+0x200>
    bca0:	2d2d                	jal	c2da <end+0x202>
    bca2:	2d2d                	jal	c2dc <end+0x204>
    bca4:	2d2d                	jal	c2de <end+0x206>
    bca6:	2d2d                	jal	c2e0 <end+0x208>
    bca8:	2d2d                	jal	c2e2 <end+0x20a>
    bcaa:	2d2d                	jal	c2e4 <end+0x20c>
    bcac:	2d2d                	jal	c2e6 <end+0x20e>
    bcae:	2d2d                	jal	c2e8 <end+0x210>
    bcb0:	2d2d                	jal	c2ea <end+0x212>
    bcb2:	2d2d                	jal	c2ec <end+0x214>
    bcb4:	2d2d                	jal	c2ee <end+0x216>
    bcb6:	2d2d                	jal	c2f0 <end+0x218>
    bcb8:	2d2d                	jal	c2f2 <end+0x21a>
    bcba:	2d2d                	jal	c2f4 <end+0x21c>
    bcbc:	2d2d                	jal	c2f6 <end+0x21e>
    bcbe:	2d2d                	jal	c2f8 <end+0x220>
    bcc0:	2d2d                	jal	c2fa <end+0x222>
    bcc2:	2d2d                	jal	c2fc <end+0x224>
    bcc4:	2d2d                	jal	c2fe <end+0x226>
    bcc6:	2d2d                	jal	c300 <end+0x228>
    bcc8:	2d2d                	jal	c302 <end+0x22a>
    bcca:	2d2d                	jal	c304 <end+0x22c>
    bccc:	000a                	c.slli	zero,0x2
    bcce:	0000                	unimp
    bcd0:	4245                	li	tp,17
    bcd2:	4552                	lw	a0,20(sp)
    bcd4:	4b41                	li	s6,16
    bcd6:	6920                	flw	fs0,80(a0)
    bcd8:	736e                	flw	ft6,248(sp)
    bcda:	7274                	flw	fa3,100(a2)
    bcdc:	6375                	lui	t1,0x1d
    bcde:	6974                	flw	fa3,84(a0)
    bce0:	61206e6f          	jal	t3,122f2 <end+0x621a>
    bce4:	2074                	fld	fa3,192(s0)
    bce6:	7830                	flw	fa2,112(s0)
    bce8:	0000                	unimp
    bcea:	0000                	unimp
    bcec:	6c49                	lui	s8,0x12
    bcee:	656c                	flw	fa1,76(a0)
    bcf0:	206c6167          	0x206c6167
    bcf4:	6e49                	lui	t3,0x12
    bcf6:	75727473          	csrrci	s0,0x757,4
    bcfa:	6f697463          	bleu	s6,s2,c3e2 <end+0x30a>
    bcfe:	206e                	fld	ft0,216(sp)
    bd00:	7461                	lui	s0,0xffff8
    bd02:	3020                	fld	fs0,96(s0)
    bd04:	0078                	addi	a4,sp,12
    bd06:	0000                	unimp
    bd08:	203a                	fld	ft0,392(sp)
    bd0a:	7830                	flw	fa2,112(s0)
    bd0c:	0000                	unimp
    bd0e:	0000                	unimp
    bd10:	7542                	flw	fa0,48(sp)
    bd12:	72652073          	csrs	0x726,a0
    bd16:	6f72                	flw	ft10,28(sp)
    bd18:	2072                	fld	ft0,280(sp)
    bd1a:	6e69                	lui	t3,0x1a
    bd1c:	4920                	lw	s0,80(a0)
    bd1e:	736e                	flw	ft6,248(sp)
    bd20:	7274                	flw	fa3,100(a2)
    bd22:	6375                	lui	t1,0x1d
    bd24:	6974                	flw	fa3,84(a0)
    bd26:	61206e6f          	jal	t3,12338 <end+0x6260>
    bd2a:	2074                	fld	fa3,192(s0)
    bd2c:	7830                	flw	fa2,112(s0)
    bd2e:	0000                	unimp
    bd30:	6370                	flw	fa2,68(a4)
    bd32:	2020                	fld	fs0,64(s0)
    bd34:	0000                	unimp
    bd36:	0000                	unimp
    bd38:	754e                	flw	fa0,240(sp)
    bd3a:	626d                	lui	tp,0x1b
    bd3c:	7265                	lui	tp,0xffff9
    bd3e:	6f20                	flw	fs0,88(a4)
    bd40:	2066                	fld	ft0,88(sp)
    bd42:	6166                	flw	ft2,88(sp)
    bd44:	65207473          	csrrci	s0,0x652,0
    bd48:	7478                	flw	fa4,108(s0)
    bd4a:	7265                	lui	tp,0xffff9
    bd4c:	616e                	flw	ft2,216(sp)
    bd4e:	206c                	fld	fa1,192(s0)
    bd50:	5249                	li	tp,-14
    bd52:	7351                	lui	t1,0xffff4
    bd54:	6320                	flw	fs0,64(a4)
    bd56:	746e756f          	jal	a0,f349c <end+0xe73c4>
    bd5a:	6465                	lui	s0,0x19
    bd5c:	203a                	fld	ft0,392(sp)
    bd5e:	0000                	unimp
    bd60:	754e                	flw	fa0,240(sp)
    bd62:	626d                	lui	tp,0x1b
    bd64:	7265                	lui	tp,0xffff9
    bd66:	6f20                	flw	fs0,88(a4)
    bd68:	2066                	fld	ft0,88(sp)
    bd6a:	776f6c73          	csrrsi	s8,0x776,30
    bd6e:	6520                	flw	fs0,72(a0)
    bd70:	7478                	flw	fa4,108(s0)
    bd72:	7265                	lui	tp,0xffff9
    bd74:	616e                	flw	ft2,216(sp)
    bd76:	206c                	fld	fa1,192(s0)
    bd78:	5249                	li	tp,-14
    bd7a:	7351                	lui	t1,0xffff4
    bd7c:	6320                	flw	fs0,64(a4)
    bd7e:	746e756f          	jal	a0,f34c4 <end+0xe73ec>
    bd82:	6465                	lui	s0,0x19
    bd84:	203a                	fld	ft0,392(sp)
    bd86:	0000                	unimp
    bd88:	754e                	flw	fa0,240(sp)
    bd8a:	626d                	lui	tp,0x1b
    bd8c:	7265                	lui	tp,0xffff9
    bd8e:	6f20                	flw	fs0,88(a4)
    bd90:	2066                	fld	ft0,88(sp)
    bd92:	6974                	flw	fa3,84(a0)
    bd94:	656d                	lui	a0,0x1b
    bd96:	2072                	fld	ft0,280(sp)
    bd98:	5249                	li	tp,-14
    bd9a:	7351                	lui	t1,0xffff4
    bd9c:	6320                	flw	fs0,64(a4)
    bd9e:	746e756f          	jal	a0,f34e4 <end+0xe740c>
    bda2:	6465                	lui	s0,0x19
    bda4:	203a                	fld	ft0,392(sp)
	...

0000bda8 <timer_irq_count.1036>:
    bda8:	0000 0000                                   ....

0000bdac <ext_irq_5_count.1035>:
    bdac:	0000 0000                                   ....

0000bdb0 <ext_irq_4_count.1034>:
    bdb0:	0000 0000 4347 3a43 2820 4e47 2955 3820     ....GCC: (GNU) 8
    bdc0:	312e 302e 0000 0000 3130 3332 3534 3736     .1.0....01234567
    bdd0:	3938 4241 4443 4645 0000 0000 6568 6c6c     89ABCDEF....hell
    bde0:	206f 6f77 6c72 0a64 0000 0000 0020 0000     o world..... ...
    bdf0:	7473 0000 646e 0000 6472 0000 6874 0000     st..nd..rd..th..
    be00:	7020 6972 656d 6920 2073 0000 0a2e 0000      prime is ......
    be10:	6863 6365 736b 6d75 203a 0000 4f20 0a4b     checksum: .. OK.
    be20:	0000 0000 4520 5252 524f 000a               .... ERROR..

0000be2c <hash>:
    be2c:	0000 0000                                   ....

0000be30 <bitmap>:
	...
    be38:	6e69 7570 2074 2020 2020 005b 205d 0000     input     [.] ..
    be48:	5b20 0000 6168 6472 6d20 6c75 2020 0020      [..hard mul   .
    be58:	2020 0000 6f73 7466 6d20 6c75 2020 0020       ..soft mul   .
    be68:	5245 4f52 2152 000a 6168 6472 6420 7669     ERROR!..hard div
    be78:	2020 0020 6f73 7466 6420 7669 2020 0020        .soft div   .

0000be88 <x.1033>:
    be88:	b0a1 12b9 7943 6c63 2065 6f63 6e75 6574     ....Cycle counte
    be98:	2072 2e2e 2e2e 2e2e 2e2e 0000 490a 736e     r ...........Ins
    bea8:	7274 6375 6974 6e6f 6320 756f 746e 7265     truction counter
    beb8:	2e20 002e 430a 4950 203a 0000 002e 0000      ....CPI: ......

0000bec8 <tdat>:
    bec8:	ff    	Address 0x000000000000bec8 is out of bounds.

    becc:	 

0000bec9 <tdat2>:
	...

0000beca <tdat3>:
    beca:	f0    	Address 0x000000000000beca is out of bounds.

    bece:	 

0000becb <tdat4>:
    becb:	0f    	Address 0x000000000000becb is out of bounds.

    becf:	 

0000becc <tdat>:
    becc:	ff    	Address 0x000000000000becc is out of bounds.

    bed0:	 

0000becd <tdat2>:
	...

0000bece <tdat3>:
    bece:	f0    	Address 0x000000000000bece is out of bounds.

    bed2:	 

0000becf <tdat4>:
    becf:	0f    	Address 0x000000000000becf is out of bounds.

    bed3:	 

0000bed0 <tdat>:
    bed0:	00ff                	0xff

0000bed2 <tdat2>:
    bed2:	ff00                	fsw	fs0,56(a4)

0000bed4 <tdat3>:
    bed4:	0ff0                	addi	a2,sp,988

0000bed6 <tdat4>:
    bed6:	          	0xf00f

0000bed8 <tdat>:
    bed8:	00ff                	0xff

0000beda <tdat2>:
    beda:	ff00                	fsw	fs0,56(a4)

0000bedc <tdat3>:
    bedc:	0ff0                	addi	a2,sp,988

0000bede <tdat4>:
    bede:	          	0xf00f

0000bee0 <tdat>:
    bee0:	00ff                	0xff
    bee2:	00ff                	0xff

0000bee4 <tdat2>:
    bee4:	ff00                	fsw	fs0,56(a4)
    bee6:	ff00                	fsw	fs0,56(a4)

0000bee8 <tdat3>:
    bee8:	0ff0                	addi	a2,sp,988
    beea:	0ff0                	addi	a2,sp,988

0000beec <tdat4>:
    beec:	f00ff00f          	0xf00ff00f

0000bef0 <tdat>:
    bef0:	ef    	Address 0x000000000000bef0 is out of bounds.

    bef4:	 

0000bef1 <tdat2>:
    bef1:	ef    	Address 0x000000000000bef1 is out of bounds.

    bef5:	 

0000bef2 <tdat3>:
    bef2:	ef    	Address 0x000000000000bef2 is out of bounds.

    bef6:	 

0000bef3 <tdat4>:
    bef3:	ef    	Address 0x000000000000bef3 is out of bounds.

    bef7:	 

0000bef4 <tdat5>:
    bef4:	ef    	Address 0x000000000000bef4 is out of bounds.

    bef8:	 

0000bef5 <tdat6>:
    bef5:	ef    	Address 0x000000000000bef5 is out of bounds.

    bef9:	 

0000bef6 <tdat7>:
    bef6:	ef    	Address 0x000000000000bef6 is out of bounds.

    befa:	 

0000bef7 <tdat8>:
    bef7:	ef    	Address 0x000000000000bef7 is out of bounds.

    befb:	 

0000bef8 <tdat9>:
    bef8:	ef    	Address 0x000000000000bef8 is out of bounds.

    befc:	 

0000bef9 <tdat10>:
    bef9:	          	jal	ra,bef9 <tdat10>

0000befc <tdat>:
    befc:	          	jal	t4,16efc <end+0xae24>

0000befe <tdat2>:
    befe:	          	jal	t4,16efe <end+0xae26>

0000bf00 <tdat3>:
    bf00:	          	jal	t4,16f00 <end+0xae28>

0000bf02 <tdat4>:
    bf02:	          	jal	t4,16f02 <end+0xae2a>

0000bf04 <tdat5>:
    bf04:	          	jal	t4,16f04 <end+0xae2c>

0000bf06 <tdat6>:
    bf06:	          	jal	t4,16f06 <end+0xae2e>

0000bf08 <tdat7>:
    bf08:	          	jal	t4,16f08 <end+0xae30>

0000bf0a <tdat8>:
    bf0a:	          	jal	t4,16f0a <end+0xae32>

0000bf0c <tdat9>:
    bf0c:	          	jal	t4,16f0c <end+0xae34>

0000bf0e <tdat10>:
    bf0e:	          	jal	t4,16f0e <end+0xae36>

0000bf10 <tdat>:
    bf10:	deadbeef          	jal	t4,fffe74fa <end+0xfffdb422>

0000bf14 <tdat2>:
    bf14:	deadbeef          	jal	t4,fffe74fe <end+0xfffdb426>

0000bf18 <tdat3>:
    bf18:	deadbeef          	jal	t4,fffe7502 <end+0xfffdb42a>

0000bf1c <tdat4>:
    bf1c:	deadbeef          	jal	t4,fffe7506 <end+0xfffdb42e>

0000bf20 <tdat5>:
    bf20:	deadbeef          	jal	t4,fffe750a <end+0xfffdb432>

0000bf24 <tdat6>:
    bf24:	deadbeef          	jal	t4,fffe750e <end+0xfffdb436>

0000bf28 <tdat7>:
    bf28:	deadbeef          	jal	t4,fffe7512 <end+0xfffdb43a>

0000bf2c <tdat8>:
    bf2c:	deadbeef          	jal	t4,fffe7516 <end+0xfffdb43e>

0000bf30 <tdat9>:
    bf30:	deadbeef          	jal	t4,fffe751a <end+0xfffdb442>

0000bf34 <tdat10>:
    bf34:	deadbeef          	jal	t4,fffe751e <end+0xfffdb446>
    bf38:	0010                	0x10
    bf3a:	0000                	unimp
    bf3c:	0000                	unimp
    bf3e:	0000                	unimp
    bf40:	7a01                	lui	s4,0xfffe0
    bf42:	0052                	c.slli	zero,0x14
    bf44:	7c01                	lui	s8,0xfffe0
    bf46:	0101                	addi	sp,sp,0
    bf48:	00020d1b          	0x20d1b
    bf4c:	0010                	0x10
    bf4e:	0000                	unimp
    bf50:	0018                	0x18
    bf52:	0000                	unimp
    bf54:	ea88                	fsw	fa0,16(a3)
    bf56:	ffff                	0xffff
    bf58:	0480                	addi	s0,sp,576
    bf5a:	0000                	unimp
    bf5c:	0000                	unimp
    bf5e:	0000                	unimp
    bf60:	0010                	0x10
    bf62:	0000                	unimp
    bf64:	0000                	unimp
    bf66:	0000                	unimp
    bf68:	7a01                	lui	s4,0xfffe0
    bf6a:	0052                	c.slli	zero,0x14
    bf6c:	7c01                	lui	s8,0xfffe0
    bf6e:	0101                	addi	sp,sp,0
    bf70:	00020d1b          	0x20d1b
    bf74:	0010                	0x10
    bf76:	0000                	unimp
    bf78:	0018                	0x18
    bf7a:	0000                	unimp
    bf7c:	eee0                	fsw	fs0,92(a3)
    bf7e:	ffff                	0xffff
    bf80:	0458                	addi	a4,sp,516
    bf82:	0000                	unimp
    bf84:	0000                	unimp
    bf86:	0000                	unimp
    bf88:	0010                	0x10
    bf8a:	0000                	unimp
    bf8c:	0000                	unimp
    bf8e:	0000                	unimp
    bf90:	7a01                	lui	s4,0xfffe0
    bf92:	0052                	c.slli	zero,0x14
    bf94:	7c01                	lui	s8,0xfffe0
    bf96:	0101                	addi	sp,sp,0
    bf98:	00020d1b          	0x20d1b
    bf9c:	0010                	0x10
    bf9e:	0000                	unimp
    bfa0:	0018                	0x18
    bfa2:	0000                	unimp
    bfa4:	f310                	fsw	fa2,32(a4)
    bfa6:	ffff                	0xffff
    bfa8:	0434                	addi	a3,sp,520
    bfaa:	0000                	unimp
    bfac:	0000                	unimp
    bfae:	0000                	unimp
    bfb0:	0010                	0x10
    bfb2:	0000                	unimp
    bfb4:	0000                	unimp
    bfb6:	0000                	unimp
    bfb8:	7a01                	lui	s4,0xfffe0
    bfba:	0052                	c.slli	zero,0x14
    bfbc:	7c01                	lui	s8,0xfffe0
    bfbe:	0101                	addi	sp,sp,0
    bfc0:	00020d1b          	0x20d1b
    bfc4:	0010                	0x10
    bfc6:	0000                	unimp
    bfc8:	0018                	0x18
    bfca:	0000                	unimp
    bfcc:	f71c                	fsw	fa5,40(a4)
    bfce:	ffff                	0xffff
    bfd0:	0410                	addi	a2,sp,512
    bfd2:	0000                	unimp
    bfd4:	0000                	unimp
	...

0000bfd8 <__clz_tab>:
    bfd8:	0100 0202 0303 0303 0404 0404 0404 0404     ................
    bfe8:	0505 0505 0505 0505 0505 0505 0505 0505     ................
    bff8:	0606 0606 0606 0606 0606 0606 0606 0606     ................
    c008:	0606 0606 0606 0606 0606 0606 0606 0606     ................
    c018:	0707 0707 0707 0707 0707 0707 0707 0707     ................
    c028:	0707 0707 0707 0707 0707 0707 0707 0707     ................
    c038:	0707 0707 0707 0707 0707 0707 0707 0707     ................
    c048:	0707 0707 0707 0707 0707 0707 0707 0707     ................
    c058:	0808 0808 0808 0808 0808 0808 0808 0808     ................
    c068:	0808 0808 0808 0808 0808 0808 0808 0808     ................
    c078:	0808 0808 0808 0808 0808 0808 0808 0808     ................
    c088:	0808 0808 0808 0808 0808 0808 0808 0808     ................
    c098:	0808 0808 0808 0808 0808 0808 0808 0808     ................
    c0a8:	0808 0808 0808 0808 0808 0808 0808 0808     ................
    c0b8:	0808 0808 0808 0808 0808 0808 0808 0808     ................
    c0c8:	0808 0808 0808 0808 0808 0808 0808 0808     ................
